---
triple:          'arm64-apple-darwin'
binary-path:     '/Users/emadurandal/ghq/github.com/emadurandal/MoonBit_WebGPU_ex/moon/webgpu-examples/_build/native/debug/build/triangle-with-buffer/wgpu/main/main.exe'
relocations:
  - { offset: 0x3E795, size: 0x8, addend: 0x0, symName: __RNvCsiGVaDesi5rv_7___rustc10rust_panic, symObjAddr: 0x0, symBinAddr: 0x100595AF8, symSize: 0x60 }
  - { offset: 0x3EE94, size: 0x8, addend: 0x0, symName: '__ZN42_$LT$$RF$T$u20$as$u20$core..fmt..Debug$GT$3fmt17h093f7ed39a152d7dE', symObjAddr: 0x22F74, symBinAddr: 0x1004FFEAC, symSize: 0x78 }
  - { offset: 0x3EF2D, size: 0x8, addend: 0x0, symName: '__ZN42_$LT$$RF$T$u20$as$u20$core..fmt..Debug$GT$3fmt17h0d1e33f94bcc6a0fE', symObjAddr: 0x22FEC, symBinAddr: 0x1004FFF24, symSize: 0x38 }
  - { offset: 0x3EF5F, size: 0x8, addend: 0x0, symName: '__ZN42_$LT$$RF$T$u20$as$u20$core..fmt..Debug$GT$3fmt17h159bb67c03d8d810E', symObjAddr: 0x23024, symBinAddr: 0x1004FFF5C, symSize: 0x1C }
  - { offset: 0x3EFA7, size: 0x8, addend: 0x0, symName: '__ZN42_$LT$$RF$T$u20$as$u20$core..fmt..Debug$GT$3fmt17h16c1cc094f09779aE', symObjAddr: 0x23040, symBinAddr: 0x1004FFF78, symSize: 0x6C }
  - { offset: 0x3EFD9, size: 0x8, addend: 0x0, symName: '__ZN42_$LT$$RF$T$u20$as$u20$core..fmt..Debug$GT$3fmt17h2f19e67a7086a3fdE', symObjAddr: 0x230AC, symBinAddr: 0x1004FFFE4, symSize: 0x8 }
  - { offset: 0x3F002, size: 0x8, addend: 0x0, symName: '__ZN42_$LT$$RF$T$u20$as$u20$core..fmt..Debug$GT$3fmt17h3477420d1f7a2245E', symObjAddr: 0x230B4, symBinAddr: 0x1004FFFEC, symSize: 0x30 }
  - { offset: 0x3F145, size: 0x8, addend: 0x0, symName: '__ZN42_$LT$$RF$T$u20$as$u20$core..fmt..Debug$GT$3fmt17h3e759d2dca35e02dE', symObjAddr: 0x230E4, symBinAddr: 0x10050001C, symSize: 0x70 }
  - { offset: 0x3F177, size: 0x8, addend: 0x0, symName: '__ZN42_$LT$$RF$T$u20$as$u20$core..fmt..Debug$GT$3fmt17h452bbc111c4d36daE', symObjAddr: 0x23154, symBinAddr: 0x10050008C, symSize: 0x38 }
  - { offset: 0x3F1A9, size: 0x8, addend: 0x0, symName: '__ZN42_$LT$$RF$T$u20$as$u20$core..fmt..Debug$GT$3fmt17h5115a611bfea14deE', symObjAddr: 0x2318C, symBinAddr: 0x1005000C4, symSize: 0x1C }
  - { offset: 0x3F1F1, size: 0x8, addend: 0x0, symName: '__ZN42_$LT$$RF$T$u20$as$u20$core..fmt..Debug$GT$3fmt17h545804af32bd5e13E', symObjAddr: 0x231A8, symBinAddr: 0x1005000E0, symSize: 0x14C }
  - { offset: 0x3F506, size: 0x8, addend: 0x0, symName: '__ZN42_$LT$$RF$T$u20$as$u20$core..fmt..Debug$GT$3fmt17h553cb80bc343281bE', symObjAddr: 0x232F4, symBinAddr: 0x10050022C, symSize: 0x6C }
  - { offset: 0x3F54F, size: 0x8, addend: 0x0, symName: '__ZN42_$LT$$RF$T$u20$as$u20$core..fmt..Debug$GT$3fmt17h555860f46008b5e9E', symObjAddr: 0x23360, symBinAddr: 0x100500298, symSize: 0x58 }
  - { offset: 0x3F581, size: 0x8, addend: 0x0, symName: '__ZN42_$LT$$RF$T$u20$as$u20$core..fmt..Debug$GT$3fmt17h5704a9261e8bb9f0E', symObjAddr: 0x233B8, symBinAddr: 0x1005002F0, symSize: 0x10 }
  - { offset: 0x3F595, size: 0x8, addend: 0x0, symName: '__ZN42_$LT$$RF$T$u20$as$u20$core..fmt..Debug$GT$3fmt17h7187456f6b0fc641E', symObjAddr: 0x233C8, symBinAddr: 0x100500300, symSize: 0x64 }
  - { offset: 0x3F5C7, size: 0x8, addend: 0x0, symName: '__ZN42_$LT$$RF$T$u20$as$u20$core..fmt..Debug$GT$3fmt17h7495cd4c81600651E', symObjAddr: 0x2342C, symBinAddr: 0x100500364, symSize: 0x10 }
  - { offset: 0x3F5E2, size: 0x8, addend: 0x0, symName: '__ZN42_$LT$$RF$T$u20$as$u20$core..fmt..Debug$GT$3fmt17h775b9af27b87c6b3E', symObjAddr: 0x2343C, symBinAddr: 0x100500374, symSize: 0x8 }
  - { offset: 0x3F60B, size: 0x8, addend: 0x0, symName: '__ZN42_$LT$$RF$T$u20$as$u20$core..fmt..Debug$GT$3fmt17h80a2470f5fde7b60E', symObjAddr: 0x23444, symBinAddr: 0x10050037C, symSize: 0x10 }
  - { offset: 0x3F63D, size: 0x8, addend: 0x0, symName: '__ZN42_$LT$$RF$T$u20$as$u20$core..fmt..Debug$GT$3fmt17h8aa9e80b89f83442E', symObjAddr: 0x23454, symBinAddr: 0x10050038C, symSize: 0x44 }
  - { offset: 0x3F66F, size: 0x8, addend: 0x0, symName: '__ZN42_$LT$$RF$T$u20$as$u20$core..fmt..Debug$GT$3fmt17h8af51b948dcec5e8E', symObjAddr: 0x23498, symBinAddr: 0x1005003D0, symSize: 0x144 }
  - { offset: 0x3F6A1, size: 0x8, addend: 0x0, symName: '__ZN42_$LT$$RF$T$u20$as$u20$core..fmt..Debug$GT$3fmt17h8df2d8cd13d60c05E', symObjAddr: 0x235DC, symBinAddr: 0x100500514, symSize: 0x68 }
  - { offset: 0x3F6CC, size: 0x8, addend: 0x0, symName: '__ZN42_$LT$$RF$T$u20$as$u20$core..fmt..Debug$GT$3fmt17h91d60bb2108f06f9E', symObjAddr: 0x23644, symBinAddr: 0x10050057C, symSize: 0xC4 }
  - { offset: 0x3F6F6, size: 0x8, addend: 0x0, symName: '__ZN42_$LT$$RF$T$u20$as$u20$core..fmt..Debug$GT$3fmt17h992ca01272955d2bE', symObjAddr: 0x23708, symBinAddr: 0x100500640, symSize: 0x8 }
  - { offset: 0x3F711, size: 0x8, addend: 0x0, symName: '__ZN42_$LT$$RF$T$u20$as$u20$core..fmt..Debug$GT$3fmt17h9b13754301b1f3a2E', symObjAddr: 0x23710, symBinAddr: 0x100500648, symSize: 0x1C }
  - { offset: 0x3F759, size: 0x8, addend: 0x0, symName: '__ZN42_$LT$$RF$T$u20$as$u20$core..fmt..Debug$GT$3fmt17h9cdae044b88deaf6E', symObjAddr: 0x2372C, symBinAddr: 0x100500664, symSize: 0x2C }
  - { offset: 0x3F87E, size: 0x8, addend: 0x0, symName: '__ZN42_$LT$$RF$T$u20$as$u20$core..fmt..Debug$GT$3fmt17ha5a7143997b64d3bE', symObjAddr: 0x23758, symBinAddr: 0x100500690, symSize: 0x10 }
  - { offset: 0x3F8BE, size: 0x8, addend: 0x0, symName: '__ZN42_$LT$$RF$T$u20$as$u20$core..fmt..Debug$GT$3fmt17ha76ed3c462acb3a6E', symObjAddr: 0x23768, symBinAddr: 0x1005006A0, symSize: 0x2C }
  - { offset: 0x3F934, size: 0x8, addend: 0x0, symName: '__ZN42_$LT$$RF$T$u20$as$u20$core..fmt..Debug$GT$3fmt17hb5103a9696c82de8E', symObjAddr: 0x23794, symBinAddr: 0x1005006CC, symSize: 0x4C }
  - { offset: 0x3F9A7, size: 0x8, addend: 0x0, symName: '__ZN42_$LT$$RF$T$u20$as$u20$core..fmt..Debug$GT$3fmt17hbc801eef26076b0bE', symObjAddr: 0x237E0, symBinAddr: 0x100500718, symSize: 0x38 }
  - { offset: 0x3F9D9, size: 0x8, addend: 0x0, symName: '__ZN42_$LT$$RF$T$u20$as$u20$core..fmt..Debug$GT$3fmt17hc3999c74853184ebE', symObjAddr: 0x23818, symBinAddr: 0x100500750, symSize: 0x74 }
  - { offset: 0x3FA19, size: 0x8, addend: 0x0, symName: '__ZN42_$LT$$RF$T$u20$as$u20$core..fmt..Debug$GT$3fmt17hc9a6c7a3db2ef6baE', symObjAddr: 0x2388C, symBinAddr: 0x1005007C4, symSize: 0x9C }
  - { offset: 0x3FAAC, size: 0x8, addend: 0x0, symName: '__ZN42_$LT$$RF$T$u20$as$u20$core..fmt..Debug$GT$3fmt17hcb54d9788fe3af15E', symObjAddr: 0x23928, symBinAddr: 0x100500860, symSize: 0x74 }
  - { offset: 0x3FBCE, size: 0x8, addend: 0x0, symName: '__ZN42_$LT$$RF$T$u20$as$u20$core..fmt..Debug$GT$3fmt17hcfe5ebb9d8cf4006E', symObjAddr: 0x2399C, symBinAddr: 0x1005008D4, symSize: 0x14 }
  - { offset: 0x3FC0E, size: 0x8, addend: 0x0, symName: '__ZN42_$LT$$RF$T$u20$as$u20$core..fmt..Debug$GT$3fmt17hd04aed4159b48f62E', symObjAddr: 0x239B0, symBinAddr: 0x1005008E8, symSize: 0x74 }
  - { offset: 0x3FCA7, size: 0x8, addend: 0x0, symName: '__ZN42_$LT$$RF$T$u20$as$u20$core..fmt..Debug$GT$3fmt17hda77cbdd8f2f6222E', symObjAddr: 0x23A24, symBinAddr: 0x10050095C, symSize: 0x64 }
  - { offset: 0x3FCD9, size: 0x8, addend: 0x0, symName: '__ZN42_$LT$$RF$T$u20$as$u20$core..fmt..Debug$GT$3fmt17he6f66fed7c4b1704E', symObjAddr: 0x23A88, symBinAddr: 0x1005009C0, symSize: 0x64 }
  - { offset: 0x3FD26, size: 0x8, addend: 0x0, symName: '__ZN41_$LT$bool$u20$as$u20$core..fmt..Debug$GT$3fmt17ha886c6b6a7e97df4E', symObjAddr: 0x22F70, symBinAddr: 0x1004FFEA8, symSize: 0x4 }
  - { offset: 0x3FD8C, size: 0x8, addend: 0x0, symName: '__ZN4core3fmt3num49_$LT$impl$u20$core..fmt..Debug$u20$for$u20$u8$GT$3fmt17h9694a00f1a59b5dfE', symObjAddr: 0x23E74, symBinAddr: 0x100500DAC, symSize: 0x18 }
  - { offset: 0x3FDA4, size: 0x8, addend: 0x0, symName: '__ZN4core3fmt3num49_$LT$impl$u20$core..fmt..Debug$u20$for$u20$u8$GT$3fmt17h9694a00f1a59b5dfE', symObjAddr: 0x23E74, symBinAddr: 0x100500DAC, symSize: 0x18 }
  - { offset: 0x3FDCA, size: 0x8, addend: 0x0, symName: '__ZN4core3fmt3num50_$LT$impl$u20$core..fmt..Debug$u20$for$u20$i32$GT$3fmt17h66e08d8385e6ba8dE', symObjAddr: 0x23E8C, symBinAddr: 0x100500DC4, symSize: 0x18 }
  - { offset: 0x3FDE2, size: 0x8, addend: 0x0, symName: '__ZN4core3fmt3num50_$LT$impl$u20$core..fmt..Debug$u20$for$u20$i32$GT$3fmt17h66e08d8385e6ba8dE', symObjAddr: 0x23E8C, symBinAddr: 0x100500DC4, symSize: 0x18 }
  - { offset: 0x3FE08, size: 0x8, addend: 0x0, symName: '__ZN4core3fmt3num50_$LT$impl$u20$core..fmt..Debug$u20$for$u20$u32$GT$3fmt17h63d27749e7694155E', symObjAddr: 0x23EBC, symBinAddr: 0x100500DF4, symSize: 0x18 }
  - { offset: 0x3FE20, size: 0x8, addend: 0x0, symName: '__ZN4core3fmt3num50_$LT$impl$u20$core..fmt..Debug$u20$for$u20$u32$GT$3fmt17h63d27749e7694155E', symObjAddr: 0x23EBC, symBinAddr: 0x100500DF4, symSize: 0x18 }
  - { offset: 0x3FE46, size: 0x8, addend: 0x0, symName: '__ZN4core3fmt3num50_$LT$impl$u20$core..fmt..Debug$u20$for$u20$u64$GT$3fmt17hb44309dd4024cc30E', symObjAddr: 0x23ED4, symBinAddr: 0x100500E0C, symSize: 0x18 }
  - { offset: 0x3FE5E, size: 0x8, addend: 0x0, symName: '__ZN4core3fmt3num50_$LT$impl$u20$core..fmt..Debug$u20$for$u20$u64$GT$3fmt17hb44309dd4024cc30E', symObjAddr: 0x23ED4, symBinAddr: 0x100500E0C, symSize: 0x18 }
  - { offset: 0x3FE77, size: 0x8, addend: 0x0, symName: '__ZN4core3fmt3num50_$LT$impl$u20$core..fmt..Debug$u20$for$u20$i64$GT$3fmt17hac0564d3ba4da5d7E', symObjAddr: 0x23EA4, symBinAddr: 0x100500DDC, symSize: 0x18 }
  - { offset: 0x3FE95, size: 0x8, addend: 0x0, symName: '__ZN4core3fmt3num50_$LT$impl$u20$core..fmt..Debug$u20$for$u20$i64$GT$3fmt17hac0564d3ba4da5d7E', symObjAddr: 0x23EA4, symBinAddr: 0x100500DDC, symSize: 0x18 }
  - { offset: 0x3FEAE, size: 0x8, addend: 0x0, symName: '__ZN4core3fmt3num52_$LT$impl$u20$core..fmt..Debug$u20$for$u20$usize$GT$3fmt17h9ee511eeaaac07a5E', symObjAddr: 0x23EEC, symBinAddr: 0x100500E24, symSize: 0x18 }
  - { offset: 0x3FEC6, size: 0x8, addend: 0x0, symName: '__ZN4core3fmt3num52_$LT$impl$u20$core..fmt..Debug$u20$for$u20$usize$GT$3fmt17h9ee511eeaaac07a5E', symObjAddr: 0x23EEC, symBinAddr: 0x100500E24, symSize: 0x18 }
  - { offset: 0x3FEFB, size: 0x8, addend: 0x0, symName: '__ZN50_$LT$$LP$U$C$T$RP$$u20$as$u20$core..fmt..Debug$GT$3fmt17h8b655fd206419df9E', symObjAddr: 0x32204, symBinAddr: 0x10050C2BC, symSize: 0x74 }
  - { offset: 0x3FF16, size: 0x8, addend: 0x0, symName: '__ZN50_$LT$$LP$U$C$T$RP$$u20$as$u20$core..fmt..Debug$GT$3fmt17hd545320bcdcf59d0E', symObjAddr: 0x32278, symBinAddr: 0x10050C330, symSize: 0x74 }
  - { offset: 0x3FF46, size: 0x8, addend: 0x0, symName: '__ZN45_$LT$$LP$$RP$$u20$as$u20$core..fmt..Debug$GT$3fmt17h5c759e216e64d3d8E', symObjAddr: 0x23B80, symBinAddr: 0x100500AB8, symSize: 0x14 }
  - { offset: 0x3FF61, size: 0x8, addend: 0x0, symName: '__ZN44_$LT$$RF$T$u20$as$u20$core..fmt..Display$GT$3fmt17ha1513dd88fbee2dcE', symObjAddr: 0x23AEC, symBinAddr: 0x100500A24, symSize: 0x10 }
  - { offset: 0x3FF7C, size: 0x8, addend: 0x0, symName: '__ZN44_$LT$$RF$T$u20$as$u20$core..fmt..Display$GT$3fmt17hc69e33a6d0434465E', symObjAddr: 0x23AFC, symBinAddr: 0x100500A34, symSize: 0x10 }
  - { offset: 0x3FF97, size: 0x8, addend: 0x0, symName: '__ZN44_$LT$$RF$T$u20$as$u20$core..fmt..Display$GT$3fmt17he80677b94dd5cd84E', symObjAddr: 0x23B0C, symBinAddr: 0x100500A44, symSize: 0x74 }
  - { offset: 0x4004A, size: 0x8, addend: 0x0, symName: __ZN4core3fmt5Write10write_char17h30dfeae5dce2aca5E, symObjAddr: 0x23F04, symBinAddr: 0x100500E3C, symSize: 0x168 }
  - { offset: 0x401A6, size: 0x8, addend: 0x0, symName: __ZN4core3fmt5Write10write_char17h3e4cfa4e6ea076b6E, symObjAddr: 0x2406C, symBinAddr: 0x100500FA4, symSize: 0x110 }
  - { offset: 0x4036A, size: 0x8, addend: 0x0, symName: __ZN4core3fmt5Write10write_char17h58e3cd8430ff3274E, symObjAddr: 0x2417C, symBinAddr: 0x1005010B4, symSize: 0x168 }
  - { offset: 0x404C6, size: 0x8, addend: 0x0, symName: __ZN4core3fmt5Write10write_char17h5a1f13262a7f5dc1E, symObjAddr: 0x242E4, symBinAddr: 0x10050121C, symSize: 0x138 }
  - { offset: 0x40647, size: 0x8, addend: 0x0, symName: __ZN4core3fmt5Write10write_char17h7e174ab02c325fa5E, symObjAddr: 0x2441C, symBinAddr: 0x100501354, symSize: 0x128 }
  - { offset: 0x406C6, size: 0x8, addend: 0x0, symName: __ZN4core3fmt5Write10write_char17hb96f8ea2d599c059E, symObjAddr: 0x24544, symBinAddr: 0x10050147C, symSize: 0x128 }
  - { offset: 0x407AE, size: 0x8, addend: 0x0, symName: __ZN4core3fmt5Write9write_fmt17h4c7a7fecdc075205E, symObjAddr: 0x2466C, symBinAddr: 0x1005015A4, symSize: 0x10 }
  - { offset: 0x407DE, size: 0x8, addend: 0x0, symName: __ZN4core3fmt5Write9write_fmt17h766f2611bea374ddE, symObjAddr: 0x2467C, symBinAddr: 0x1005015B4, symSize: 0x10 }
  - { offset: 0x4080E, size: 0x8, addend: 0x0, symName: __ZN4core3fmt5Write9write_fmt17habfefd88b3f43ea8E, symObjAddr: 0x2468C, symBinAddr: 0x1005015C4, symSize: 0x10 }
  - { offset: 0x4083E, size: 0x8, addend: 0x0, symName: __ZN4core3fmt5Write9write_fmt17hdc3a20f02be083feE, symObjAddr: 0x2469C, symBinAddr: 0x1005015D4, symSize: 0x10 }
  - { offset: 0x4086E, size: 0x8, addend: 0x0, symName: __ZN4core3fmt5Write9write_fmt17hded842b254e050efE, symObjAddr: 0x246AC, symBinAddr: 0x1005015E4, symSize: 0x10 }
  - { offset: 0x4089E, size: 0x8, addend: 0x0, symName: __ZN4core3fmt5Write9write_fmt17hea786f9a8f52e858E, symObjAddr: 0x246BC, symBinAddr: 0x1005015F4, symSize: 0x10 }
  - { offset: 0x408CE, size: 0x8, addend: 0x0, symName: __ZN4core3fmt5Write9write_fmt17heef4d1bf23461c65E, symObjAddr: 0x246CC, symBinAddr: 0x100501604, symSize: 0x10 }
  - { offset: 0x4092F, size: 0x8, addend: 0x0, symName: '__ZN50_$LT$$BP$mut$u20$T$u20$as$u20$core..fmt..Debug$GT$3fmt17h77eab716ec6f8523E', symObjAddr: 0x321FC, symBinAddr: 0x10050C2B4, symSize: 0x8 }
  - { offset: 0x4094E, size: 0x8, addend: 0x0, symName: '__ZN50_$LT$$BP$mut$u20$T$u20$as$u20$core..fmt..Debug$GT$3fmt17h77eab716ec6f8523E', symObjAddr: 0x321FC, symBinAddr: 0x10050C2B4, symSize: 0x8 }
  - { offset: 0x4097F, size: 0x8, addend: 0x0, symName: '__ZN52_$LT$$RF$mut$u20$T$u20$as$u20$core..fmt..Display$GT$3fmt17he0ef91e1b1e85f4fE', symObjAddr: 0x32824, symBinAddr: 0x10050C8DC, symSize: 0x10 }
  - { offset: 0x43960, size: 0x8, addend: 0x0, symName: '__ZN4core3ptr107drop_in_place$LT$core..pin..Pin$LT$alloc..boxed..Box$LT$std..sys..pal..unix..sync..mutex..Mutex$GT$$GT$$GT$17hb95559412fbb8a0aE', symObjAddr: 0x24CA4, symBinAddr: 0x100501BDC, symSize: 0x2C }
  - { offset: 0x439FD, size: 0x8, addend: 0x0, symName: '__ZN4core3ptr109drop_in_place$LT$alloc..sync..Arc$LT$std..sync..poison..mutex..Mutex$LT$alloc..vec..Vec$LT$u8$GT$$GT$$GT$$GT$17h9714785627237e3aE', symObjAddr: 0x24CD0, symBinAddr: 0x100501C08, symSize: 0x20 }
  - { offset: 0x43A15, size: 0x8, addend: 0x0, symName: '__ZN4core3ptr109drop_in_place$LT$alloc..sync..Arc$LT$std..sync..poison..mutex..Mutex$LT$alloc..vec..Vec$LT$u8$GT$$GT$$GT$$GT$17h9714785627237e3aE', symObjAddr: 0x24CD0, symBinAddr: 0x100501C08, symSize: 0x20 }
  - { offset: 0x43A2B, size: 0x8, addend: 0x0, symName: '__ZN4core3ptr109drop_in_place$LT$alloc..sync..Arc$LT$std..sync..poison..mutex..Mutex$LT$alloc..vec..Vec$LT$u8$GT$$GT$$GT$$GT$17h9714785627237e3aE', symObjAddr: 0x24CD0, symBinAddr: 0x100501C08, symSize: 0x20 }
  - { offset: 0x43A41, size: 0x8, addend: 0x0, symName: '__ZN4core3ptr109drop_in_place$LT$alloc..sync..Arc$LT$std..sync..poison..mutex..Mutex$LT$alloc..vec..Vec$LT$u8$GT$$GT$$GT$$GT$17h9714785627237e3aE', symObjAddr: 0x24CD0, symBinAddr: 0x100501C08, symSize: 0x20 }
  - { offset: 0x43A98, size: 0x8, addend: 0x0, symName: '__ZN4core3ptr112drop_in_place$LT$$LP$std..ffi..os_str..OsString$C$core..option..Option$LT$std..ffi..os_str..OsString$GT$$RP$$GT$17h8ba883327530065fE', symObjAddr: 0x24CF0, symBinAddr: 0x100501C28, symSize: 0x50 }
  - { offset: 0x43C19, size: 0x8, addend: 0x0, symName: '__ZN4core3ptr118drop_in_place$LT$$LT$std..backtrace..Backtrace$u20$as$u20$core..fmt..Display$GT$..fmt..$u7b$$u7b$closure$u7d$$u7d$$GT$17hf3675cfa787535fdE', symObjAddr: 0x24D40, symBinAddr: 0x100501C78, symSize: 0x2C }
  - { offset: 0x43C31, size: 0x8, addend: 0x0, symName: '__ZN4core3ptr118drop_in_place$LT$$LT$std..backtrace..Backtrace$u20$as$u20$core..fmt..Display$GT$..fmt..$u7b$$u7b$closure$u7d$$u7d$$GT$17hf3675cfa787535fdE', symObjAddr: 0x24D40, symBinAddr: 0x100501C78, symSize: 0x2C }
  - { offset: 0x43CFC, size: 0x8, addend: 0x0, symName: '__ZN4core3ptr119drop_in_place$LT$std..io..default_write_fmt..Adapter$LT$std..io..cursor..Cursor$LT$$RF$mut$u20$$u5b$u8$u5d$$GT$$GT$$GT$17h550255798e69e158E', symObjAddr: 0x24D6C, symBinAddr: 0x100501CA4, symSize: 0x10 }
  - { offset: 0x43D14, size: 0x8, addend: 0x0, symName: '__ZN4core3ptr119drop_in_place$LT$std..io..default_write_fmt..Adapter$LT$std..io..cursor..Cursor$LT$$RF$mut$u20$$u5b$u8$u5d$$GT$$GT$$GT$17h550255798e69e158E', symObjAddr: 0x24D6C, symBinAddr: 0x100501CA4, symSize: 0x10 }
  - { offset: 0x43D27, size: 0x8, addend: 0x0, symName: '__ZN4core3ptr123drop_in_place$LT$addr2line..Context$LT$gimli..read..endian_slice..EndianSlice$LT$gimli..endianity..LittleEndian$GT$$GT$$GT$17hee4e42920bcb49e7E', symObjAddr: 0x24D7C, symBinAddr: 0x100501CB4, symSize: 0x70 }
  - { offset: 0x43DD9, size: 0x8, addend: 0x0, symName: '__ZN4core3ptr124drop_in_place$LT$alloc..collections..btree..map..IntoIter$LT$std..ffi..os_str..OsString$C$std..ffi..os_str..OsString$GT$$GT$17hadbbc4b997ea18b5E', symObjAddr: 0x24DEC, symBinAddr: 0x100501D24, symSize: 0x90 }
  - { offset: 0x43FC6, size: 0x8, addend: 0x0, symName: '__ZN4core3ptr128drop_in_place$LT$core..result..Result$LT$$RF$std..thread..Thread$C$$LP$$RF$std..thread..Thread$C$std..thread..Thread$RP$$GT$$GT$17h98ea8dc12788b488E', symObjAddr: 0x24E7C, symBinAddr: 0x100501DB4, symSize: 0x28 }
  - { offset: 0x44126, size: 0x8, addend: 0x0, symName: '__ZN4core3ptr129drop_in_place$LT$addr2line..unit..ResUnit$LT$gimli..read..endian_slice..EndianSlice$LT$gimli..endianity..LittleEndian$GT$$GT$$GT$17h5aa466108befd2c1E', symObjAddr: 0x24EA4, symBinAddr: 0x100501DDC, symSize: 0xE4 }
  - { offset: 0x44355, size: 0x8, addend: 0x0, symName: '__ZN4core3ptr129drop_in_place$LT$addr2line..unit..SupUnit$LT$gimli..read..endian_slice..EndianSlice$LT$gimli..endianity..LittleEndian$GT$$GT$$GT$17h55ae3d54d037dc81E', symObjAddr: 0x24F88, symBinAddr: 0x100501EC0, symSize: 0x54 }
  - { offset: 0x4441A, size: 0x8, addend: 0x0, symName: '__ZN4core3ptr130drop_in_place$LT$addr2line..unit..ResUnits$LT$gimli..read..endian_slice..EndianSlice$LT$gimli..endianity..LittleEndian$GT$$GT$$GT$17h55f8f9ba44d8c38bE', symObjAddr: 0x24FDC, symBinAddr: 0x100501F14, symSize: 0xD0 }
  - { offset: 0x445D1, size: 0x8, addend: 0x0, symName: '__ZN4core3ptr130drop_in_place$LT$addr2line..unit..SupUnits$LT$gimli..read..endian_slice..EndianSlice$LT$gimli..endianity..LittleEndian$GT$$GT$$GT$17h973235ee333ef742E', symObjAddr: 0x250AC, symBinAddr: 0x100501FE4, symSize: 0xE4 }
  - { offset: 0x44790, size: 0x8, addend: 0x0, symName: '__ZN4core3ptr130drop_in_place$LT$gimli..read..dwarf..Dwarf$LT$gimli..read..endian_slice..EndianSlice$LT$gimli..endianity..LittleEndian$GT$$GT$$GT$17h0342299b7049cad9E', symObjAddr: 0x25190, symBinAddr: 0x1005020C8, symSize: 0x58 }
  - { offset: 0x4482C, size: 0x8, addend: 0x0, symName: '__ZN4core3ptr131drop_in_place$LT$$u5b$core..option..Option$LT$core..option..Option$LT$std..backtrace_rs..symbolize..gimli..Mapping$GT$$GT$$u5d$$GT$17hf7aa60c51aa1ea2fE', symObjAddr: 0x251E8, symBinAddr: 0x100502120, symSize: 0xCC }
  - { offset: 0x448DB, size: 0x8, addend: 0x0, symName: '__ZN4core3ptr131drop_in_place$LT$alloc..boxed..Box$LT$dyn$u20$core..ops..function..FnOnce$LT$$LP$$RP$$GT$$u2b$Output$u20$$u3d$$u20$$LP$$RP$$GT$$GT$17h1a73098a4296dc4dE', symObjAddr: 0x252B4, symBinAddr: 0x1005021EC, symSize: 0x78 }
  - { offset: 0x449D0, size: 0x8, addend: 0x0, symName: '__ZN4core3ptr137drop_in_place$LT$gimli..read..dwarf..Unit$LT$gimli..read..endian_slice..EndianSlice$LT$gimli..endianity..LittleEndian$GT$$C$usize$GT$$GT$17hc244f633d43e2121E', symObjAddr: 0x2532C, symBinAddr: 0x100502264, symSize: 0x54 }
  - { offset: 0x44AD2, size: 0x8, addend: 0x0, symName: '__ZN4core3ptr138drop_in_place$LT$addr2line..function..LazyFunction$LT$gimli..read..endian_slice..EndianSlice$LT$gimli..endianity..LittleEndian$GT$$GT$$GT$17h061de9632ae5e5a2E', symObjAddr: 0x25380, symBinAddr: 0x1005022B8, symSize: 0x64 }
  - { offset: 0x44AEA, size: 0x8, addend: 0x0, symName: '__ZN4core3ptr138drop_in_place$LT$addr2line..function..LazyFunction$LT$gimli..read..endian_slice..EndianSlice$LT$gimli..endianity..LittleEndian$GT$$GT$$GT$17h061de9632ae5e5a2E', symObjAddr: 0x25380, symBinAddr: 0x1005022B8, symSize: 0x64 }
  - { offset: 0x44B00, size: 0x8, addend: 0x0, symName: '__ZN4core3ptr138drop_in_place$LT$addr2line..function..LazyFunction$LT$gimli..read..endian_slice..EndianSlice$LT$gimli..endianity..LittleEndian$GT$$GT$$GT$17h061de9632ae5e5a2E', symObjAddr: 0x25380, symBinAddr: 0x1005022B8, symSize: 0x64 }
  - { offset: 0x44B16, size: 0x8, addend: 0x0, symName: '__ZN4core3ptr138drop_in_place$LT$addr2line..function..LazyFunction$LT$gimli..read..endian_slice..EndianSlice$LT$gimli..endianity..LittleEndian$GT$$GT$$GT$17h061de9632ae5e5a2E', symObjAddr: 0x25380, symBinAddr: 0x1005022B8, symSize: 0x64 }
  - { offset: 0x44C56, size: 0x8, addend: 0x0, symName: '__ZN4core3ptr144drop_in_place$LT$alloc..vec..Vec$LT$core..option..Option$LT$core..option..Option$LT$std..backtrace_rs..symbolize..gimli..Mapping$GT$$GT$$GT$$GT$17h1681c67e5f1d50e7E', symObjAddr: 0x253E4, symBinAddr: 0x10050231C, symSize: 0x78 }
  - { offset: 0x44DCD, size: 0x8, addend: 0x0, symName: '__ZN4core3ptr152drop_in_place$LT$alloc..collections..btree..map..BTreeMap$LT$std..ffi..os_str..OsString$C$core..option..Option$LT$std..ffi..os_str..OsString$GT$$GT$$GT$17h094ab854958c3a3cE', symObjAddr: 0x2545C, symBinAddr: 0x100502394, symSize: 0xBC }
  - { offset: 0x4502F, size: 0x8, addend: 0x0, symName: '__ZN4core3ptr152drop_in_place$LT$alloc..vec..Vec$LT$addr2line..unit..ResUnit$LT$gimli..read..endian_slice..EndianSlice$LT$gimli..endianity..LittleEndian$GT$$GT$$GT$$GT$17h3ab0d200c84df90aE', symObjAddr: 0x25518, symBinAddr: 0x100502450, symSize: 0xC4 }
  - { offset: 0x451AC, size: 0x8, addend: 0x0, symName: '__ZN4core3ptr152drop_in_place$LT$alloc..vec..Vec$LT$addr2line..unit..SupUnit$LT$gimli..read..endian_slice..EndianSlice$LT$gimli..endianity..LittleEndian$GT$$GT$$GT$$GT$17h734aadf28bfe7a31E', symObjAddr: 0x255DC, symBinAddr: 0x100502514, symSize: 0xF4 }
  - { offset: 0x453D7, size: 0x8, addend: 0x0, symName: '__ZN4core3ptr156drop_in_place$LT$alloc..boxed..Box$LT$$u5b$core..option..Option$LT$core..option..Option$LT$std..backtrace_rs..symbolize..gimli..Mapping$GT$$GT$$u5d$$GT$$GT$17h52982cf77b817154E', symObjAddr: 0x256D0, symBinAddr: 0x100502608, symSize: 0xF8 }
  - { offset: 0x454FE, size: 0x8, addend: 0x0, symName: '__ZN4core3ptr156drop_in_place$LT$std..sys..platform_version..darwin..Deferred$LT$std..sys..platform_version..darwin..string_version_key..$u7b$$u7b$closure$u7d$$u7d$$GT$$GT$17h25254ba02bff724bE', symObjAddr: 0x257C8, symBinAddr: 0x100502700, symSize: 0x90 }
  - { offset: 0x455EE, size: 0x8, addend: 0x0, symName: '__ZN4core3ptr159drop_in_place$LT$alloc..sync..ArcInner$LT$gimli..read..dwarf..Dwarf$LT$gimli..read..endian_slice..EndianSlice$LT$gimli..endianity..LittleEndian$GT$$GT$$GT$$GT$17h34081d17afc8e0afE', symObjAddr: 0x25858, symBinAddr: 0x100502790, symSize: 0x5C }
  - { offset: 0x456B7, size: 0x8, addend: 0x0, symName: '__ZN4core3ptr161drop_in_place$LT$alloc..vec..Vec$LT$addr2line..function..LazyFunction$LT$gimli..read..endian_slice..EndianSlice$LT$gimli..endianity..LittleEndian$GT$$GT$$GT$$GT$17h98e9d3d39c1de69eE', symObjAddr: 0x258B4, symBinAddr: 0x1005027EC, symSize: 0xAC }
  - { offset: 0x45909, size: 0x8, addend: 0x0, symName: '__ZN4core3ptr164drop_in_place$LT$$u5b$alloc..boxed..Box$LT$dyn$u20$core..ops..function..FnOnce$LT$$LP$$RP$$GT$$u2b$Output$u20$$u3d$$u20$$LP$$RP$$u2b$core..marker..Send$GT$$u5d$$GT$17h6d2a45c000e52f5fE', symObjAddr: 0x25960, symBinAddr: 0x100502898, symSize: 0xAC }
  - { offset: 0x45A21, size: 0x8, addend: 0x0, symName: '__ZN4core3ptr172drop_in_place$LT$core..result..Result$LT$addr2line..Context$LT$gimli..read..endian_slice..EndianSlice$LT$gimli..endianity..LittleEndian$GT$$GT$$C$gimli..read..Error$GT$$GT$17h4122687858a82bf8E', symObjAddr: 0x25A0C, symBinAddr: 0x100502944, symSize: 0x80 }
  - { offset: 0x45ABB, size: 0x8, addend: 0x0, symName: '__ZN4core3ptr173drop_in_place$LT$alloc..boxed..Box$LT$$u5b$addr2line..function..LazyFunction$LT$gimli..read..endian_slice..EndianSlice$LT$gimli..endianity..LittleEndian$GT$$GT$$u5d$$GT$$GT$17h8c3e75fb2101b7efE', symObjAddr: 0x25A8C, symBinAddr: 0x1005029C4, symSize: 0x9C }
  - { offset: 0x45AD3, size: 0x8, addend: 0x0, symName: '__ZN4core3ptr173drop_in_place$LT$alloc..boxed..Box$LT$$u5b$addr2line..function..LazyFunction$LT$gimli..read..endian_slice..EndianSlice$LT$gimli..endianity..LittleEndian$GT$$GT$$u5d$$GT$$GT$17h8c3e75fb2101b7efE', symObjAddr: 0x25A8C, symBinAddr: 0x1005029C4, symSize: 0x9C }
  - { offset: 0x45CB9, size: 0x8, addend: 0x0, symName: '__ZN4core3ptr177drop_in_place$LT$alloc..vec..Vec$LT$alloc..boxed..Box$LT$dyn$u20$core..ops..function..FnOnce$LT$$LP$$RP$$GT$$u2b$Output$u20$$u3d$$u20$$LP$$RP$$u2b$core..marker..Send$GT$$GT$$GT$17h3b607045da0f8a8dE', symObjAddr: 0x25B28, symBinAddr: 0x100502A60, symSize: 0x70 }
  - { offset: 0x45E29, size: 0x8, addend: 0x0, symName: '__ZN4core3ptr181drop_in_place$LT$core..option..Option$LT$gimli..read..line..IncompleteLineProgram$LT$gimli..read..endian_slice..EndianSlice$LT$gimli..endianity..LittleEndian$GT$$C$usize$GT$$GT$$GT$17h0d53cb7f62aa367fE', symObjAddr: 0x25B98, symBinAddr: 0x100502AD0, symSize: 0x98 }
  - { offset: 0x46090, size: 0x8, addend: 0x0, symName: '__ZN4core3ptr181drop_in_place$LT$core..result..Result$LT$addr2line..frame..FrameIter$LT$gimli..read..endian_slice..EndianSlice$LT$gimli..endianity..LittleEndian$GT$$GT$$C$gimli..read..Error$GT$$GT$17h5102dc1195e10bcfE', symObjAddr: 0x25C30, symBinAddr: 0x100502B68, symSize: 0x34 }
  - { offset: 0x461D3, size: 0x8, addend: 0x0, symName: '__ZN4core3ptr184drop_in_place$LT$core..result..Result$LT$addr2line..function..Functions$LT$gimli..read..endian_slice..EndianSlice$LT$gimli..endianity..LittleEndian$GT$$GT$$C$gimli..read..Error$GT$$GT$17h653c09d7bc80a423E', symObjAddr: 0x25C64, symBinAddr: 0x100502B9C, symSize: 0xD8 }
  - { offset: 0x4647B, size: 0x8, addend: 0x0, symName: '__ZN4core3ptr193drop_in_place$LT$alloc..vec..into_iter..IntoIter$LT$alloc..boxed..Box$LT$dyn$u20$core..ops..function..FnOnce$LT$$LP$$RP$$GT$$u2b$Output$u20$$u3d$$u20$$LP$$RP$$u2b$core..marker..Send$GT$$GT$$GT$17h2082ac392d631e38E', symObjAddr: 0x25D3C, symBinAddr: 0x100502C74, symSize: 0x74 }
  - { offset: 0x4668C, size: 0x8, addend: 0x0, symName: '__ZN4core3ptr194drop_in_place$LT$core..result..Result$LT$std..sync..poison..mutex..MutexGuard$LT$$LP$$RP$$GT$$C$std..sync..poison..PoisonError$LT$std..sync..poison..mutex..MutexGuard$LT$$LP$$RP$$GT$$GT$$GT$$GT$17ha24203350456a98cE', symObjAddr: 0x25DB0, symBinAddr: 0x100502CE8, symSize: 0x4C }
  - { offset: 0x466CA, size: 0x8, addend: 0x0, symName: '__ZN4core3ptr231drop_in_place$LT$core..result..Result$LT$core..option..Option$LT$alloc..boxed..Box$LT$addr2line..unit..DwoUnit$LT$gimli..read..endian_slice..EndianSlice$LT$gimli..endianity..LittleEndian$GT$$GT$$GT$$GT$$C$gimli..read..Error$GT$$GT$17h20c7e405b2a60cd7E', symObjAddr: 0x25DFC, symBinAddr: 0x100502D34, symSize: 0xD4 }
  - { offset: 0x468B4, size: 0x8, addend: 0x0, symName: '__ZN4core3ptr238drop_in_place$LT$alloc..boxed..convert..$LT$impl$u20$core..convert..From$LT$alloc..string..String$GT$$u20$for$u20$alloc..boxed..Box$LT$dyn$u20$core..error..Error$u2b$core..marker..Sync$u2b$core..marker..Send$GT$$GT$..from..StringError$GT$17h23a737ad33f471c3E', symObjAddr: 0x25ED0, symBinAddr: 0x100502E08, symSize: 0x18 }
  - { offset: 0x468CC, size: 0x8, addend: 0x0, symName: '__ZN4core3ptr238drop_in_place$LT$alloc..boxed..convert..$LT$impl$u20$core..convert..From$LT$alloc..string..String$GT$$u20$for$u20$alloc..boxed..Box$LT$dyn$u20$core..error..Error$u2b$core..marker..Sync$u2b$core..marker..Send$GT$$GT$..from..StringError$GT$17h23a737ad33f471c3E', symObjAddr: 0x25ED0, symBinAddr: 0x100502E08, symSize: 0x18 }
  - { offset: 0x468E2, size: 0x8, addend: 0x0, symName: '__ZN4core3ptr238drop_in_place$LT$alloc..boxed..convert..$LT$impl$u20$core..convert..From$LT$alloc..string..String$GT$$u20$for$u20$alloc..boxed..Box$LT$dyn$u20$core..error..Error$u2b$core..marker..Sync$u2b$core..marker..Send$GT$$GT$..from..StringError$GT$17h23a737ad33f471c3E', symObjAddr: 0x25ED0, symBinAddr: 0x100502E08, symSize: 0x18 }
  - { offset: 0x46964, size: 0x8, addend: 0x0, symName: '__ZN4core3ptr275drop_in_place$LT$gimli..read..line..LineRows$LT$gimli..read..endian_slice..EndianSlice$LT$gimli..endianity..LittleEndian$GT$$C$gimli..read..line..IncompleteLineProgram$LT$gimli..read..endian_slice..EndianSlice$LT$gimli..endianity..LittleEndian$GT$$C$usize$GT$$C$usize$GT$$GT$17h25d8ff9865513472E', symObjAddr: 0x25EE8, symBinAddr: 0x100502E20, symSize: 0x8C }
  - { offset: 0x46BE7, size: 0x8, addend: 0x0, symName: '__ZN4core3ptr280drop_in_place$LT$$LT$alloc..collections..btree..map..IntoIter$LT$K$C$V$C$A$GT$$u20$as$u20$core..ops..drop..Drop$GT$..drop..DropGuard$LT$u64$C$core..result..Result$LT$alloc..sync..Arc$LT$gimli..read..abbrev..Abbreviations$GT$$C$gimli..read..Error$GT$$C$alloc..alloc..Global$GT$$GT$17h4e961e041cd02114E', symObjAddr: 0x25F74, symBinAddr: 0x100502EAC, symSize: 0x84 }
  - { offset: 0x46D66, size: 0x8, addend: 0x0, symName: '__ZN4core3ptr284drop_in_place$LT$core..result..Result$LT$$RF$core..result..Result$LT$addr2line..line..Lines$C$gimli..read..Error$GT$$C$$LP$$RF$core..result..Result$LT$addr2line..line..Lines$C$gimli..read..Error$GT$$C$core..result..Result$LT$addr2line..line..Lines$C$gimli..read..Error$GT$$RP$$GT$$GT$17h487927309c2ce3cdE', symObjAddr: 0x25FF8, symBinAddr: 0x100502F30, symSize: 0x10 }
  - { offset: 0x46D98, size: 0x8, addend: 0x0, symName: '__ZN4core3ptr37drop_in_place$LT$std..env..VarsOs$GT$17h60f128c2cdeb4a90E', symObjAddr: 0x26008, symBinAddr: 0x100502F40, symSize: 0xAC }
  - { offset: 0x47082, size: 0x8, addend: 0x0, symName: '__ZN4core3ptr39drop_in_place$LT$std..path..PathBuf$GT$17h9839570d6f8648f6E', symObjAddr: 0x260B4, symBinAddr: 0x100502FEC, symSize: 0x18 }
  - { offset: 0x4709A, size: 0x8, addend: 0x0, symName: '__ZN4core3ptr39drop_in_place$LT$std..path..PathBuf$GT$17h9839570d6f8648f6E', symObjAddr: 0x260B4, symBinAddr: 0x100502FEC, symSize: 0x18 }
  - { offset: 0x47137, size: 0x8, addend: 0x0, symName: '__ZN4core3ptr40drop_in_place$LT$std..process..Child$GT$17hc880f350974c2621E', symObjAddr: 0x260CC, symBinAddr: 0x100503004, symSize: 0x54 }
  - { offset: 0x472E7, size: 0x8, addend: 0x0, symName: '__ZN4core3ptr40drop_in_place$LT$std..thread..Thread$GT$17ha2047bc57b7ed8d8E', symObjAddr: 0x26120, symBinAddr: 0x100503058, symSize: 0x20 }
  - { offset: 0x472FF, size: 0x8, addend: 0x0, symName: '__ZN4core3ptr40drop_in_place$LT$std..thread..Thread$GT$17ha2047bc57b7ed8d8E', symObjAddr: 0x26120, symBinAddr: 0x100503058, symSize: 0x20 }
  - { offset: 0x47315, size: 0x8, addend: 0x0, symName: '__ZN4core3ptr40drop_in_place$LT$std..thread..Thread$GT$17ha2047bc57b7ed8d8E', symObjAddr: 0x26120, symBinAddr: 0x100503058, symSize: 0x20 }
  - { offset: 0x4732B, size: 0x8, addend: 0x0, symName: '__ZN4core3ptr40drop_in_place$LT$std..thread..Thread$GT$17ha2047bc57b7ed8d8E', symObjAddr: 0x26120, symBinAddr: 0x100503058, symSize: 0x20 }
  - { offset: 0x47341, size: 0x8, addend: 0x0, symName: '__ZN4core3ptr40drop_in_place$LT$std..thread..Thread$GT$17ha2047bc57b7ed8d8E', symObjAddr: 0x26120, symBinAddr: 0x100503058, symSize: 0x20 }
  - { offset: 0x47357, size: 0x8, addend: 0x0, symName: '__ZN4core3ptr40drop_in_place$LT$std..thread..Thread$GT$17ha2047bc57b7ed8d8E', symObjAddr: 0x26120, symBinAddr: 0x100503058, symSize: 0x20 }
  - { offset: 0x473B0, size: 0x8, addend: 0x0, symName: '__ZN4core3ptr41drop_in_place$LT$std..panicking..Hook$GT$17h2ea8a5a976756fa4E', symObjAddr: 0x26140, symBinAddr: 0x100503078, symSize: 0x7C }
  - { offset: 0x474B3, size: 0x8, addend: 0x0, symName: '__ZN4core3ptr42drop_in_place$LT$alloc..string..String$GT$17hb0496b0a5f09ffd9E', symObjAddr: 0x261BC, symBinAddr: 0x1005030F4, symSize: 0x18 }
  - { offset: 0x474CB, size: 0x8, addend: 0x0, symName: '__ZN4core3ptr42drop_in_place$LT$alloc..string..String$GT$17hb0496b0a5f09ffd9E', symObjAddr: 0x261BC, symBinAddr: 0x1005030F4, symSize: 0x18 }
  - { offset: 0x4754C, size: 0x8, addend: 0x0, symName: '__ZN4core3ptr42drop_in_place$LT$std..io..error..Error$GT$17h73479c60de8ed779E', symObjAddr: 0x261D4, symBinAddr: 0x10050310C, symSize: 0xAC }
  - { offset: 0x47743, size: 0x8, addend: 0x0, symName: '__ZN4core3ptr44drop_in_place$LT$object..read..ObjectMap$GT$17h6c9c34593e892c47E', symObjAddr: 0x26280, symBinAddr: 0x1005031B8, symSize: 0x58 }
  - { offset: 0x47886, size: 0x8, addend: 0x0, symName: '__ZN4core3ptr44drop_in_place$LT$std..backtrace..Capture$GT$17h1de9c8916a47658dE', symObjAddr: 0x262D8, symBinAddr: 0x100503210, symSize: 0x6C }
  - { offset: 0x47985, size: 0x8, addend: 0x0, symName: '__ZN4core3ptr45drop_in_place$LT$std..process..StdioPipes$GT$17h2c1b0bf5e989d6a9E', symObjAddr: 0x26344, symBinAddr: 0x10050327C, symSize: 0x54 }
  - { offset: 0x47AF0, size: 0x8, addend: 0x0, symName: '__ZN4core3ptr46drop_in_place$LT$alloc..vec..Vec$LT$u8$GT$$GT$17h77a3b8574fa51b48E', symObjAddr: 0x26398, symBinAddr: 0x1005032D0, symSize: 0x18 }
  - { offset: 0x47B72, size: 0x8, addend: 0x0, symName: '__ZN4core3ptr46drop_in_place$LT$std..io..stdio..StdinLock$GT$17h3c9a49e18d96b47cE', symObjAddr: 0x263B0, symBinAddr: 0x1005032E8, symSize: 0x54 }
  - { offset: 0x47B8A, size: 0x8, addend: 0x0, symName: '__ZN4core3ptr46drop_in_place$LT$std..io..stdio..StdinLock$GT$17h3c9a49e18d96b47cE', symObjAddr: 0x263B0, symBinAddr: 0x1005032E8, symSize: 0x54 }
  - { offset: 0x47BA0, size: 0x8, addend: 0x0, symName: '__ZN4core3ptr46drop_in_place$LT$std..io..stdio..StdinLock$GT$17h3c9a49e18d96b47cE', symObjAddr: 0x263B0, symBinAddr: 0x1005032E8, symSize: 0x54 }
  - { offset: 0x47C8B, size: 0x8, addend: 0x0, symName: '__ZN4core3ptr47drop_in_place$LT$alloc..ffi..c_str..CString$GT$17h7bb408dd3514f38eE', symObjAddr: 0x26404, symBinAddr: 0x10050333C, symSize: 0x20 }
  - { offset: 0x47D11, size: 0x8, addend: 0x0, symName: '__ZN4core3ptr47drop_in_place$LT$std..ffi..os_str..OsString$GT$17h66a5ddf2f479fe2cE', symObjAddr: 0x26424, symBinAddr: 0x10050335C, symSize: 0x18 }
  - { offset: 0x47DAF, size: 0x8, addend: 0x0, symName: '__ZN4core3ptr47drop_in_place$LT$std..sys..env..common..Env$GT$17h7395cb6c4db38cc0E', symObjAddr: 0x2643C, symBinAddr: 0x100503374, symSize: 0xAC }
  - { offset: 0x48082, size: 0x8, addend: 0x0, symName: '__ZN4core3ptr48drop_in_place$LT$alloc..ffi..c_str..NulError$GT$17h5abf6902f8171598E', symObjAddr: 0x264E8, symBinAddr: 0x100503420, symSize: 0x18 }
  - { offset: 0x4809A, size: 0x8, addend: 0x0, symName: '__ZN4core3ptr48drop_in_place$LT$alloc..ffi..c_str..NulError$GT$17h5abf6902f8171598E', symObjAddr: 0x264E8, symBinAddr: 0x100503420, symSize: 0x18 }
  - { offset: 0x48137, size: 0x8, addend: 0x0, symName: '__ZN4core3ptr49drop_in_place$LT$std..sys..args..common..Args$GT$17hd0fe28a79e97f040E', symObjAddr: 0x26500, symBinAddr: 0x100503438, symSize: 0x98 }
  - { offset: 0x48363, size: 0x8, addend: 0x0, symName: '__ZN4core3ptr49drop_in_place$LT$std..sys..fd..unix..FileDesc$GT$17h280ec50627e463e5E', symObjAddr: 0x26598, symBinAddr: 0x1005034D0, symSize: 0x8 }
  - { offset: 0x48415, size: 0x8, addend: 0x0, symName: '__ZN4core3ptr51drop_in_place$LT$std..backtrace..BacktraceFrame$GT$17h0238ea15c5e61916E', symObjAddr: 0x265A0, symBinAddr: 0x1005034D8, symSize: 0xD0 }
  - { offset: 0x486E3, size: 0x8, addend: 0x0, symName: '__ZN4core3ptr52drop_in_place$LT$std..backtrace..BacktraceSymbol$GT$17h06493917fb6c3046E', symObjAddr: 0x26670, symBinAddr: 0x1005035A8, symSize: 0x88 }
  - { offset: 0x488CF, size: 0x8, addend: 0x0, symName: '__ZN4core3ptr54drop_in_place$LT$std..thread..spawnhook..SpawnHook$GT$17h42d1cc557ca893daE', symObjAddr: 0x266F8, symBinAddr: 0x100503630, symSize: 0xC8 }
  - { offset: 0x48AF5, size: 0x8, addend: 0x0, symName: '__ZN4core3ptr557drop_in_place$LT$core..result..Result$LT$$RF$core..result..Result$LT$addr2line..function..Function$LT$gimli..read..endian_slice..EndianSlice$LT$gimli..endianity..LittleEndian$GT$$GT$$C$gimli..read..Error$GT$$C$$LP$$RF$core..result..Result$LT$addr2line..function..Function$LT$gimli..read..endian_slice..EndianSlice$LT$gimli..endianity..LittleEndian$GT$$GT$$C$gimli..read..Error$GT$$C$core..result..Result$LT$addr2line..function..Function$LT$gimli..read..endian_slice..EndianSlice$LT$gimli..endianity..LittleEndian$GT$$GT$$C$gimli..read..Error$GT$$RP$$GT$$GT$17hc2bbcc548ecc4ee1E', symObjAddr: 0x267C0, symBinAddr: 0x1005036F8, symSize: 0x64 }
  - { offset: 0x48CEC, size: 0x8, addend: 0x0, symName: '__ZN4core3ptr55drop_in_place$LT$gimli..read..abbrev..Abbreviations$GT$17h98ecda98f82a2a40E', symObjAddr: 0x26824, symBinAddr: 0x10050375C, symSize: 0x118 }
  - { offset: 0x4905E, size: 0x8, addend: 0x0, symName: '__ZN4core3ptr55drop_in_place$LT$std..sys..process..env..CommandEnv$GT$17h4bac3190768c305bE', symObjAddr: 0x2693C, symBinAddr: 0x100503874, symSize: 0x4 }
  - { offset: 0x49087, size: 0x8, addend: 0x0, symName: '__ZN4core3ptr55drop_in_place$LT$std..sys..thread..unix..ThreadData$GT$17hfdff0338e51a61f1E', symObjAddr: 0x26940, symBinAddr: 0x100503878, symSize: 0x8C }
  - { offset: 0x491FC, size: 0x8, addend: 0x0, symName: '__ZN4core3ptr55drop_in_place$LT$std..thread..spawnhook..SpawnHooks$GT$17h464fd74a345297faE', symObjAddr: 0x269CC, symBinAddr: 0x100503904, symSize: 0x80 }
  - { offset: 0x4932D, size: 0x8, addend: 0x0, symName: '__ZN4core3ptr560drop_in_place$LT$core..result..Result$LT$$RF$core..result..Result$LT$addr2line..function..Functions$LT$gimli..read..endian_slice..EndianSlice$LT$gimli..endianity..LittleEndian$GT$$GT$$C$gimli..read..Error$GT$$C$$LP$$RF$core..result..Result$LT$addr2line..function..Functions$LT$gimli..read..endian_slice..EndianSlice$LT$gimli..endianity..LittleEndian$GT$$GT$$C$gimli..read..Error$GT$$C$core..result..Result$LT$addr2line..function..Functions$LT$gimli..read..endian_slice..EndianSlice$LT$gimli..endianity..LittleEndian$GT$$GT$$C$gimli..read..Error$GT$$RP$$GT$$GT$17h7a418c956a7a17b1E', symObjAddr: 0x26A4C, symBinAddr: 0x100503984, symSize: 0x10 }
  - { offset: 0x49389, size: 0x8, addend: 0x0, symName: '__ZN4core3ptr60drop_in_place$LT$gimli..read..abbrev..AbbreviationsCache$GT$17hb32d602d4bc29378E', symObjAddr: 0x26A5C, symBinAddr: 0x100503994, symSize: 0xCC }
  - { offset: 0x49543, size: 0x8, addend: 0x0, symName: '__ZN4core3ptr61drop_in_place$LT$std..panicking..resume_unwind..RewrapBox$GT$17h70392a49dbb290a2E', symObjAddr: 0x26B28, symBinAddr: 0x100503A60, symSize: 0x6C }
  - { offset: 0x49646, size: 0x8, addend: 0x0, symName: '__ZN4core3ptr64drop_in_place$LT$std..sys..pal..unix..sync..mutex..AttrGuard$GT$17h1233100e2cc7bd3dE', symObjAddr: 0x26B94, symBinAddr: 0x100503ACC, symSize: 0x48 }
  - { offset: 0x49669, size: 0x8, addend: 0x0, symName: '__ZN4core3ptr64drop_in_place$LT$std..sys..process..unix..common..ChildPipes$GT$17hc1e6ae810380ac4dE', symObjAddr: 0x26BDC, symBinAddr: 0x100503B14, symSize: 0x78 }
  - { offset: 0x49790, size: 0x8, addend: 0x0, symName: '__ZN4core3ptr65drop_in_place$LT$alloc..vec..Vec$LT$alloc..string..String$GT$$GT$17hf0d47825966a54ecE', symObjAddr: 0x26C54, symBinAddr: 0x100503B8C, symSize: 0x80 }
  - { offset: 0x49901, size: 0x8, addend: 0x0, symName: '__ZN4core3ptr65drop_in_place$LT$std..backtrace_rs..symbolize..gimli..Context$GT$17h791a131a78d8e72cE', symObjAddr: 0x26CD4, symBinAddr: 0x100503C0C, symSize: 0xE8 }
  - { offset: 0x49BA4, size: 0x8, addend: 0x0, symName: '__ZN4core3ptr66drop_in_place$LT$std..backtrace_rs..backtrace..libunwind..Bomb$GT$17hd97e1cd1f11c7f39E', symObjAddr: 0x26DBC, symBinAddr: 0x100503CF4, symSize: 0x40 }
  - { offset: 0x49BF1, size: 0x8, addend: 0x0, symName: '__ZN4core3ptr701drop_in_place$LT$core..result..Result$LT$$RF$core..result..Result$LT$core..option..Option$LT$alloc..boxed..Box$LT$addr2line..unit..DwoUnit$LT$gimli..read..endian_slice..EndianSlice$LT$gimli..endianity..LittleEndian$GT$$GT$$GT$$GT$$C$gimli..read..Error$GT$$C$$LP$$RF$core..result..Result$LT$core..option..Option$LT$alloc..boxed..Box$LT$addr2line..unit..DwoUnit$LT$gimli..read..endian_slice..EndianSlice$LT$gimli..endianity..LittleEndian$GT$$GT$$GT$$GT$$C$gimli..read..Error$GT$$C$core..result..Result$LT$core..option..Option$LT$alloc..boxed..Box$LT$addr2line..unit..DwoUnit$LT$gimli..read..endian_slice..EndianSlice$LT$gimli..endianity..LittleEndian$GT$$GT$$GT$$GT$$C$gimli..read..Error$GT$$RP$$GT$$GT$17hfc417b00698bc1aaE', symObjAddr: 0x26DFC, symBinAddr: 0x100503D34, symSize: 0x14 }
  - { offset: 0x49C93, size: 0x8, addend: 0x0, symName: '__ZN4core3ptr70drop_in_place$LT$std..backtrace_rs..symbolize..gimli..stash..Stash$GT$17h44410ea3957dd95aE', symObjAddr: 0x26E10, symBinAddr: 0x100503D48, symSize: 0xB8 }
  - { offset: 0x49F53, size: 0x8, addend: 0x0, symName: '__ZN4core3ptr71drop_in_place$LT$std..backtrace_rs..symbolize..gimli..macho..Object$GT$17ha988ae186be52b4cE', symObjAddr: 0x26EC8, symBinAddr: 0x100503E00, symSize: 0xD8 }
  - { offset: 0x4A22D, size: 0x8, addend: 0x0, symName: '__ZN4core3ptr71drop_in_place$LT$std..panicking..panic_handler..FormatStringPayload$GT$17h90691e44625647c5E', symObjAddr: 0x26FA0, symBinAddr: 0x100503ED8, symSize: 0x1C }
  - { offset: 0x4A2F0, size: 0x8, addend: 0x0, symName: '__ZN4core3ptr72drop_in_place$LT$core..option..Option$LT$object..read..ObjectMap$GT$$GT$17he988e01f7abffa0cE', symObjAddr: 0x26FBC, symBinAddr: 0x100503EF4, symSize: 0x64 }
  - { offset: 0x4A474, size: 0x8, addend: 0x0, symName: '__ZN4core3ptr73drop_in_place$LT$alloc..vec..Vec$LT$addr2line..line..LineSequence$GT$$GT$17h407d113380f95831E', symObjAddr: 0x27020, symBinAddr: 0x100503F58, symSize: 0x84 }
  - { offset: 0x4A5D9, size: 0x8, addend: 0x0, symName: '__ZN4core3ptr73drop_in_place$LT$core..option..Option$LT$std..process..ChildStdin$GT$$GT$17h5166d8be93f081f4E', symObjAddr: 0x270A4, symBinAddr: 0x100503FDC, symSize: 0x14 }
  - { offset: 0x4A660, size: 0x8, addend: 0x0, symName: '__ZN4core3ptr75drop_in_place$LT$core..option..Option$LT$alloc..ffi..c_str..CString$GT$$GT$17h9574217a04685294E', symObjAddr: 0x270B8, symBinAddr: 0x100503FF0, symSize: 0x24 }
  - { offset: 0x4A6FD, size: 0x8, addend: 0x0, symName: '__ZN4core3ptr77drop_in_place$LT$alloc..boxed..Box$LT$$u5b$alloc..string..String$u5d$$GT$$GT$17h9b0aacd1ac7afd4dE', symObjAddr: 0x270DC, symBinAddr: 0x100504014, symSize: 0x70 }
  - { offset: 0x4A715, size: 0x8, addend: 0x0, symName: '__ZN4core3ptr77drop_in_place$LT$alloc..boxed..Box$LT$$u5b$alloc..string..String$u5d$$GT$$GT$17h9b0aacd1ac7afd4dE', symObjAddr: 0x270DC, symBinAddr: 0x100504014, symSize: 0x70 }
  - { offset: 0x4A81A, size: 0x8, addend: 0x0, symName: '__ZN4core3ptr78drop_in_place$LT$core..result..Result$LT$usize$C$std..io..error..Error$GT$$GT$17h2e214453a6a3f9aaE', symObjAddr: 0x2714C, symBinAddr: 0x100504084, symSize: 0x10 }
  - { offset: 0x4A82E, size: 0x8, addend: 0x0, symName: '__ZN4core3ptr79drop_in_place$LT$std..sync..poison..rwlock..RwLockReadGuard$LT$$LP$$RP$$GT$$GT$17h9214fdc28c6d849bE', symObjAddr: 0x2715C, symBinAddr: 0x100504094, symSize: 0x58 }
  - { offset: 0x4A8DB, size: 0x8, addend: 0x0, symName: '__ZN4core3ptr80drop_in_place$LT$alloc..boxed..Box$LT$std..sys..thread..unix..ThreadData$GT$$GT$17h1d6bb0358c88eeeeE', symObjAddr: 0x271B4, symBinAddr: 0x1005040EC, symSize: 0xA8 }
  - { offset: 0x4AAED, size: 0x8, addend: 0x0, symName: '__ZN4core3ptr81drop_in_place$LT$core..result..Result$LT$$LP$$RP$$C$std..io..error..Error$GT$$GT$17hf46311b34b731f52E', symObjAddr: 0x2725C, symBinAddr: 0x100504194, symSize: 0x10 }
  - { offset: 0x4AB1D, size: 0x8, addend: 0x0, symName: '__ZN4core3ptr81drop_in_place$LT$std..sys..process..unix..common..cstring_array..CStringArray$GT$17h6fdefea2f0091a38E', symObjAddr: 0x2726C, symBinAddr: 0x1005041A4, symSize: 0xD4 }
  - { offset: 0x4AE9A, size: 0x8, addend: 0x0, symName: '__ZN4core3ptr82drop_in_place$LT$alloc..sync..ArcInner$LT$std..sys..fs..unix..InnerReadDir$GT$$GT$17h1a853229a525c693E', symObjAddr: 0x27340, symBinAddr: 0x100504278, symSize: 0x60 }
  - { offset: 0x4B048, size: 0x8, addend: 0x0, symName: '__ZN4core3ptr84drop_in_place$LT$$LP$std..ffi..os_str..OsString$C$std..ffi..os_str..OsString$RP$$GT$17ha42a511e7fc7ccffE', symObjAddr: 0x273A0, symBinAddr: 0x1005042D8, symSize: 0x4C }
  - { offset: 0x4B1AB, size: 0x8, addend: 0x0, symName: '__ZN4core3ptr87drop_in_place$LT$core..option..Option$LT$alloc..boxed..Box$LT$$u5b$u32$u5d$$GT$$GT$$GT$17h62d2c982c298e920E', symObjAddr: 0x273EC, symBinAddr: 0x100504324, symSize: 0x24 }
  - { offset: 0x4B247, size: 0x8, addend: 0x0, symName: '__ZN4core3ptr87drop_in_place$LT$core..option..Option$LT$std..sys..process..unix..common..Stdio$GT$$GT$17hd6d9eb025207f738E', symObjAddr: 0x27410, symBinAddr: 0x100504348, symSize: 0x18 }
  - { offset: 0x4B2B7, size: 0x8, addend: 0x0, symName: '__ZN4core3ptr90drop_in_place$LT$std..io..buffered..bufwriter..BufWriter$LT$W$GT$..flush_buf..BufGuard$GT$17h5ce07a75fda7f1a8E', symObjAddr: 0x27428, symBinAddr: 0x100504360, symSize: 0x5C }
  - { offset: 0x4B422, size: 0x8, addend: 0x0, symName: '__ZN4core3ptr91drop_in_place$LT$core..result..Result$LT$alloc..string..String$C$std..env..VarError$GT$$GT$17ha48b2a0227bec73bE', symObjAddr: 0x27484, symBinAddr: 0x1005043BC, symSize: 0x24 }
  - { offset: 0x4B4D6, size: 0x8, addend: 0x0, symName: '__ZN4core3ptr91drop_in_place$LT$core..result..Result$LT$std..path..PathBuf$C$std..io..error..Error$GT$$GT$17h556442608f9d2931E', symObjAddr: 0x274A8, symBinAddr: 0x1005043E0, symSize: 0x2C }
  - { offset: 0x4B5CC, size: 0x8, addend: 0x0, symName: '__ZN4core3ptr92drop_in_place$LT$core..result..Result$LT$addr2line..line..Lines$C$gimli..read..Error$GT$$GT$17h1e7b92e08fc43379E', symObjAddr: 0x274D4, symBinAddr: 0x10050440C, symSize: 0xE4 }
  - { offset: 0x4B824, size: 0x8, addend: 0x0, symName: '__ZN4core3ptr93drop_in_place$LT$core..option..Option$LT$std..backtrace_rs..symbolize..gimli..Mapping$GT$$GT$17h2b86cadf09f4867eE', symObjAddr: 0x275B8, symBinAddr: 0x1005044F0, symSize: 0x6C }
  - { offset: 0x4B8B8, size: 0x8, addend: 0x0, symName: '__ZN4core3ptr95drop_in_place$LT$std..io..buffered..linewriter..LineWriter$LT$std..io..stdio..StdoutRaw$GT$$GT$17hefa04b8346c1bdcdE', symObjAddr: 0x27624, symBinAddr: 0x10050455C, symSize: 0xF8 }
  - { offset: 0x4E45C, size: 0x8, addend: 0x0, symName: __ZN4core5panic12PanicPayload6as_str17h2b3ad49dcb36b49dE, symObjAddr: 0x2A658, symBinAddr: 0x1005047B0, symSize: 0x8 }
  - { offset: 0x4F0EE, size: 0x8, addend: 0x0, symName: '__ZN73_$LT$core..num..nonzero..NonZero$LT$T$GT$$u20$as$u20$core..fmt..Debug$GT$3fmt17h1a9d209a2fe6dc49E', symObjAddr: 0x47B10, symBinAddr: 0x100521554, symSize: 0x48 }
  - { offset: 0x4F209, size: 0x8, addend: 0x0, symName: '__ZN70_$LT$core..num..error..TryFromIntError$u20$as$u20$core..fmt..Debug$GT$3fmt17h91a8e96ff913e674E', symObjAddr: 0x4757C, symBinAddr: 0x100520FC0, symSize: 0x40 }
  - { offset: 0x51B9C, size: 0x8, addend: 0x0, symName: __ZN4core5slice4sort8unstable7ipnsort17h838dd2a4decbb786E, symObjAddr: 0x312F8, symBinAddr: 0x10050B450, symSize: 0xEC }
  - { offset: 0x51CEB, size: 0x8, addend: 0x0, symName: __ZN4core5slice4sort8unstable7ipnsort17h9ca5524913a6ea90E, symObjAddr: 0x313E4, symBinAddr: 0x10050B53C, symSize: 0x1A8 }
  - { offset: 0x51FE4, size: 0x8, addend: 0x0, symName: __ZN4core5slice4sort8unstable8heapsort8heapsort17h719038df2fc58014E, symObjAddr: 0x3158C, symBinAddr: 0x10050B6E4, symSize: 0x160 }
  - { offset: 0x5230B, size: 0x8, addend: 0x0, symName: __ZN4core5slice4sort8unstable8heapsort8heapsort17hc2e3d90ec6ca46e7E, symObjAddr: 0x316EC, symBinAddr: 0x10050B844, symSize: 0x100 }
  - { offset: 0x525AC, size: 0x8, addend: 0x0, symName: __ZN4core5slice4sort8unstable9quicksort9quicksort17h012696ba880dc9c8E, symObjAddr: 0x317EC, symBinAddr: 0x10050B944, symSize: 0x3F8 }
  - { offset: 0x52E6B, size: 0x8, addend: 0x0, symName: __ZN4core5slice4sort8unstable9quicksort9quicksort17ha0a0ed5ca16025cbE, symObjAddr: 0x31BE4, symBinAddr: 0x10050BD3C, symSize: 0x578 }
  - { offset: 0x53A96, size: 0x8, addend: 0x0, symName: __ZN4core5slice4sort6stable14driftsort_main17h6bab938c22370232E, symObjAddr: 0x2BEE0, symBinAddr: 0x100506038, symSize: 0x138 }
  - { offset: 0x53CE4, size: 0x8, addend: 0x0, symName: __ZN4core5slice4sort6stable14driftsort_main17h6c001e8fa5803ae7E, symObjAddr: 0x2C018, symBinAddr: 0x100506170, symSize: 0x138 }
  - { offset: 0x53FBA, size: 0x8, addend: 0x0, symName: __ZN4core5slice4sort6stable14driftsort_main17h7bd29a9497ae7c2aE, symObjAddr: 0x2C150, symBinAddr: 0x1005062A8, symSize: 0x150 }
  - { offset: 0x5430C, size: 0x8, addend: 0x0, symName: __ZN4core5slice4sort6stable14driftsort_main17h8d5dc4543f39765cE, symObjAddr: 0x2C2A0, symBinAddr: 0x1005063F8, symSize: 0x138 }
  - { offset: 0x545E2, size: 0x8, addend: 0x0, symName: __ZN4core5slice4sort6stable14driftsort_main17h98f2f5060666f465E, symObjAddr: 0x2C3D8, symBinAddr: 0x100506530, symSize: 0x150 }
  - { offset: 0x54934, size: 0x8, addend: 0x0, symName: __ZN4core5slice4sort6stable14driftsort_main17hba9ab5a6d38f75adE, symObjAddr: 0x2C528, symBinAddr: 0x100506680, symSize: 0x138 }
  - { offset: 0x54E20, size: 0x8, addend: 0x0, symName: __ZN4core5slice4sort6stable5drift4sort17h0e93e2e8b1a76615E, symObjAddr: 0x2C660, symBinAddr: 0x1005067B8, symSize: 0x53C }
  - { offset: 0x554ED, size: 0x8, addend: 0x0, symName: __ZN4core5slice4sort6stable5drift4sort17h2ef1309fcb5281fcE, symObjAddr: 0x2CB9C, symBinAddr: 0x100506CF4, symSize: 0x538 }
  - { offset: 0x55B8E, size: 0x8, addend: 0x0, symName: __ZN4core5slice4sort6stable5drift4sort17h9cb3281d6a9d633eE, symObjAddr: 0x2D0D4, symBinAddr: 0x10050722C, symSize: 0x4D8 }
  - { offset: 0x561AD, size: 0x8, addend: 0x0, symName: __ZN4core5slice4sort6stable5drift4sort17hd03e797e9ec16b6bE, symObjAddr: 0x2D5AC, symBinAddr: 0x100507704, symSize: 0x5EC }
  - { offset: 0x568A3, size: 0x8, addend: 0x0, symName: __ZN4core5slice4sort6stable5drift4sort17he5394be4f484d870E, symObjAddr: 0x2DB98, symBinAddr: 0x100507CF0, symSize: 0x500 }
  - { offset: 0x56F5A, size: 0x8, addend: 0x0, symName: __ZN4core5slice4sort6stable5drift4sort17hf5ad59fef86e1542E, symObjAddr: 0x2E098, symBinAddr: 0x1005081F0, symSize: 0x500 }
  - { offset: 0x57840, size: 0x8, addend: 0x0, symName: __ZN4core5slice4sort6stable9quicksort9quicksort17h0b8166fec7e9d8a2E, symObjAddr: 0x2E598, symBinAddr: 0x1005086F0, symSize: 0x6D8 }
  - { offset: 0x5839F, size: 0x8, addend: 0x0, symName: __ZN4core5slice4sort6stable9quicksort9quicksort17h0f43bfa7ffb19a1eE, symObjAddr: 0x2EC70, symBinAddr: 0x100508DC8, symSize: 0x744 }
  - { offset: 0x58B54, size: 0x8, addend: 0x0, symName: __ZN4core5slice4sort6stable9quicksort9quicksort17h3c12ba55de8895bdE, symObjAddr: 0x2F3B4, symBinAddr: 0x10050950C, symSize: 0x6E0 }
  - { offset: 0x596B3, size: 0x8, addend: 0x0, symName: __ZN4core5slice4sort6stable9quicksort9quicksort17h44a7e2ae828a7572E, symObjAddr: 0x2FA94, symBinAddr: 0x100509BEC, symSize: 0x820 }
  - { offset: 0x5A70A, size: 0x8, addend: 0x0, symName: __ZN4core5slice4sort6stable9quicksort9quicksort17h7a3efe9886d7cd61E, symObjAddr: 0x302B4, symBinAddr: 0x10050A40C, symSize: 0x810 }
  - { offset: 0x5B372, size: 0x8, addend: 0x0, symName: __ZN4core5slice4sort6stable9quicksort9quicksort17h7daccb8d700a96efE, symObjAddr: 0x30AC4, symBinAddr: 0x10050AC1C, symSize: 0x834 }
  - { offset: 0x5C0B3, size: 0x8, addend: 0x0, symName: __ZN4core5slice4sort6shared9smallsort12sort4_stable17h08a617f57ccc0608E, symObjAddr: 0x2AD84, symBinAddr: 0x100504EDC, symSize: 0x180 }
  - { offset: 0x5C4CA, size: 0x8, addend: 0x0, symName: __ZN4core5slice4sort6shared9smallsort12sort4_stable17hce1fd6ae8c5d7075E, symObjAddr: 0x2AF04, symBinAddr: 0x10050505C, symSize: 0x194 }
  - { offset: 0x5C6B9, size: 0x8, addend: 0x0, symName: __ZN4core5slice4sort6shared9smallsort12sort8_stable17h930c56cb0c92cf5aE, symObjAddr: 0x2B098, symBinAddr: 0x1005051F0, symSize: 0x2B8 }
  - { offset: 0x5CBCE, size: 0x8, addend: 0x0, symName: __ZN4core5slice4sort6shared9smallsort18small_sort_general17h3217694ff68f0b35E, symObjAddr: 0x2B350, symBinAddr: 0x1005054A8, symSize: 0x408 }
  - { offset: 0x5D15C, size: 0x8, addend: 0x0, symName: __ZN4core5slice4sort6shared9smallsort18small_sort_general17h8d24adf729ceb9a7E, symObjAddr: 0x2B758, symBinAddr: 0x1005058B0, symSize: 0x4A0 }
  - { offset: 0x5D881, size: 0x8, addend: 0x0, symName: __ZN4core5slice4sort6shared9smallsort25insertion_sort_shift_left17h4a3a02c1b4123d96E, symObjAddr: 0x2BBF8, symBinAddr: 0x100505D50, symSize: 0xA8 }
  - { offset: 0x5D94F, size: 0x8, addend: 0x0, symName: __ZN4core5slice4sort6shared9smallsort25insertion_sort_shift_left17hb2454d6260f7b446E, symObjAddr: 0x2BCA0, symBinAddr: 0x100505DF8, symSize: 0xF4 }
  - { offset: 0x5DB25, size: 0x8, addend: 0x0, symName: __ZN4core5slice4sort6shared9smallsort25insertion_sort_shift_left17hebebc228eaf4fe0aE, symObjAddr: 0x2BD94, symBinAddr: 0x100505EEC, symSize: 0xB8 }
  - { offset: 0x5DC5C, size: 0x8, addend: 0x0, symName: __ZN4core5slice4sort6shared9smallsort25insertion_sort_shift_left17hf0a5cd08aa7de6b9E, symObjAddr: 0x2BE4C, symBinAddr: 0x100505FA4, symSize: 0x94 }
  - { offset: 0x5DF2E, size: 0x8, addend: 0x0, symName: __ZN4core5slice4sort6shared5pivot11median3_rec17h5167a9bddeee7a74E, symObjAddr: 0x2A660, symBinAddr: 0x1005047B8, symSize: 0x134 }
  - { offset: 0x5E178, size: 0x8, addend: 0x0, symName: __ZN4core5slice4sort6shared5pivot11median3_rec17h6123f0cee48431f8E, symObjAddr: 0x2A794, symBinAddr: 0x1005048EC, symSize: 0x11C }
  - { offset: 0x5E289, size: 0x8, addend: 0x0, symName: __ZN4core5slice4sort6shared5pivot11median3_rec17ha69b7aa4a103dd07E, symObjAddr: 0x2A8B0, symBinAddr: 0x100504A08, symSize: 0xD0 }
  - { offset: 0x5E398, size: 0x8, addend: 0x0, symName: __ZN4core5slice4sort6shared5pivot11median3_rec17hb1b4a3817967cb42E, symObjAddr: 0x2A980, symBinAddr: 0x100504AD8, symSize: 0xCC }
  - { offset: 0x5E4D3, size: 0x8, addend: 0x0, symName: __ZN4core5slice4sort6shared5pivot11median3_rec17hbab6fb4165f16a6bE, symObjAddr: 0x2AA4C, symBinAddr: 0x100504BA4, symSize: 0xCC }
  - { offset: 0x5E5E0, size: 0x8, addend: 0x0, symName: __ZN4core5slice4sort6shared5pivot11median3_rec17hbe20f6ebe0d83485E, symObjAddr: 0x2AB18, symBinAddr: 0x100504C70, symSize: 0xD0 }
  - { offset: 0x5E6ED, size: 0x8, addend: 0x0, symName: __ZN4core5slice4sort6shared5pivot11median3_rec17hcf0cea10de99b8c6E, symObjAddr: 0x2ABE8, symBinAddr: 0x100504D40, symSize: 0xD0 }
  - { offset: 0x5E7FA, size: 0x8, addend: 0x0, symName: __ZN4core5slice4sort6shared5pivot11median3_rec17hdbe0b4231031483eE, symObjAddr: 0x2ACB8, symBinAddr: 0x100504E10, symSize: 0xCC }
  - { offset: 0x5FE5D, size: 0x8, addend: 0x0, symName: '__ZN66_$LT$core..option..Option$LT$T$GT$$u20$as$u20$core..fmt..Debug$GT$3fmt17h021d6f00834646e8E', symObjAddr: 0x46168, symBinAddr: 0x10051FBAC, symSize: 0x5C }
  - { offset: 0x5FE78, size: 0x8, addend: 0x0, symName: '__ZN66_$LT$core..option..Option$LT$T$GT$$u20$as$u20$core..fmt..Debug$GT$3fmt17h2a115628ad46044cE', symObjAddr: 0x461C4, symBinAddr: 0x10051FC08, symSize: 0x60 }
  - { offset: 0x5FE93, size: 0x8, addend: 0x0, symName: '__ZN66_$LT$core..option..Option$LT$T$GT$$u20$as$u20$core..fmt..Debug$GT$3fmt17h55118344ce2c8294E', symObjAddr: 0x46224, symBinAddr: 0x10051FC68, symSize: 0x64 }
  - { offset: 0x5FEAE, size: 0x8, addend: 0x0, symName: '__ZN66_$LT$core..option..Option$LT$T$GT$$u20$as$u20$core..fmt..Debug$GT$3fmt17h5decdfddfe54b727E', symObjAddr: 0x46288, symBinAddr: 0x10051FCCC, symSize: 0x60 }
  - { offset: 0x5FEC9, size: 0x8, addend: 0x0, symName: '__ZN66_$LT$core..option..Option$LT$T$GT$$u20$as$u20$core..fmt..Debug$GT$3fmt17ha9eb314d1b36a5c9E', symObjAddr: 0x462E8, symBinAddr: 0x10051FD2C, symSize: 0x64 }
  - { offset: 0x5FEE4, size: 0x8, addend: 0x0, symName: '__ZN66_$LT$core..option..Option$LT$T$GT$$u20$as$u20$core..fmt..Debug$GT$3fmt17hbd343bfd609af089E', symObjAddr: 0x4634C, symBinAddr: 0x10051FD90, symSize: 0x60 }
  - { offset: 0x5FEFF, size: 0x8, addend: 0x0, symName: '__ZN66_$LT$core..option..Option$LT$T$GT$$u20$as$u20$core..fmt..Debug$GT$3fmt17hc0a940252133971fE', symObjAddr: 0x463AC, symBinAddr: 0x10051FDF0, symSize: 0x5C }
  - { offset: 0x5FF1A, size: 0x8, addend: 0x0, symName: '__ZN66_$LT$core..option..Option$LT$T$GT$$u20$as$u20$core..fmt..Debug$GT$3fmt17hdac8fccb5b3f03b9E', symObjAddr: 0x46408, symBinAddr: 0x10051FE4C, symSize: 0x60 }
  - { offset: 0x5FF35, size: 0x8, addend: 0x0, symName: '__ZN66_$LT$core..option..Option$LT$T$GT$$u20$as$u20$core..fmt..Debug$GT$3fmt17hf7e0895a60149b97E', symObjAddr: 0x46468, symBinAddr: 0x10051FEAC, symSize: 0x5C }
  - { offset: 0x60472, size: 0x8, addend: 0x0, symName: '__ZN77_$LT$core..ffi..c_str..FromBytesUntilNulError$u20$as$u20$core..fmt..Debug$GT$3fmt17h73964d2c5626be80E', symObjAddr: 0x48A84, symBinAddr: 0x1005224C8, symSize: 0x40 }
  - { offset: 0x61229, size: 0x8, addend: 0x0, symName: '__ZN4core3ops8function6FnOnce40call_once$u7b$$u7b$vtable.shim$u7d$$u7d$17h0852865c02677382E', symObjAddr: 0x24968, symBinAddr: 0x1005018A0, symSize: 0xB0 }
  - { offset: 0x61385, size: 0x8, addend: 0x0, symName: '__ZN4core3ops8function6FnOnce40call_once$u7b$$u7b$vtable.shim$u7d$$u7d$17h18edf6bc1d167b15E', symObjAddr: 0x24A18, symBinAddr: 0x100501950, symSize: 0x18 }
  - { offset: 0x613C2, size: 0x8, addend: 0x0, symName: '__ZN4core3ops8function6FnOnce40call_once$u7b$$u7b$vtable.shim$u7d$$u7d$17h1ea8e4debb534862E', symObjAddr: 0x24A30, symBinAddr: 0x100501968, symSize: 0x70 }
  - { offset: 0x6153A, size: 0x8, addend: 0x0, symName: '__ZN4core3ops8function6FnOnce40call_once$u7b$$u7b$vtable.shim$u7d$$u7d$17h3306873eb39a937dE', symObjAddr: 0x24AA0, symBinAddr: 0x1005019D8, symSize: 0x28 }
  - { offset: 0x61577, size: 0x8, addend: 0x0, symName: '__ZN4core3ops8function6FnOnce40call_once$u7b$$u7b$vtable.shim$u7d$$u7d$17h34f0f24905dc3bd4E', symObjAddr: 0x24AC8, symBinAddr: 0x100501A00, symSize: 0x8 }
  - { offset: 0x615B4, size: 0x8, addend: 0x0, symName: '__ZN4core3ops8function6FnOnce40call_once$u7b$$u7b$vtable.shim$u7d$$u7d$17h78d2f33513354a78E', symObjAddr: 0x24AD0, symBinAddr: 0x100501A08, symSize: 0x98 }
  - { offset: 0x61707, size: 0x8, addend: 0x0, symName: '__ZN4core3ops8function6FnOnce40call_once$u7b$$u7b$vtable.shim$u7d$$u7d$17h9751427764b9a248E', symObjAddr: 0x24B68, symBinAddr: 0x100501AA0, symSize: 0x28 }
  - { offset: 0x61744, size: 0x8, addend: 0x0, symName: '__ZN4core3ops8function6FnOnce40call_once$u7b$$u7b$vtable.shim$u7d$$u7d$17hb1fda356ca7513cfE', symObjAddr: 0x24B90, symBinAddr: 0x100501AC8, symSize: 0x28 }
  - { offset: 0x61781, size: 0x8, addend: 0x0, symName: '__ZN4core3ops8function6FnOnce40call_once$u7b$$u7b$vtable.shim$u7d$$u7d$17hc8d66c4f29bfa2ceE', symObjAddr: 0x24BB8, symBinAddr: 0x100501AF0, symSize: 0x6C }
  - { offset: 0x618DC, size: 0x8, addend: 0x0, symName: '__ZN4core3ops8function6FnOnce40call_once$u7b$$u7b$vtable.shim$u7d$$u7d$17hda3925ea8232711bE', symObjAddr: 0x24C24, symBinAddr: 0x100501B5C, symSize: 0xC }
  - { offset: 0x6192F, size: 0x8, addend: 0x0, symName: '__ZN4core3ops8function6FnOnce40call_once$u7b$$u7b$vtable.shim$u7d$$u7d$17hdd68daf0f98dd64eE', symObjAddr: 0x24C30, symBinAddr: 0x100501B68, symSize: 0x4 }
  - { offset: 0x6194D, size: 0x8, addend: 0x0, symName: '__ZN4core3ops8function6FnOnce40call_once$u7b$$u7b$vtable.shim$u7d$$u7d$17hdd68daf0f98dd64eE', symObjAddr: 0x24C30, symBinAddr: 0x100501B68, symSize: 0x4 }
  - { offset: 0x6196C, size: 0x8, addend: 0x0, symName: '__ZN4core3ops8function6FnOnce40call_once$u7b$$u7b$vtable.shim$u7d$$u7d$17hf14fd7b5bd331983E', symObjAddr: 0x24C34, symBinAddr: 0x100501B6C, symSize: 0x4 }
  - { offset: 0x6198A, size: 0x8, addend: 0x0, symName: '__ZN4core3ops8function6FnOnce40call_once$u7b$$u7b$vtable.shim$u7d$$u7d$17hf14fd7b5bd331983E', symObjAddr: 0x24C34, symBinAddr: 0x100501B6C, symSize: 0x4 }
  - { offset: 0x619A9, size: 0x8, addend: 0x0, symName: '__ZN4core3ops8function6FnOnce40call_once$u7b$$u7b$vtable.shim$u7d$$u7d$17hf9dcfad1ce192726E', symObjAddr: 0x24C38, symBinAddr: 0x100501B70, symSize: 0x60 }
  - { offset: 0x61A96, size: 0x8, addend: 0x0, symName: '__ZN4core3ops8function6FnOnce40call_once$u7b$$u7b$vtable.shim$u7d$$u7d$17hfbc3cc1433d0fb25E', symObjAddr: 0x24C98, symBinAddr: 0x100501BD0, symSize: 0xC }
  - { offset: 0x61C84, size: 0x8, addend: 0x0, symName: __ZN4core3ops8function2Fn4call17h2b24d9b61cf27decE, symObjAddr: 0x246DC, symBinAddr: 0x100501614, symSize: 0x8 }
  - { offset: 0x61C9E, size: 0x8, addend: 0x0, symName: __ZN4core3ops8function2Fn4call17h417fb1fb1e292987E, symObjAddr: 0x246E4, symBinAddr: 0x10050161C, symSize: 0x8 }
  - { offset: 0x61CB2, size: 0x8, addend: 0x0, symName: __ZN4core3ops8function2Fn4call17h58db68bae0cf538bE, symObjAddr: 0x246EC, symBinAddr: 0x100501624, symSize: 0x8 }
  - { offset: 0x61CC6, size: 0x8, addend: 0x0, symName: __ZN4core3ops8function2Fn4call17h5f23c8f376f63f24E, symObjAddr: 0x246F4, symBinAddr: 0x10050162C, symSize: 0x38 }
  - { offset: 0x61D62, size: 0x8, addend: 0x0, symName: __ZN4core3ops8function2Fn4call17h7dd384b9fff5469cE, symObjAddr: 0x2472C, symBinAddr: 0x100501664, symSize: 0x38 }
  - { offset: 0x61DFE, size: 0x8, addend: 0x0, symName: __ZN4core3ops8function2Fn4call17h8b3940ecb938067aE, symObjAddr: 0x24764, symBinAddr: 0x10050169C, symSize: 0xAC }
  - { offset: 0x61F03, size: 0x8, addend: 0x0, symName: __ZN4core3ops8function2Fn4call17hd8dccb1a964cd42aE, symObjAddr: 0x24810, symBinAddr: 0x100501748, symSize: 0xA4 }
  - { offset: 0x61FDB, size: 0x8, addend: 0x0, symName: __ZN4core3ops8function2Fn4call17hec4064a2889eff72E, symObjAddr: 0x248B4, symBinAddr: 0x1005017EC, symSize: 0xAC }
  - { offset: 0x62101, size: 0x8, addend: 0x0, symName: __ZN4core3ops8function5FnMut8call_mut17he0dfdcc09f0fa70cE, symObjAddr: 0x24960, symBinAddr: 0x100501898, symSize: 0x8 }
  - { offset: 0x637BC, size: 0x8, addend: 0x0, symName: '__ZN36_$LT$T$u20$as$u20$core..any..Any$GT$7type_id17h4476dc8bfa4379ddE', symObjAddr: 0xC0C, symBinAddr: 0x1004DFFC8, symSize: 0x14 }
  - { offset: 0x637DA, size: 0x8, addend: 0x0, symName: '__ZN36_$LT$T$u20$as$u20$core..any..Any$GT$7type_id17h4476dc8bfa4379ddE', symObjAddr: 0xC0C, symBinAddr: 0x1004DFFC8, symSize: 0x14 }
  - { offset: 0x637EC, size: 0x8, addend: 0x0, symName: '__ZN36_$LT$T$u20$as$u20$core..any..Any$GT$7type_id17ha3d980d881e660a3E', symObjAddr: 0xC20, symBinAddr: 0x1004DFFDC, symSize: 0x14 }
  - { offset: 0x6380A, size: 0x8, addend: 0x0, symName: '__ZN36_$LT$T$u20$as$u20$core..any..Any$GT$7type_id17ha3d980d881e660a3E', symObjAddr: 0xC20, symBinAddr: 0x1004DFFDC, symSize: 0x14 }
  - { offset: 0x6381C, size: 0x8, addend: 0x0, symName: '__ZN36_$LT$T$u20$as$u20$core..any..Any$GT$7type_id17he212554cd1bd9026E', symObjAddr: 0xC34, symBinAddr: 0x1004DFFF0, symSize: 0x14 }
  - { offset: 0x6383A, size: 0x8, addend: 0x0, symName: '__ZN36_$LT$T$u20$as$u20$core..any..Any$GT$7type_id17he212554cd1bd9026E', symObjAddr: 0xC34, symBinAddr: 0x1004DFFF0, symSize: 0x14 }
  - { offset: 0x64E5E, size: 0x8, addend: 0x0, symName: '__ZN4core5array69_$LT$impl$u20$core..fmt..Debug$u20$for$u20$$u5b$T$u3b$$u20$N$u5d$$GT$3fmt17heccf47e3c70b165dE', symObjAddr: 0x2A4FC, symBinAddr: 0x100504654, symSize: 0xFC }
  - { offset: 0x65238, size: 0x8, addend: 0x0, symName: '__ZN4core4cell4once17OnceCell$LT$T$GT$8try_init17h0dbd68963bb266bdE', symObjAddr: 0x2771C, symBinAddr: 0x100598044, symSize: 0x60 }
  - { offset: 0x65257, size: 0x8, addend: 0x0, symName: '__ZN4core4cell4once17OnceCell$LT$T$GT$8try_init17h0dbd68963bb266bdE', symObjAddr: 0x2771C, symBinAddr: 0x100598044, symSize: 0x60 }
  - { offset: 0x6526D, size: 0x8, addend: 0x0, symName: '__ZN4core4cell4once17OnceCell$LT$T$GT$8try_init17h0dbd68963bb266bdE', symObjAddr: 0x2771C, symBinAddr: 0x100598044, symSize: 0x60 }
  - { offset: 0x65282, size: 0x8, addend: 0x0, symName: '__ZN4core4cell4once17OnceCell$LT$T$GT$8try_init17h0dbd68963bb266bdE', symObjAddr: 0x2771C, symBinAddr: 0x100598044, symSize: 0x60 }
  - { offset: 0x652DB, size: 0x8, addend: 0x0, symName: '__ZN4core4cell4once17OnceCell$LT$T$GT$8try_init17h50cab64304c91344E', symObjAddr: 0x2777C, symBinAddr: 0x1005980A4, symSize: 0xC04 }
  - { offset: 0x66C72, size: 0x8, addend: 0x0, symName: '__ZN4core4cell4once17OnceCell$LT$T$GT$8try_init17h5ae72910d44ba69bE', symObjAddr: 0x28380, symBinAddr: 0x100598CA8, symSize: 0x110 }
  - { offset: 0x66F76, size: 0x8, addend: 0x0, symName: '__ZN4core4cell4once17OnceCell$LT$T$GT$8try_init17h740b85307009de2bE', symObjAddr: 0x28490, symBinAddr: 0x100598DB8, symSize: 0x19BC }
  - { offset: 0x6A4AD, size: 0x8, addend: 0x0, symName: '__ZN4core4cell4once17OnceCell$LT$T$GT$8try_init17h7b14d09919c6bf02E', symObjAddr: 0x29E4C, symBinAddr: 0x10059A774, symSize: 0x80 }
  - { offset: 0x6A566, size: 0x8, addend: 0x0, symName: '__ZN4core4cell4once17OnceCell$LT$T$GT$8try_init17hd13fdb4e890aeceeE', symObjAddr: 0x29ECC, symBinAddr: 0x10059A7F4, symSize: 0x630 }
  - { offset: 0x6B7C6, size: 0x8, addend: 0x0, symName: '__ZN55_$LT$$RF$str$u20$as$u20$core..str..pattern..Pattern$GT$15is_contained_in17h487213ac5991e88dE', symObjAddr: 0x32E10, symBinAddr: 0x10050CEC8, symSize: 0x3C0 }
  - { offset: 0x6C120, size: 0x8, addend: 0x0, symName: __ZN4core5error5Error11description17h47d2fadeb9bb474aE, symObjAddr: 0x2A5F8, symBinAddr: 0x100504750, symSize: 0x10 }
  - { offset: 0x6C13B, size: 0x8, addend: 0x0, symName: __ZN4core5error5Error11description17h81eb33be0f21121fE, symObjAddr: 0x2A608, symBinAddr: 0x100504760, symSize: 0x10 }
  - { offset: 0x6C156, size: 0x8, addend: 0x0, symName: __ZN4core5error5Error5cause17hd20beacbecdfa2d1E, symObjAddr: 0x2A618, symBinAddr: 0x100504770, symSize: 0x8 }
  - { offset: 0x6C171, size: 0x8, addend: 0x0, symName: __ZN4core5error5Error5cause17hee65f666ccfc03bdE, symObjAddr: 0x2A620, symBinAddr: 0x100504778, symSize: 0x8 }
  - { offset: 0x6C18C, size: 0x8, addend: 0x0, symName: __ZN4core5error5Error7provide17h85bee66d1ac14f21E, symObjAddr: 0x2A628, symBinAddr: 0x100504780, symSize: 0x4 }
  - { offset: 0x6C1A7, size: 0x8, addend: 0x0, symName: __ZN4core5error5Error7provide17ha159718348df80d8E, symObjAddr: 0x2A62C, symBinAddr: 0x100504784, symSize: 0x4 }
  - { offset: 0x6C1C2, size: 0x8, addend: 0x0, symName: __ZN4core5error5Error7type_id17h08fbb3ea70f2a4aaE, symObjAddr: 0x2A630, symBinAddr: 0x100504788, symSize: 0x14 }
  - { offset: 0x6C1E1, size: 0x8, addend: 0x0, symName: __ZN4core5error5Error7type_id17h08fbb3ea70f2a4aaE, symObjAddr: 0x2A630, symBinAddr: 0x100504788, symSize: 0x14 }
  - { offset: 0x6C1F4, size: 0x8, addend: 0x0, symName: __ZN4core5error5Error7type_id17h84e8a8c6f015423bE, symObjAddr: 0x2A644, symBinAddr: 0x10050479C, symSize: 0x14 }
  - { offset: 0x6C213, size: 0x8, addend: 0x0, symName: __ZN4core5error5Error7type_id17h84e8a8c6f015423bE, symObjAddr: 0x2A644, symBinAddr: 0x10050479C, symSize: 0x14 }
  - { offset: 0x6C22E, size: 0x8, addend: 0x0, symName: __ZN4core9panicking13assert_failed17h18dea376b8e0a675E, symObjAddr: 0x3215C, symBinAddr: 0x10059AE24, symSize: 0x24 }
  - { offset: 0x6C24A, size: 0x8, addend: 0x0, symName: __ZN4core9panicking13assert_failed17ha8c2be729fb4607eE, symObjAddr: 0x32180, symBinAddr: 0x10059AE48, symSize: 0x24 }
  - { offset: 0x6C266, size: 0x8, addend: 0x0, symName: __ZN4core9panicking13assert_failed17haf33e63926cb2ec1E, symObjAddr: 0x321A4, symBinAddr: 0x10059AE6C, symSize: 0x24 }
  - { offset: 0x6C282, size: 0x8, addend: 0x0, symName: __ZN4core9panicking13assert_failed17hfa28ede05e84e919E, symObjAddr: 0x321C8, symBinAddr: 0x10059AE90, symSize: 0x34 }
  - { offset: 0x6C2AC, size: 0x8, addend: 0x0, symName: __RNvCsiGVaDesi5rv_7___rustc10rust_panic, symObjAddr: 0x0, symBinAddr: 0x100595AF8, symSize: 0x60 }
  - { offset: 0x6C2DE, size: 0x8, addend: 0x0, symName: __RNvCsiGVaDesi5rv_7___rustc17___rust_drop_panic, symObjAddr: 0x18C, symBinAddr: 0x1004DF5A4, symSize: 0xBC }
  - { offset: 0x6C4E6, size: 0x8, addend: 0x0, symName: __RNvCsiGVaDesi5rv_7___rustc17rust_begin_unwind, symObjAddr: 0x248, symBinAddr: 0x1004DF660, symSize: 0x20 }
  - { offset: 0x6C518, size: 0x8, addend: 0x0, symName: __RNvCsiGVaDesi5rv_7___rustc24___rust_foreign_exception, symObjAddr: 0x2F8, symBinAddr: 0x1004DF710, symSize: 0xBC }
  - { offset: 0x6C7A3, size: 0x8, addend: 0x0, symName: __ZN3std9panicking11panic_count17is_zero_slow_path17h0e49bc980a448302E, symObjAddr: 0x21FDC, symBinAddr: 0x100597F0C, symSize: 0x2C }
  - { offset: 0x6C844, size: 0x8, addend: 0x0, symName: __ZN3std9panicking11panic_count19finished_panic_hook17hdbb8bf1374910e5aE, symObjAddr: 0x22008, symBinAddr: 0x1004FF04C, symSize: 0x24 }
  - { offset: 0x6C90E, size: 0x8, addend: 0x0, symName: __ZN3std9panicking11panic_count8decrease17h3376dddd0e9eeddbE, symObjAddr: 0x2202C, symBinAddr: 0x1004FF070, symSize: 0x40 }
  - { offset: 0x6CA30, size: 0x8, addend: 0x0, symName: __ZN3std9panicking11panic_count8increase17h4753f997ed38a1a6E, symObjAddr: 0x2206C, symBinAddr: 0x1004FF0B0, symSize: 0x64 }
  - { offset: 0x6CA48, size: 0x8, addend: 0x0, symName: __ZN3std9panicking11panic_count8increase17h4753f997ed38a1a6E, symObjAddr: 0x2206C, symBinAddr: 0x1004FF0B0, symSize: 0x64 }
  - { offset: 0x6CA5E, size: 0x8, addend: 0x0, symName: __ZN3std9panicking11panic_count8increase17h4753f997ed38a1a6E, symObjAddr: 0x2206C, symBinAddr: 0x1004FF0B0, symSize: 0x64 }
  - { offset: 0x6CB1A, size: 0x8, addend: 0x0, symName: __ZN3std9panicking11panic_count9get_count17hdc0488f68821b5baE, symObjAddr: 0x220D0, symBinAddr: 0x1004FF114, symSize: 0x24 }
  - { offset: 0x6CC62, size: 0x8, addend: 0x0, symName: __ZN3std9panicking12catch_unwind7cleanup17h358719a1eae3fd11E, symObjAddr: 0x220F4, symBinAddr: 0x100597F38, symSize: 0x40 }
  - { offset: 0x6CD93, size: 0x8, addend: 0x0, symName: __ZN3std9panicking11begin_panic17hf5535a85bc407197E, symObjAddr: 0x21F90, symBinAddr: 0x100597EF0, symSize: 0x1C }
  - { offset: 0x6CDB4, size: 0x8, addend: 0x0, symName: '__ZN3std9panicking11begin_panic28_$u7b$$u7b$closure$u7d$$u7d$17hcbcab1aa309d51dfE', symObjAddr: 0x21FAC, symBinAddr: 0x1004FF01C, symSize: 0x30 }
  - { offset: 0x6CDD5, size: 0x8, addend: 0x0, symName: '__ZN84_$LT$std..panicking..begin_panic..Payload$LT$A$GT$$u20$as$u20$core..fmt..Display$GT$3fmt17h318a3fb792b1757bE', symObjAddr: 0x4B3F4, symBinAddr: 0x100524DF4, symSize: 0x24 }
  - { offset: 0x6CE0E, size: 0x8, addend: 0x0, symName: '__ZN91_$LT$std..panicking..begin_panic..Payload$LT$A$GT$$u20$as$u20$core..panic..PanicPayload$GT$3get17hdae4a4204589bf73E', symObjAddr: 0x4BAA4, symBinAddr: 0x1005254A4, symSize: 0x20 }
  - { offset: 0x6CE29, size: 0x8, addend: 0x0, symName: '__ZN91_$LT$std..panicking..begin_panic..Payload$LT$A$GT$$u20$as$u20$core..panic..PanicPayload$GT$8take_box17h673be6dd0391e22bE', symObjAddr: 0x4BAC4, symBinAddr: 0x1005254C4, symSize: 0x54 }
  - { offset: 0x6CED2, size: 0x8, addend: 0x0, symName: __ZN3std9panicking12default_hook17h8781bd6c5c54e4ccE, symObjAddr: 0x22134, symBinAddr: 0x1004FF138, symSize: 0x13C }
  - { offset: 0x6D06E, size: 0x8, addend: 0x0, symName: '__ZN3std9panicking12default_hook28_$u7b$$u7b$closure$u7d$$u7d$17hf5d7ef6cefa10586E', symObjAddr: 0x22270, symBinAddr: 0x1004FF274, symSize: 0x19C }
  - { offset: 0x6D25A, size: 0x8, addend: 0x0, symName: '__ZN3std9panicking12default_hook28_$u7b$$u7b$closure$u7d$$u7d$28_$u7b$$u7b$closure$u7d$$u7d$17h228f93a334e4467fE', symObjAddr: 0x2240C, symBinAddr: 0x1004FF410, symSize: 0x314 }
  - { offset: 0x6D8A0, size: 0x8, addend: 0x0, symName: '__ZN3std9panicking13panic_handler28_$u7b$$u7b$closure$u7d$$u7d$17h8561e58c9391724aE', symObjAddr: 0x22720, symBinAddr: 0x1004FF724, symSize: 0xC0 }
  - { offset: 0x6DA0B, size: 0x8, addend: 0x0, symName: '__ZN86_$LT$std..panicking..panic_handler..StaticStrPayload$u20$as$u20$core..fmt..Display$GT$3fmt17hb7fb6684d4df6d45E', symObjAddr: 0x4B620, symBinAddr: 0x100525020, symSize: 0x10 }
  - { offset: 0x6DA2D, size: 0x8, addend: 0x0, symName: '__ZN89_$LT$std..panicking..panic_handler..FormatStringPayload$u20$as$u20$core..fmt..Display$GT$3fmt17hb86c89f46dcad114E', symObjAddr: 0x4B9D4, symBinAddr: 0x1005253D4, symSize: 0x5C }
  - { offset: 0x6DB33, size: 0x8, addend: 0x0, symName: '__ZN93_$LT$std..panicking..panic_handler..StaticStrPayload$u20$as$u20$core..panic..PanicPayload$GT$3get17h83e5208296b54496E', symObjAddr: 0x4C030, symBinAddr: 0x100525A30, symSize: 0xC }
  - { offset: 0x6DB4E, size: 0x8, addend: 0x0, symName: '__ZN93_$LT$std..panicking..panic_handler..StaticStrPayload$u20$as$u20$core..panic..PanicPayload$GT$6as_str17h2db90258d19f6e52E', symObjAddr: 0x4C03C, symBinAddr: 0x100525A3C, symSize: 0xC }
  - { offset: 0x6DB69, size: 0x8, addend: 0x0, symName: '__ZN93_$LT$std..panicking..panic_handler..StaticStrPayload$u20$as$u20$core..panic..PanicPayload$GT$8take_box17h1485494e9d7ff18aE', symObjAddr: 0x4C048, symBinAddr: 0x100525A48, symSize: 0x48 }
  - { offset: 0x6DC1B, size: 0x8, addend: 0x0, symName: '__ZN96_$LT$std..panicking..panic_handler..FormatStringPayload$u20$as$u20$core..panic..PanicPayload$GT$3get17h96f0332b2c82aadbE', symObjAddr: 0x4C694, symBinAddr: 0x100526094, symSize: 0xB0 }
  - { offset: 0x6DD55, size: 0x8, addend: 0x0, symName: '__ZN96_$LT$std..panicking..panic_handler..FormatStringPayload$u20$as$u20$core..panic..PanicPayload$GT$8take_box17h65a88e9a74ff16deE', symObjAddr: 0x4C744, symBinAddr: 0x100526144, symSize: 0x118 }
  - { offset: 0x6DFE8, size: 0x8, addend: 0x0, symName: __ZN3std9panicking13resume_unwind17h45068855baee7132E, symObjAddr: 0x227E0, symBinAddr: 0x100597F78, symSize: 0xB8 }
  - { offset: 0x6E219, size: 0x8, addend: 0x0, symName: __ZN3std9panicking14payload_as_str17h4d3eb9108e6d331cE, symObjAddr: 0x22898, symBinAddr: 0x1004FF7E4, symSize: 0xC8 }
  - { offset: 0x6E36C, size: 0x8, addend: 0x0, symName: __ZN3std9panicking15panic_with_hook17h93c775fc227522ddE, symObjAddr: 0x22960, symBinAddr: 0x1004FF8AC, symSize: 0x390 }
  - { offset: 0x6EBC9, size: 0x8, addend: 0x0, symName: '__ZN3std9panicking41begin_panic$u7b$$u7b$reify.shim$u7d$$u7d$17hf104e6aa02993a59E', symObjAddr: 0x22CF0, symBinAddr: 0x100598030, symSize: 0x14 }
  - { offset: 0x6EBF2, size: 0x8, addend: 0x0, symName: __ZN3std9panicking8set_hook17h8509a117aaa1eb6bE, symObjAddr: 0x22D04, symBinAddr: 0x1004FFC3C, symSize: 0x178 }
  - { offset: 0x6EEC5, size: 0x8, addend: 0x0, symName: __ZN3std9panicking9take_hook17h7db946037d74013dE, symObjAddr: 0x22E7C, symBinAddr: 0x1004FFDB4, symSize: 0xF4 }
  - { offset: 0x6F0A4, size: 0x8, addend: 0x0, symName: '__ZN79_$LT$std..panicking..resume_unwind..RewrapBox$u20$as$u20$core..fmt..Display$GT$3fmt17h7489b74430013398E', symObjAddr: 0x49F74, symBinAddr: 0x1005239B8, symSize: 0x14 }
  - { offset: 0x6F0C6, size: 0x8, addend: 0x0, symName: '__ZN86_$LT$std..panicking..resume_unwind..RewrapBox$u20$as$u20$core..panic..PanicPayload$GT$3get17h4cdc834d3068e82aE', symObjAddr: 0x4B630, symBinAddr: 0x100525030, symSize: 0xC }
  - { offset: 0x6F0E1, size: 0x8, addend: 0x0, symName: '__ZN86_$LT$std..panicking..resume_unwind..RewrapBox$u20$as$u20$core..panic..PanicPayload$GT$8take_box17hd214d9e6e38490beE', symObjAddr: 0x4B63C, symBinAddr: 0x10052503C, symSize: 0x1C }
  - { offset: 0x6F100, size: 0x8, addend: 0x0, symName: '__ZN86_$LT$std..panicking..resume_unwind..RewrapBox$u20$as$u20$core..panic..PanicPayload$GT$8take_box17hd214d9e6e38490beE', symObjAddr: 0x4B63C, symBinAddr: 0x10052503C, symSize: 0x1C }
  - { offset: 0x6F199, size: 0x8, addend: 0x0, symName: __ZN3std3sys5alloc16realloc_fallback17h0a7298a022df2353E, symObjAddr: 0x18438, symBinAddr: 0x1004F59C4, symSize: 0xB0 }
  - { offset: 0x6F286, size: 0x8, addend: 0x0, symName: '__ZN102_$LT$std..sys..process..unix..common..cstring_array..CStringArray$u20$as$u20$core..ops..drop..Drop$GT$4drop17h06df4f02e6fe90a9E', symObjAddr: 0x3CC, symBinAddr: 0x1004DF7CC, symSize: 0x70 }
  - { offset: 0x6F44C, size: 0x8, addend: 0x0, symName: '__ZN118_$LT$std..sys..process..unix..common..cstring_array..CStringIter$u20$as$u20$core..iter..traits..iterator..Iterator$GT$4next17h79b13065bdca8605E', symObjAddr: 0xA40, symBinAddr: 0x1004DFDFC, symSize: 0x44 }
  - { offset: 0x6F4CE, size: 0x8, addend: 0x0, symName: '__ZN118_$LT$std..sys..process..unix..common..cstring_array..CStringIter$u20$as$u20$core..iter..traits..iterator..Iterator$GT$9size_hint17h0976aff1f76ac0faE', symObjAddr: 0xA84, symBinAddr: 0x1004DFE40, symSize: 0x1C }
  - { offset: 0x6F4E6, size: 0x8, addend: 0x0, symName: '__ZN118_$LT$std..sys..process..unix..common..cstring_array..CStringIter$u20$as$u20$core..iter..traits..iterator..Iterator$GT$9size_hint17h0976aff1f76ac0faE', symObjAddr: 0xA84, symBinAddr: 0x1004DFE40, symSize: 0x1C }
  - { offset: 0x6F550, size: 0x8, addend: 0x0, symName: '__ZN129_$LT$std..sys..process..unix..common..cstring_array..CStringIter$u20$as$u20$core..iter..traits..exact_size..ExactSizeIterator$GT$3len17h44c40a6059c51b60E', symObjAddr: 0xBC8, symBinAddr: 0x1004DFF84, symSize: 0x10 }
  - { offset: 0x6F568, size: 0x8, addend: 0x0, symName: '__ZN129_$LT$std..sys..process..unix..common..cstring_array..CStringIter$u20$as$u20$core..iter..traits..exact_size..ExactSizeIterator$GT$3len17h44c40a6059c51b60E', symObjAddr: 0xBC8, symBinAddr: 0x1004DFF84, symSize: 0x10 }
  - { offset: 0x6F5C5, size: 0x8, addend: 0x0, symName: '__ZN117_$LT$std..sys..process..unix..common..cstring_array..CStringArray$u20$as$u20$core..ops..index..Index$LT$usize$GT$$GT$5index17h609c957f8c89611dE', symObjAddr: 0x9D8, symBinAddr: 0x1004DFD94, symSize: 0x68 }
  - { offset: 0x6F6FE, size: 0x8, addend: 0x0, symName: '__ZN97_$LT$std..sys..process..unix..common..cstring_array..CStringArray$u20$as$u20$core..fmt..Debug$GT$3fmt17hbbccf099a7c7fc11E', symObjAddr: 0x4C89C, symBinAddr: 0x10052629C, symSize: 0xA4 }
  - { offset: 0x6F824, size: 0x8, addend: 0x0, symName: '__ZN103_$LT$std..sys..process..unix..common..CommandArgs$u20$as$u20$core..iter..traits..iterator..Iterator$GT$4next17hd947891a9a52f1c2E', symObjAddr: 0x444, symBinAddr: 0x1004DF844, symSize: 0x44 }
  - { offset: 0x6F8BD, size: 0x8, addend: 0x0, symName: '__ZN103_$LT$std..sys..process..unix..common..CommandArgs$u20$as$u20$core..iter..traits..iterator..Iterator$GT$9size_hint17h25f7f697a563f1bcE', symObjAddr: 0x488, symBinAddr: 0x1004DF888, symSize: 0x1C }
  - { offset: 0x6F8D5, size: 0x8, addend: 0x0, symName: '__ZN103_$LT$std..sys..process..unix..common..CommandArgs$u20$as$u20$core..iter..traits..iterator..Iterator$GT$9size_hint17h25f7f697a563f1bcE', symObjAddr: 0x488, symBinAddr: 0x1004DF888, symSize: 0x1C }
  - { offset: 0x6F8EB, size: 0x8, addend: 0x0, symName: '__ZN103_$LT$std..sys..process..unix..common..CommandArgs$u20$as$u20$core..iter..traits..iterator..Iterator$GT$9size_hint17h25f7f697a563f1bcE', symObjAddr: 0x488, symBinAddr: 0x1004DF888, symSize: 0x1C }
  - { offset: 0x6F965, size: 0x8, addend: 0x0, symName: '__ZN114_$LT$std..sys..process..unix..common..CommandArgs$u20$as$u20$core..iter..traits..exact_size..ExactSizeIterator$GT$3len17hf014799024899597E', symObjAddr: 0x9C8, symBinAddr: 0x1004DFD84, symSize: 0x10 }
  - { offset: 0x6F97D, size: 0x8, addend: 0x0, symName: '__ZN114_$LT$std..sys..process..unix..common..CommandArgs$u20$as$u20$core..iter..traits..exact_size..ExactSizeIterator$GT$3len17hf014799024899597E', symObjAddr: 0x9C8, symBinAddr: 0x1004DFD84, symSize: 0x10 }
  - { offset: 0x6F993, size: 0x8, addend: 0x0, symName: '__ZN114_$LT$std..sys..process..unix..common..CommandArgs$u20$as$u20$core..iter..traits..exact_size..ExactSizeIterator$GT$3len17hf014799024899597E', symObjAddr: 0x9C8, symBinAddr: 0x1004DFD84, symSize: 0x10 }
  - { offset: 0x6FA96, size: 0x8, addend: 0x0, symName: '__ZN3std3sys7process4unix4unix58_$LT$impl$u20$std..sys..process..unix..common..Command$GT$5spawn17h237fe095142cc34bE', symObjAddr: 0x18FF8, symBinAddr: 0x1004F6584, symSize: 0x95C }
  - { offset: 0x70C24, size: 0x8, addend: 0x0, symName: '__ZN3std3sys7process4unix4unix58_$LT$impl$u20$std..sys..process..unix..common..Command$GT$7do_exec17h6feeeb7d9b34c595E', symObjAddr: 0x19954, symBinAddr: 0x1004F6EE0, symSize: 0x340 }
  - { offset: 0x71486, size: 0x8, addend: 0x0, symName: __ZN3std3sys7process4unix6common7Command11capture_env17h2f7baac55a4a4f05E, symObjAddr: 0x19E6C, symBinAddr: 0x1004F73F8, symSize: 0xB2C }
  - { offset: 0x73687, size: 0x8, addend: 0x0, symName: __ZN3std3sys7process4unix6common7Command3arg17h7fee8d488ea7ade5E, symObjAddr: 0x1A998, symBinAddr: 0x1004F7F24, symSize: 0xE8 }
  - { offset: 0x739B0, size: 0x8, addend: 0x0, symName: __ZN3std3sys7process4unix6common7Command3cwd17h903b74b232705ed1E, symObjAddr: 0x1AA80, symBinAddr: 0x1004F800C, symSize: 0xD4 }
  - { offset: 0x73BFF, size: 0x8, addend: 0x0, symName: __ZN3std3sys7process4unix6common7Command3new17h7d9010e7a2d465d6E, symObjAddr: 0x1AB54, symBinAddr: 0x1004F80E0, symSize: 0x290 }
  - { offset: 0x7417A, size: 0x8, addend: 0x0, symName: __ZN3std3sys7process4unix6common7Command5stdin17hdaeb0f35641b9811E, symObjAddr: 0x1ADE4, symBinAddr: 0x1004F8370, symSize: 0x44 }
  - { offset: 0x74208, size: 0x8, addend: 0x0, symName: __ZN3std3sys7process4unix6common7Command6chroot17h104abb2d6a951db1E, symObjAddr: 0x1AE28, symBinAddr: 0x1004F83B4, symSize: 0xF8 }
  - { offset: 0x74491, size: 0x8, addend: 0x0, symName: __ZN3std3sys7process4unix6common7Command6stderr17hd8687e59201ffd08E, symObjAddr: 0x1AF20, symBinAddr: 0x1004F84AC, symSize: 0x44 }
  - { offset: 0x7451F, size: 0x8, addend: 0x0, symName: __ZN3std3sys7process4unix6common7Command6stdout17h51f556897e5c8e64E, symObjAddr: 0x1AF64, symBinAddr: 0x1004F84F0, symSize: 0x44 }
  - { offset: 0x745AD, size: 0x8, addend: 0x0, symName: __ZN3std3sys7process4unix6common7Command8pre_exec17h29ad8acf087d0333E, symObjAddr: 0x1AFA8, symBinAddr: 0x1004F8534, symSize: 0x70 }
  - { offset: 0x74699, size: 0x8, addend: 0x0, symName: __ZN3std3sys7process4unix6common7Command8setup_io17hb6644c8ea4611925E, symObjAddr: 0x1B018, symBinAddr: 0x1004F85A4, symSize: 0x2F8 }
  - { offset: 0x74AEE, size: 0x8, addend: 0x0, symName: __ZN3std3sys7process4unix6common7Command9set_arg_017h62dd58a474942324E, symObjAddr: 0x1B310, symBinAddr: 0x1004F889C, symSize: 0x138 }
  - { offset: 0x74ED2, size: 0x8, addend: 0x0, symName: __ZN3std3sys7process4unix6common5Stdio14to_child_stdio17h0c95bbc5e493516fE, symObjAddr: 0x19D30, symBinAddr: 0x1004F72BC, symSize: 0x13C }
  - { offset: 0x75010, size: 0x8, addend: 0x0, symName: '__ZN77_$LT$std..sys..process..unix..common..Command$u20$as$u20$core..fmt..Debug$GT$3fmt17h1afdece3edb93e87E', symObjAddr: 0x48D38, symBinAddr: 0x10052277C, symSize: 0x804 }
  - { offset: 0x75E74, size: 0x8, addend: 0x0, symName: '__ZN78_$LT$std..sys..process..unix..common..ExitCode$u20$as$u20$core..fmt..Debug$GT$3fmt17h55c0aba960dc15b8E', symObjAddr: 0x49748, symBinAddr: 0x10052318C, symSize: 0x58 }
  - { offset: 0x75E96, size: 0x8, addend: 0x0, symName: '__ZN81_$LT$std..sys..process..unix..common..CommandArgs$u20$as$u20$core..fmt..Debug$GT$3fmt17hc24efa9a374ce889E', symObjAddr: 0x4ACCC, symBinAddr: 0x100524710, symSize: 0x84 }
  - { offset: 0x75F8A, size: 0x8, addend: 0x0, symName: '__ZN146_$LT$std..sys..process..unix..unix..$LT$impl$u20$std..sys..process..unix..common..Command$GT$..do_exec..Reset$u20$as$u20$core..ops..drop..Drop$GT$4drop17h495bd1bed16e4734E', symObjAddr: 0xBD8, symBinAddr: 0x1004DFF94, symSize: 0x24 }
  - { offset: 0x75FFB, size: 0x8, addend: 0x0, symName: '__ZN159_$LT$std..sys..process..unix..unix..$LT$impl$u20$std..sys..process..unix..common..Command$GT$..posix_spawn..PosixSpawnattr$u20$as$u20$core..ops..drop..Drop$GT$4drop17he3f4f6973e3317e3E', symObjAddr: 0xBFC, symBinAddr: 0x1004DFFB8, symSize: 0x8 }
  - { offset: 0x76024, size: 0x8, addend: 0x0, symName: '__ZN166_$LT$std..sys..process..unix..unix..$LT$impl$u20$std..sys..process..unix..common..Command$GT$..posix_spawn..PosixSpawnFileActions$u20$as$u20$core..ops..drop..Drop$GT$4drop17h42d5e87c0cf3fc90E', symObjAddr: 0xC04, symBinAddr: 0x1004DFFC0, symSize: 0x8 }
  - { offset: 0x760AA, size: 0x8, addend: 0x0, symName: __ZN3std3sys7process4unix4unix7Process4wait17h2d656728411d54a9E, symObjAddr: 0x19C94, symBinAddr: 0x1004F7220, symSize: 0x9C }
  - { offset: 0x7628F, size: 0x8, addend: 0x0, symName: '__ZN78_$LT$std..sys..process..unix..unix..ExitStatus$u20$as$u20$core..fmt..Debug$GT$3fmt17h99a97c0b250dbebfE', symObjAddr: 0x497A0, symBinAddr: 0x1005231E4, symSize: 0x58 }
  - { offset: 0x762B8, size: 0x8, addend: 0x0, symName: '__ZN80_$LT$std..sys..process..unix..unix..ExitStatus$u20$as$u20$core..fmt..Display$GT$3fmt17ha9401d638361a1ccE', symObjAddr: 0x4A3AC, symBinAddr: 0x100523DF0, symSize: 0x1F4 }
  - { offset: 0x7647C, size: 0x8, addend: 0x0, symName: '__ZN83_$LT$std..sys..process..unix..unix..ExitStatusError$u20$as$u20$core..fmt..Debug$GT$3fmt17h836d34a713dda397E', symObjAddr: 0x4B358, symBinAddr: 0x100524D9C, symSize: 0x58 }
  - { offset: 0x764B3, size: 0x8, addend: 0x0, symName: __ZN3std3sys7process3env10CommandEnv3set17h19630a6457ce5f80E, symObjAddr: 0x18AB0, symBinAddr: 0x1004F603C, symSize: 0x198 }
  - { offset: 0x76A44, size: 0x8, addend: 0x0, symName: __ZN3std3sys7process3env10CommandEnv6remove17hfb0b15aac90b2517E, symObjAddr: 0x18C48, symBinAddr: 0x1004F61D4, symSize: 0x3B0 }
  - { offset: 0x7766B, size: 0x8, addend: 0x0, symName: '__ZN71_$LT$std..sys..process..env..CommandEnv$u20$as$u20$core..fmt..Debug$GT$3fmt17h41985c4145f89a41E', symObjAddr: 0x47748, symBinAddr: 0x10052118C, symSize: 0x84 }
  - { offset: 0x776AD, size: 0x8, addend: 0x0, symName: '__ZN94_$LT$std..sys..process..env..CommandEnvs$u20$as$u20$core..iter..traits..iterator..Iterator$GT$4next17h3bd487352d4c5256E', symObjAddr: 0x4C1DC, symBinAddr: 0x100525BDC, symSize: 0x50 }
  - { offset: 0x77743, size: 0x8, addend: 0x0, symName: '__ZN103_$LT$std..sys..platform_version..darwin..core_foundation..CFHandle$u20$as$u20$core..ops..drop..Drop$GT$4drop17he4d02a1bb1aecf70E', symObjAddr: 0x43C, symBinAddr: 0x1004DF83C, symSize: 0x8 }
  - { offset: 0x77896, size: 0x8, addend: 0x0, symName: '__ZN3std3sys16platform_version6darwin18string_version_key28_$u7b$$u7b$closure$u7d$$u7d$17h964981548f7f1aeeE', symObjAddr: 0x1059C, symBinAddr: 0x1005968CC, symSize: 0x64 }
  - { offset: 0x7795F, size: 0x8, addend: 0x0, symName: __ZN3std3sys16platform_version6darwin14lookup_version17h5b7124c02da90042E, symObjAddr: 0xF514, symBinAddr: 0x100595E14, symSize: 0xAB8 }
  - { offset: 0x7878F, size: 0x8, addend: 0x0, symName: __ZN3std3sys16platform_version6darwin16parse_os_version17h97c8adb5b67ab767E, symObjAddr: 0xFFCC, symBinAddr: 0x1004EE67C, symSize: 0x5D0 }
  - { offset: 0x787AE, size: 0x8, addend: 0x0, symName: __ZN3std3sys16platform_version6darwin16parse_os_version17h97c8adb5b67ab767E, symObjAddr: 0xFFCC, symBinAddr: 0x1004EE67C, symSize: 0x5D0 }
  - { offset: 0x787C4, size: 0x8, addend: 0x0, symName: __ZN3std3sys16platform_version6darwin16parse_os_version17h97c8adb5b67ab767E, symObjAddr: 0xFFCC, symBinAddr: 0x1004EE67C, symSize: 0x5D0 }
  - { offset: 0x78C91, size: 0x8, addend: 0x0, symName: '__ZN3std3sys16platform_version6darwin18version_from_plist28_$u7b$$u7b$closure$u7d$$u7d$17hf5abd1da58047dcfE', symObjAddr: 0x10600, symBinAddr: 0x100596930, symSize: 0xE8 }
  - { offset: 0x78EFA, size: 0x8, addend: 0x0, symName: ___isOSVersionAtLeast, symObjAddr: 0x4F2D8, symBinAddr: 0x100528CD8, symSize: 0x88 }
  - { offset: 0x79023, size: 0x8, addend: 0x0, symName: ___isPlatformVersionAtLeast, symObjAddr: 0x4F360, symBinAddr: 0x100528D60, symSize: 0x84 }
  - { offset: 0x79161, size: 0x8, addend: 0x0, symName: '__ZN103_$LT$std..sys..thread_local..abort_on_dtor_unwind..DtorUnwindGuard$u20$as$u20$core..ops..drop..Drop$GT$4drop17hab0e3e160f00c982E', symObjAddr: 0x4A4, symBinAddr: 0x100595B7C, symSize: 0x44 }
  - { offset: 0x791FB, size: 0x8, addend: 0x0, symName: __ZN3std3sys12thread_local6native5eager7destroy17h2ad9203668e0e8b1E, symObjAddr: 0xF464, symBinAddr: 0x1004EE5CC, symSize: 0x2C }
  - { offset: 0x79339, size: 0x8, addend: 0x0, symName: __ZN3std3sys12thread_local6native5eager7destroy17h8980ea3fc400ba8eE, symObjAddr: 0xF490, symBinAddr: 0x1004EE5F8, symSize: 0x84 }
  - { offset: 0x79590, size: 0x8, addend: 0x0, symName: __ZN3std3sys12thread_local5guard5apple6enable9run_dtors17hb4dbe3d2f58627d3E, symObjAddr: 0xF36C, symBinAddr: 0x1004EE4D4, symSize: 0xF8 }
  - { offset: 0x79A9D, size: 0x8, addend: 0x0, symName: __ZN3std3sys12thread_local11destructors4list8register17he63ca9d3591c1a51E, symObjAddr: 0xF25C, symBinAddr: 0x1004EE3C4, symSize: 0x110 }
  - { offset: 0x79DD7, size: 0x8, addend: 0x0, symName: '__ZN104_$LT$std..sys..net..connection..socket..LookupHost$u20$as$u20$core..iter..traits..iterator..Iterator$GT$4next17h131811a9af806666E', symObjAddr: 0x4E8, symBinAddr: 0x1004DF8A4, symSize: 0xFC }
  - { offset: 0x79FE4, size: 0x8, addend: 0x0, symName: __ZN3std3sys3net10connection6socket4unix6Socket10take_error17hcb5e291ed7cfe611E, symObjAddr: 0x14714, symBinAddr: 0x1004F2C78, symSize: 0x70 }
  - { offset: 0x7A0B2, size: 0x8, addend: 0x0, symName: __ZN3std3sys3net10connection6socket4unix6Socket20recv_from_with_flags17h9b1ea7acb6cfcff1E, symObjAddr: 0x14784, symBinAddr: 0x1004F2CE8, symSize: 0x130 }
  - { offset: 0x7A1DD, size: 0x8, addend: 0x0, symName: __ZN3std3sys3net10connection6socket4unix6Socket3new17h9e59989b48c72ee9E, symObjAddr: 0x148B4, symBinAddr: 0x1004F2E18, symSize: 0xF8 }
  - { offset: 0x7A42B, size: 0x8, addend: 0x0, symName: __ZN3std3sys3net10connection6socket4unix6Socket8new_pair17h4eebec14a4b95d76E, symObjAddr: 0x149AC, symBinAddr: 0x1004F2F10, symSize: 0x130 }
  - { offset: 0x7A82F, size: 0x8, addend: 0x0, symName: '__ZN87_$LT$std..sys..net..connection..socket..LookupHost$u20$as$u20$core..ops..drop..Drop$GT$4drop17h00ebdeb55afd7174E', symObjAddr: 0x4B814, symBinAddr: 0x100525214, symSize: 0x8 }
  - { offset: 0x7A8AB, size: 0x8, addend: 0x0, symName: __ZN3std3sys3net10connection6socket11TcpListener11socket_addr17hafd339c7750d5262E, symObjAddr: 0x14304, symBinAddr: 0x1004F2868, symSize: 0x148 }
  - { offset: 0x7AAAA, size: 0x8, addend: 0x0, symName: __ZN3std3sys3net10connection6socket9TcpStream9peer_addr17h8483ff121de8c094E, symObjAddr: 0x14C14, symBinAddr: 0x1004F3178, symSize: 0x148 }
  - { offset: 0x7ADBB, size: 0x8, addend: 0x0, symName: __ZN3std3sys3net10connection6socket9UdpSocket7send_to17h576715d0ecee35f8E, symObjAddr: 0x14F38, symBinAddr: 0x1004F349C, symSize: 0xB8 }
  - { offset: 0x7ADDA, size: 0x8, addend: 0x0, symName: __ZN3std3sys3net10connection6socket9UdpSocket7send_to17h576715d0ecee35f8E, symObjAddr: 0x14F38, symBinAddr: 0x1004F349C, symSize: 0xB8 }
  - { offset: 0x7AFE2, size: 0x8, addend: 0x0, symName: __ZN3std3sys3net10connection6socket9UdpSocket4bind5inner17hfaae470631733d37E, symObjAddr: 0x14D5C, symBinAddr: 0x1004F32C0, symSize: 0x120 }
  - { offset: 0x7B1EB, size: 0x8, addend: 0x0, symName: __ZN3std3sys3net10connection6socket9UdpSocket7connect5inner17hdb87692b5d6c56b3E, symObjAddr: 0x14E7C, symBinAddr: 0x1004F33E0, symSize: 0xBC }
  - { offset: 0x7B36E, size: 0x8, addend: 0x0, symName: __ZN3std3sys3net10connection6socket11TcpListener4bind5inner17h1f680c5bb9140098E, symObjAddr: 0x1444C, symBinAddr: 0x1004F29B0, symSize: 0x14C }
  - { offset: 0x7B57B, size: 0x8, addend: 0x0, symName: '__ZN3std3sys3net10connection6socket11lookup_host28_$u7b$$u7b$closure$u7d$$u7d$17hfcbcbc82abade945E', symObjAddr: 0x14598, symBinAddr: 0x1004F2AFC, symSize: 0x17C }
  - { offset: 0x7BA1F, size: 0x8, addend: 0x0, symName: __ZN3std3sys3net10connection6socket9TcpStream7connect5inner17h7768b2c892f15564E, symObjAddr: 0x14ADC, symBinAddr: 0x1004F3040, symSize: 0x138 }
  - { offset: 0x7BC2B, size: 0x8, addend: 0x0, symName: '__ZN81_$LT$std..sys..net..connection..socket..TcpStream$u20$as$u20$core..fmt..Debug$GT$3fmt17h795bf8e0d2d6c3a7E', symObjAddr: 0x4A9B8, symBinAddr: 0x1005243FC, symSize: 0x1DC }
  - { offset: 0x7C128, size: 0x8, addend: 0x0, symName: '__ZN81_$LT$std..sys..net..connection..socket..UdpSocket$u20$as$u20$core..fmt..Debug$GT$3fmt17h8ea985a650083c8eE', symObjAddr: 0x4AB94, symBinAddr: 0x1005245D8, symSize: 0x134 }
  - { offset: 0x7C3A9, size: 0x8, addend: 0x0, symName: '__ZN83_$LT$std..sys..net..connection..socket..TcpListener$u20$as$u20$core..fmt..Debug$GT$3fmt17h6db701862e99a908E', symObjAddr: 0x4B224, symBinAddr: 0x100524C68, symSize: 0x134 }
  - { offset: 0x7C660, size: 0x8, addend: 0x0, symName: '__ZN104_$LT$std..sys..pal..unix..stack_overflow..thread_info..UnlockOnDrop$u20$as$u20$core..ops..drop..Drop$GT$4drop17h32d56313e2ad76c9E', symObjAddr: 0x5E4, symBinAddr: 0x1004DF9A0, symSize: 0x10 }
  - { offset: 0x7C678, size: 0x8, addend: 0x0, symName: '__ZN104_$LT$std..sys..pal..unix..stack_overflow..thread_info..UnlockOnDrop$u20$as$u20$core..ops..drop..Drop$GT$4drop17h32d56313e2ad76c9E', symObjAddr: 0x5E4, symBinAddr: 0x1004DF9A0, symSize: 0x10 }
  - { offset: 0x7C68D, size: 0x8, addend: 0x0, symName: '__ZN104_$LT$std..sys..pal..unix..stack_overflow..thread_info..UnlockOnDrop$u20$as$u20$core..ops..drop..Drop$GT$4drop17h32d56313e2ad76c9E', symObjAddr: 0x5E4, symBinAddr: 0x1004DF9A0, symSize: 0x10 }
  - { offset: 0x7C6BC, size: 0x8, addend: 0x0, symName: __ZN3std3sys3pal4unix14stack_overflow11thread_info16set_current_info17h84426806861e3cbbE, symObjAddr: 0x14FFC, symBinAddr: 0x1004F3554, symSize: 0x978 }
  - { offset: 0x7DAC0, size: 0x8, addend: 0x0, symName: __ZN3std3sys3pal4unix14stack_overflow3imp12drop_handler17h263587d8f9e45005E, symObjAddr: 0x15974, symBinAddr: 0x1004F3ECC, symSize: 0x3A4 }
  - { offset: 0x7E356, size: 0x8, addend: 0x0, symName: __ZN3std3sys3pal4unix14stack_overflow3imp12make_handler17h695565399b30e775E, symObjAddr: 0x15D18, symBinAddr: 0x1004F4270, symSize: 0x234 }
  - { offset: 0x7E744, size: 0x8, addend: 0x0, symName: __ZN3std3sys3pal4unix14stack_overflow3imp14signal_handler17h5180a08f3f424afaE, symObjAddr: 0x15F4C, symBinAddr: 0x1004F44A4, symSize: 0x2A8 }
  - { offset: 0x7ED5E, size: 0x8, addend: 0x0, symName: '__ZN86_$LT$std..sys..pal..unix..stack_overflow..Handler$u20$as$u20$core..ops..drop..Drop$GT$4drop17h9b9b46fc2db48dedE', symObjAddr: 0x4B790, symBinAddr: 0x100525190, symSize: 0x8 }
  - { offset: 0x7EE8B, size: 0x8, addend: 0x0, symName: __ZN3std3sys3pal4unix2os11split_paths12into_pathbuf17hc3c3c1c7efa55233E, symObjAddr: 0x16344, symBinAddr: 0x1004F489C, symSize: 0x88 }
  - { offset: 0x7F080, size: 0x8, addend: 0x0, symName: __ZN3std3sys3pal4unix2os4exit17hff0ac1cbd6ad8d94E, symObjAddr: 0x163CC, symBinAddr: 0x1004F4924, symSize: 0xC }
  - { offset: 0x7F0AE, size: 0x8, addend: 0x0, symName: '__ZN3std3sys3pal4unix2os5chdir28_$u7b$$u7b$closure$u7d$$u7d$17h1542b41d1a81d877E', symObjAddr: 0x164B4, symBinAddr: 0x1004F4A0C, symSize: 0x28 }
  - { offset: 0x7F0C3, size: 0x8, addend: 0x0, symName: __ZN3std3sys3pal4unix2os5chdir17h8d79f5d15dd1d181E, symObjAddr: 0x163D8, symBinAddr: 0x1004F4930, symSize: 0xDC }
  - { offset: 0x7F1F3, size: 0x8, addend: 0x0, symName: '__ZN78_$LT$std..sys..pal..unix..os..JoinPathsError$u20$as$u20$core..fmt..Display$GT$3fmt17he4464439cf7b4878E', symObjAddr: 0x496EC, symBinAddr: 0x100523130, symSize: 0x5C }
  - { offset: 0x7F2D3, size: 0x8, addend: 0x0, symName: __ZN3std3sys3pal4unix4time8Timespec12sub_timespec17h9e61d60fef934ad5E, symObjAddr: 0x16B0C, symBinAddr: 0x1004F4F80, symSize: 0xDC }
  - { offset: 0x7F396, size: 0x8, addend: 0x0, symName: __ZN3std3sys3pal4unix4time8Timespec3now17h10d6d2ed67c46185E, symObjAddr: 0x16BE8, symBinAddr: 0x1004F505C, symSize: 0x114 }
  - { offset: 0x7F512, size: 0x8, addend: 0x0, symName: '__ZN71_$LT$std..sys..pal..unix..time..Instant$u20$as$u20$core..fmt..Debug$GT$3fmt17hacb2924a73ff54a5E', symObjAddr: 0x476C8, symBinAddr: 0x10052110C, symSize: 0x80 }
  - { offset: 0x7F53A, size: 0x8, addend: 0x0, symName: '__ZN74_$LT$std..sys..pal..unix..time..SystemTime$u20$as$u20$core..fmt..Debug$GT$3fmt17h1f8df3f7d2b0fd51E', symObjAddr: 0x48090, symBinAddr: 0x100521AD4, symSize: 0x80 }
  - { offset: 0x7F57C, size: 0x8, addend: 0x0, symName: __ZN3std3sys3pal4unix4sync5mutex5Mutex4init17h3fb67842e75c6d9eE, symObjAddr: 0x16880, symBinAddr: 0x1004F4DD8, symSize: 0x16C }
  - { offset: 0x7F619, size: 0x8, addend: 0x0, symName: __ZN3std3sys3pal4unix4sync5mutex5Mutex4lock17h8e7ea75631e6ac34E, symObjAddr: 0x169EC, symBinAddr: 0x1004F4F44, symSize: 0x1C }
  - { offset: 0x7F62D, size: 0x8, addend: 0x0, symName: __ZN3std3sys3pal4unix4sync5mutex5Mutex6unlock17he881fdde44d7073cE, symObjAddr: 0x16AEC, symBinAddr: 0x1004F4F60, symSize: 0x4 }
  - { offset: 0x7F641, size: 0x8, addend: 0x0, symName: __ZN3std3sys3pal4unix4sync5mutex5Mutex8try_lock17hcfa898e9858a168bE, symObjAddr: 0x16AF0, symBinAddr: 0x1004F4F64, symSize: 0x1C }
  - { offset: 0x7F683, size: 0x8, addend: 0x0, symName: '__ZN85_$LT$std..sys..pal..unix..sync..mutex..AttrGuard$u20$as$u20$core..ops..drop..Drop$GT$4drop17h173ac230ce2a431cE', symObjAddr: 0x4B598, symBinAddr: 0x100524F98, symSize: 0x4C }
  - { offset: 0x7F6A4, size: 0x8, addend: 0x0, symName: __ZN3std3sys3pal4unix4sync5mutex5Mutex4lock4fail17hfd38f3b0af37e16dE, symObjAddr: 0x16A08, symBinAddr: 0x100596A24, symSize: 0xE4 }
  - { offset: 0x7F910, size: 0x8, addend: 0x0, symName: '__ZN81_$LT$std..sys..pal..unix..sync..mutex..Mutex$u20$as$u20$core..ops..drop..Drop$GT$4drop17h79d5af723eafa1ceE', symObjAddr: 0x4ACC8, symBinAddr: 0x10052470C, symSize: 0x4 }
  - { offset: 0x7FA68, size: 0x8, addend: 0x0, symName: __ZN3std3sys3pal4unix14abort_internal17he83a14397ef717aeE, symObjAddr: 0x14FF0, symBinAddr: 0x100596A18, symSize: 0xC }
  - { offset: 0x7FA83, size: 0x8, addend: 0x0, symName: __ZN3std3sys3pal4unix17decode_error_kind17hc6de140270794847E, symObjAddr: 0x161F4, symBinAddr: 0x1004F474C, symSize: 0x150 }
  - { offset: 0x7FAD8, size: 0x8, addend: 0x0, symName: __ZN3std3sys3pal4unix4pipe5read217h9c042ada965d066dE, symObjAddr: 0x164DC, symBinAddr: 0x1004F4A34, symSize: 0x22C }
  - { offset: 0x7FF01, size: 0x8, addend: 0x0, symName: __ZN3std3sys3pal4unix4pipe8AnonPipe5write17hb6b000157e4c46ebE, symObjAddr: 0x16708, symBinAddr: 0x1004F4C60, symSize: 0x50 }
  - { offset: 0x8000E, size: 0x8, addend: 0x0, symName: __ZN3std3sys3pal4unix4pipe9anon_pipe17ha11fba7cc33c9c6cE, symObjAddr: 0x16758, symBinAddr: 0x1004F4CB0, symSize: 0x128 }
  - { offset: 0x806DE, size: 0x8, addend: 0x0, symName: __ZN3std3sys3pal6common14small_c_string24run_with_cstr_allocating17h0875c4604f819d2fE, symObjAddr: 0x16CFC, symBinAddr: 0x100596B08, symSize: 0xA4 }
  - { offset: 0x80841, size: 0x8, addend: 0x0, symName: __ZN3std3sys3pal6common14small_c_string24run_with_cstr_allocating17h3469a6c9bde7915cE, symObjAddr: 0x16DA0, symBinAddr: 0x100596BAC, symSize: 0xD0 }
  - { offset: 0x80A1E, size: 0x8, addend: 0x0, symName: __ZN3std3sys3pal6common14small_c_string24run_with_cstr_allocating17h36c1fc5d22f459d5E, symObjAddr: 0x16E70, symBinAddr: 0x100596C7C, symSize: 0xC0 }
  - { offset: 0x80BFB, size: 0x8, addend: 0x0, symName: __ZN3std3sys3pal6common14small_c_string24run_with_cstr_allocating17h5b28b928bb634e4cE, symObjAddr: 0x16F30, symBinAddr: 0x100596D3C, symSize: 0xB4 }
  - { offset: 0x80DD8, size: 0x8, addend: 0x0, symName: __ZN3std3sys3pal6common14small_c_string24run_with_cstr_allocating17h7c3cf9376cd4ceb5E, symObjAddr: 0x16FE4, symBinAddr: 0x100596DF0, symSize: 0xC0 }
  - { offset: 0x80FCA, size: 0x8, addend: 0x0, symName: __ZN3std3sys3pal6common14small_c_string24run_with_cstr_allocating17hab3ab4f29d9f2122E, symObjAddr: 0x170A4, symBinAddr: 0x100596EB0, symSize: 0xBC }
  - { offset: 0x811B9, size: 0x8, addend: 0x0, symName: __ZN3std3sys3pal6common14small_c_string24run_with_cstr_allocating17hce4c8e9e75279b9eE, symObjAddr: 0x17160, symBinAddr: 0x100596F6C, symSize: 0xBC }
  - { offset: 0x81396, size: 0x8, addend: 0x0, symName: __ZN3std3sys3pal6common14small_c_string24run_with_cstr_allocating17hfc5bf0ecad02e1a9E, symObjAddr: 0x1721C, symBinAddr: 0x100597028, symSize: 0xBC }
  - { offset: 0x815A9, size: 0x8, addend: 0x0, symName: __ZN3std3sys4path4unix8absolute17hbb2925498ef4bd42E, symObjAddr: 0x172D8, symBinAddr: 0x1004F5170, symSize: 0x388 }
  - { offset: 0x81ED8, size: 0x8, addend: 0x0, symName: __ZN3std3sys3env4unix13env_read_lock17h15cf34fdeb2c90e5E, symObjAddr: 0x13AEC, symBinAddr: 0x1004F2050, symSize: 0x230 }
  - { offset: 0x82607, size: 0x8, addend: 0x0, symName: '__ZN3std3sys3env4unix6getenv28_$u7b$$u7b$closure$u7d$$u7d$17h2e848176431e684aE', symObjAddr: 0x13D1C, symBinAddr: 0x1004F2280, symSize: 0x140 }
  - { offset: 0x82842, size: 0x8, addend: 0x0, symName: __ZN3std3sys3env4unix6setenv17h4325ed24d3b2b908E, symObjAddr: 0x13E5C, symBinAddr: 0x1004F23C0, symSize: 0x9C }
  - { offset: 0x828DB, size: 0x8, addend: 0x0, symName: '__ZN3std3sys3env4unix6setenv28_$u7b$$u7b$closure$u7d$$u7d$28_$u7b$$u7b$closure$u7d$$u7d$17he264d4403a035a0bE', symObjAddr: 0x14038, symBinAddr: 0x1004F259C, symSize: 0xCC }
  - { offset: 0x82966, size: 0x8, addend: 0x0, symName: '__ZN3std3sys3env4unix6setenv28_$u7b$$u7b$closure$u7d$$u7d$17h34aa1572b039c3e0E', symObjAddr: 0x13EF8, symBinAddr: 0x1004F245C, symSize: 0x140 }
  - { offset: 0x82A75, size: 0x8, addend: 0x0, symName: '__ZN3std3sys3env4unix8unsetenv28_$u7b$$u7b$closure$u7d$$u7d$17hee29ca974faf785bE', symObjAddr: 0x14244, symBinAddr: 0x1004F27A8, symSize: 0xC0 }
  - { offset: 0x82B00, size: 0x8, addend: 0x0, symName: __ZN3std3sys3env4unix8unsetenv17h387095e9f0155fbdE, symObjAddr: 0x14104, symBinAddr: 0x1004F2668, symSize: 0x140 }
  - { offset: 0x82C43, size: 0x8, addend: 0x0, symName: '__ZN85_$LT$std..sys..env..common..Env$u20$as$u20$core..iter..traits..iterator..Iterator$GT$4next17h627bea8deedda8d8E', symObjAddr: 0x4B534, symBinAddr: 0x100524F34, symSize: 0x38 }
  - { offset: 0x82CBC, size: 0x8, addend: 0x0, symName: '__ZN85_$LT$std..sys..env..common..Env$u20$as$u20$core..iter..traits..iterator..Iterator$GT$9size_hint17h480d62a2ff9916e4E', symObjAddr: 0x4B56C, symBinAddr: 0x100524F6C, symSize: 0x2C }
  - { offset: 0x82CD4, size: 0x8, addend: 0x0, symName: '__ZN85_$LT$std..sys..env..common..Env$u20$as$u20$core..iter..traits..iterator..Iterator$GT$9size_hint17h480d62a2ff9916e4E', symObjAddr: 0x4B56C, symBinAddr: 0x100524F6C, symSize: 0x2C }
  - { offset: 0x82D31, size: 0x8, addend: 0x0, symName: '__ZN63_$LT$std..sys..env..common..Env$u20$as$u20$core..fmt..Debug$GT$3fmt17h807ffab0bf0f1fa1E', symObjAddr: 0x45228, symBinAddr: 0x10051ECB0, symSize: 0x7C }
  - { offset: 0x82DA0, size: 0x8, addend: 0x0, symName: '__ZN71_$LT$std..sys..env..common..EnvStrDebug$u20$as$u20$core..fmt..Debug$GT$3fmt17h6554687c5fc959f4E', symObjAddr: 0x475EC, symBinAddr: 0x100521030, symSize: 0xDC }
  - { offset: 0x8322F, size: 0x8, addend: 0x0, symName: __ZN3std3sys2fs4unix4File13read_vectored17hd3abc08bf94fdf8bE, symObjAddr: 0x12128, symBinAddr: 0x1004F068C, symSize: 0x54 }
  - { offset: 0x83339, size: 0x8, addend: 0x0, symName: __ZN3std3sys2fs4unix4File4read17h7ced388d40243904E, symObjAddr: 0x1217C, symBinAddr: 0x1004F06E0, symSize: 0x54 }
  - { offset: 0x83443, size: 0x8, addend: 0x0, symName: __ZN3std3sys2fs4unix4File6open_c17hb0ac4eb926211e09E, symObjAddr: 0x121D0, symBinAddr: 0x1004F0734, symSize: 0x1A0 }
  - { offset: 0x83522, size: 0x8, addend: 0x0, symName: __ZN3std3sys2fs4unix4File8read_buf17h0d76a77839e57374E, symObjAddr: 0x12370, symBinAddr: 0x1004F08D4, symSize: 0x78 }
  - { offset: 0x837FC, size: 0x8, addend: 0x0, symName: __ZN3std3sys2fs4unix8DirEntry8metadata17he51cd41846068600E, symObjAddr: 0x12900, symBinAddr: 0x1004F0E64, symSize: 0x178 }
  - { offset: 0x83DF5, size: 0x8, addend: 0x0, symName: '__ZN3std3sys2fs4unix10DirBuilder5mkdir28_$u7b$$u7b$closure$u7d$$u7d$17hbf538ebad5acb1fdE', symObjAddr: 0x11CE4, symBinAddr: 0x1004F0248, symSize: 0x44 }
  - { offset: 0x83FA2, size: 0x8, addend: 0x0, symName: __ZN3std3sys2fs4unix15remove_dir_impl24remove_dir_all_recursive17h0213aed175fd39e6E, symObjAddr: 0x11DE8, symBinAddr: 0x1004F034C, symSize: 0x340 }
  - { offset: 0x84824, size: 0x8, addend: 0x0, symName: '__ZN78_$LT$std..sys..fs..unix..copy..FreeOnDrop$u20$as$u20$core..ops..drop..Drop$GT$4drop17hee51f0aaec5b133cE', symObjAddr: 0x496E4, symBinAddr: 0x100523128, symSize: 0x8 }
  - { offset: 0x84839, size: 0x8, addend: 0x0, symName: '__ZN3std3sys2fs4unix4copy28_$u7b$$u7b$closure$u7d$$u7d$17h67ed148755696fafE', symObjAddr: 0x123E8, symBinAddr: 0x1004F094C, symSize: 0x64 }
  - { offset: 0x84959, size: 0x8, addend: 0x0, symName: __ZN3std3sys2fs4unix12canonicalize17h28fb0b79873c3a08E, symObjAddr: 0x11D28, symBinAddr: 0x1004F028C, symSize: 0xC0 }
  - { offset: 0x84B81, size: 0x8, addend: 0x0, symName: '__ZN3std3sys2fs4unix5chown28_$u7b$$u7b$closure$u7d$$u7d$17h7db0edee35881908E', symObjAddr: 0x12514, symBinAddr: 0x1004F0A78, symSize: 0x48 }
  - { offset: 0x84C08, size: 0x8, addend: 0x0, symName: __ZN3std3sys2fs4unix5chown17h2a7691b25799f23fE, symObjAddr: 0x1244C, symBinAddr: 0x1004F09B0, symSize: 0xC8 }
  - { offset: 0x84D32, size: 0x8, addend: 0x0, symName: '__ZN3std3sys2fs4unix6chroot28_$u7b$$u7b$closure$u7d$$u7d$17h655e8973fe50fd53E', symObjAddr: 0x1261C, symBinAddr: 0x1004F0B80, symSize: 0x38 }
  - { offset: 0x84DB9, size: 0x8, addend: 0x0, symName: __ZN3std3sys2fs4unix6chroot17hf545b4e140d9ddc7E, symObjAddr: 0x1255C, symBinAddr: 0x1004F0AC0, symSize: 0xC0 }
  - { offset: 0x84ECF, size: 0x8, addend: 0x0, symName: __ZN3std3sys2fs4unix6fchown17hb478271d5ec0f5c6E, symObjAddr: 0x12654, symBinAddr: 0x1004F0BB8, symSize: 0x34 }
  - { offset: 0x84F70, size: 0x8, addend: 0x0, symName: '__ZN3std3sys2fs4unix6lchown28_$u7b$$u7b$closure$u7d$$u7d$17h7241097afe57eae0E', symObjAddr: 0x12750, symBinAddr: 0x1004F0CB4, symSize: 0x48 }
  - { offset: 0x84FF7, size: 0x8, addend: 0x0, symName: __ZN3std3sys2fs4unix6lchown17hf3b1573d84a849c3E, symObjAddr: 0x12688, symBinAddr: 0x1004F0BEC, symSize: 0xC8 }
  - { offset: 0x85121, size: 0x8, addend: 0x0, symName: '__ZN3std3sys2fs4unix6mkfifo28_$u7b$$u7b$closure$u7d$$u7d$17h3278e99b3ced03b9E', symObjAddr: 0x12888, symBinAddr: 0x1004F0DEC, symSize: 0x78 }
  - { offset: 0x851EB, size: 0x8, addend: 0x0, symName: __ZN3std3sys2fs4unix6mkfifo17h168d078300b03313E, symObjAddr: 0x12798, symBinAddr: 0x1004F0CFC, symSize: 0xF0 }
  - { offset: 0x85334, size: 0x8, addend: 0x0, symName: __ZN3std3sys2fs4unix8readlink17hb921da7047fdd67bE, symObjAddr: 0x12A78, symBinAddr: 0x1004F0FDC, symSize: 0x18C }
  - { offset: 0x85809, size: 0x8, addend: 0x0, symName: '__ZN72_$LT$std..sys..fs..unix..FilePermissions$u20$as$u20$core..fmt..Debug$GT$3fmt17h1019df7ad955ea41E', symObjAddr: 0x47A9C, symBinAddr: 0x1005214E0, symSize: 0x6C }
  - { offset: 0x85847, size: 0x8, addend: 0x0, symName: '__ZN61_$LT$std..sys..fs..unix..File$u20$as$u20$core..fmt..Debug$GT$3fmt17hc503f7f05f8e739dE', symObjAddr: 0x442CC, symBinAddr: 0x10051DD54, symSize: 0x224 }
  - { offset: 0x85CF4, size: 0x8, addend: 0x0, symName: '__ZN61_$LT$std..sys..fs..unix..Mode$u20$as$u20$core..fmt..Debug$GT$3fmt17had8b1bc6e3c019a0E', symObjAddr: 0x444F0, symBinAddr: 0x10051DF78, symSize: 0x304 }
  - { offset: 0x85D44, size: 0x8, addend: 0x0, symName: '__ZN64_$LT$std..sys..fs..unix..ReadDir$u20$as$u20$core..fmt..Debug$GT$3fmt17h87d3fe7a6818f8e3E', symObjAddr: 0x45D00, symBinAddr: 0x10051F788, symSize: 0x2C }
  - { offset: 0x85F00, size: 0x8, addend: 0x0, symName: '__ZN65_$LT$std..sys..fs..unix..Dir$u20$as$u20$core..ops..drop..Drop$GT$4drop17hcb7a996d2264cba6E', symObjAddr: 0x45FC8, symBinAddr: 0x10051FA50, symSize: 0xC8 }
  - { offset: 0x85FD8, size: 0x8, addend: 0x0, symName: '__ZN65_$LT$std..sys..fs..unix..FileType$u20$as$u20$core..fmt..Debug$GT$3fmt17haaa85c75c8f62fe8E', symObjAddr: 0x46090, symBinAddr: 0x10051FB18, symSize: 0x6C }
  - { offset: 0x85FFA, size: 0x8, addend: 0x0, symName: '__ZN67_$LT$std..sys..fs..unix..DirBuilder$u20$as$u20$core..fmt..Debug$GT$3fmt17hf1fac95b0f5d87aaE', symObjAddr: 0x465F4, symBinAddr: 0x100520038, symSize: 0x6C }
  - { offset: 0x8601C, size: 0x8, addend: 0x0, symName: '__ZN68_$LT$std..sys..fs..unix..OpenOptions$u20$as$u20$core..fmt..Debug$GT$3fmt17h898822d6cba511ebE', symObjAddr: 0x469A8, symBinAddr: 0x1005203EC, symSize: 0x120 }
  - { offset: 0x8603E, size: 0x8, addend: 0x0, symName: '__ZN72_$LT$std..sys..fs..unix..File$u20$as$u20$std..os..fd..raw..FromRawFd$GT$11from_raw_fd17he10446cbdf855aa9E', symObjAddr: 0x47A70, symBinAddr: 0x1005214B4, symSize: 0x2C }
  - { offset: 0x86077, size: 0x8, addend: 0x0, symName: '__ZN72_$LT$std..sys..fs..unix..File$u20$as$u20$std..os..fd..raw..FromRawFd$GT$11from_raw_fd17he10446cbdf855aa9E', symObjAddr: 0x47A70, symBinAddr: 0x1005214B4, symSize: 0x2C }
  - { offset: 0x860B5, size: 0x8, addend: 0x0, symName: '__ZN86_$LT$std..sys..fs..unix..ReadDir$u20$as$u20$core..iter..traits..iterator..Iterator$GT$4next17ha990f874487cc6d0E', symObjAddr: 0x4B658, symBinAddr: 0x100525058, symSize: 0x138 }
  - { offset: 0x8631A, size: 0x8, addend: 0x0, symName: '__ZN77_$LT$std..sys..fs..unix..cfm..CachedFileMetadata$u20$as$u20$std..io..Read$GT$11read_to_end17h48c2af677e2cba77E', symObjAddr: 0x48BC8, symBinAddr: 0x10052260C, symSize: 0x28 }
  - { offset: 0x8634C, size: 0x8, addend: 0x0, symName: '__ZN77_$LT$std..sys..fs..unix..cfm..CachedFileMetadata$u20$as$u20$std..io..Read$GT$13read_vectored17hd883fce2b0c727bbE', symObjAddr: 0x48BF0, symBinAddr: 0x100522634, symSize: 0x54 }
  - { offset: 0x864A2, size: 0x8, addend: 0x0, symName: '__ZN77_$LT$std..sys..fs..unix..cfm..CachedFileMetadata$u20$as$u20$std..io..Read$GT$14read_to_string17h68d44d581e1ac9b8E', symObjAddr: 0x48C44, symBinAddr: 0x100522688, symSize: 0x28 }
  - { offset: 0x864D4, size: 0x8, addend: 0x0, symName: '__ZN77_$LT$std..sys..fs..unix..cfm..CachedFileMetadata$u20$as$u20$std..io..Read$GT$4read17h9c4d3dff3b3f51f8E', symObjAddr: 0x48C6C, symBinAddr: 0x1005226B0, symSize: 0x54 }
  - { offset: 0x8662A, size: 0x8, addend: 0x0, symName: '__ZN77_$LT$std..sys..fs..unix..cfm..CachedFileMetadata$u20$as$u20$std..io..Read$GT$8read_buf17h71bd1d55c2ccee78E', symObjAddr: 0x48CC0, symBinAddr: 0x100522704, symSize: 0x78 }
  - { offset: 0x8682A, size: 0x8, addend: 0x0, symName: '__ZN78_$LT$std..sys..fs..unix..cfm..CachedFileMetadata$u20$as$u20$std..io..Write$GT$14write_vectored17h8fb1b17dc2ceee58E', symObjAddr: 0x4963C, symBinAddr: 0x100523080, symSize: 0x54 }
  - { offset: 0x86956, size: 0x8, addend: 0x0, symName: '__ZN78_$LT$std..sys..fs..unix..cfm..CachedFileMetadata$u20$as$u20$std..io..Write$GT$5write17h2243a509cb7ffa62E', symObjAddr: 0x49690, symBinAddr: 0x1005230D4, symSize: 0x54 }
  - { offset: 0x86A85, size: 0x8, addend: 0x0, symName: __ZN3std3sys2fs10remove_dir17h552a181016571588E, symObjAddr: 0x10EC0, symBinAddr: 0x1004EF424, symSize: 0xC0 }
  - { offset: 0x86BB0, size: 0x8, addend: 0x0, symName: __ZN3std3sys2fs11remove_file17h7e1e3b5edf9300cfE, symObjAddr: 0x10F80, symBinAddr: 0x1004EF4E4, symSize: 0xC0 }
  - { offset: 0x86CDB, size: 0x8, addend: 0x0, symName: __ZN3std3sys2fs12canonicalize17h492da406009913c9E, symObjAddr: 0x11040, symBinAddr: 0x1004EF5A4, symSize: 0xB0 }
  - { offset: 0x86D7E, size: 0x8, addend: 0x0, symName: __ZN3std3sys2fs14remove_dir_all17hbfd453b0b71db4beE, symObjAddr: 0x110F0, symBinAddr: 0x1004EF654, symSize: 0x118 }
  - { offset: 0x86F0E, size: 0x8, addend: 0x0, symName: '__ZN3std3sys2fs15set_permissions28_$u7b$$u7b$closure$u7d$$u7d$17hd994cbe05ddfc3f2E', symObjAddr: 0x112E0, symBinAddr: 0x1004EF844, symSize: 0x58 }
  - { offset: 0x86FC0, size: 0x8, addend: 0x0, symName: __ZN3std3sys2fs15set_permissions17h53f07fa3d0f24f56E, symObjAddr: 0x11208, symBinAddr: 0x1004EF76C, symSize: 0xD8 }
  - { offset: 0x87100, size: 0x8, addend: 0x0, symName: __ZN3std3sys2fs16symlink_metadata17h0bd01883de3202beE, symObjAddr: 0x11338, symBinAddr: 0x1004EF89C, symSize: 0x128 }
  - { offset: 0x8728A, size: 0x8, addend: 0x0, symName: '__ZN3std3sys2fs18set_times_nofollow28_$u7b$$u7b$closure$u7d$$u7d$17h5b2ef677d2c58413E', symObjAddr: 0x11614, symBinAddr: 0x1004EFB78, symSize: 0x13C }
  - { offset: 0x873D8, size: 0x8, addend: 0x0, symName: __ZN3std3sys2fs18set_times_nofollow17h3cea2176a70bf8d5E, symObjAddr: 0x11460, symBinAddr: 0x1004EF9C4, symSize: 0x1B4 }
  - { offset: 0x875AB, size: 0x8, addend: 0x0, symName: __ZN3std3sys2fs24set_permissions_nofollow17h00f6fa4fc9c54587E, symObjAddr: 0x11750, symBinAddr: 0x1004EFCB4, symSize: 0x128 }
  - { offset: 0x877E9, size: 0x8, addend: 0x0, symName: __ZN3std3sys2fs4copy17hce5ce82b8f3447a3E, symObjAddr: 0x11878, symBinAddr: 0x1004EFDDC, symSize: 0x46C }
  - { offset: 0x8822A, size: 0x8, addend: 0x0, symName: __ZN3std3sys2fs6exists17h8099169af9c0853aE, symObjAddr: 0x12C04, symBinAddr: 0x1004F1168, symSize: 0x21C }
  - { offset: 0x88604, size: 0x8, addend: 0x0, symName: '__ZN3std3sys2fs6rename28_$u7b$$u7b$closure$u7d$$u7d$28_$u7b$$u7b$closure$u7d$$u7d$17h5dc92385c1e91fffE', symObjAddr: 0x13000, symBinAddr: 0x1004F1564, symSize: 0x38 }
  - { offset: 0x886A1, size: 0x8, addend: 0x0, symName: '__ZN3std3sys2fs6rename28_$u7b$$u7b$closure$u7d$$u7d$17hda0c5c48e0354737E', symObjAddr: 0x12F44, symBinAddr: 0x1004F14A8, symSize: 0xBC }
  - { offset: 0x887C7, size: 0x8, addend: 0x0, symName: __ZN3std3sys2fs6rename17h1947a38a3c8eadb8E, symObjAddr: 0x12E20, symBinAddr: 0x1004F1384, symSize: 0x124 }
  - { offset: 0x88989, size: 0x8, addend: 0x0, symName: '__ZN3std3sys2fs7symlink28_$u7b$$u7b$closure$u7d$$u7d$28_$u7b$$u7b$closure$u7d$$u7d$17h173c00bde80983d5E', symObjAddr: 0x13218, symBinAddr: 0x1004F177C, symSize: 0x38 }
  - { offset: 0x88A26, size: 0x8, addend: 0x0, symName: '__ZN3std3sys2fs7symlink28_$u7b$$u7b$closure$u7d$$u7d$17h992a25e7c3ce51e2E', symObjAddr: 0x1315C, symBinAddr: 0x1004F16C0, symSize: 0xBC }
  - { offset: 0x88B4C, size: 0x8, addend: 0x0, symName: __ZN3std3sys2fs7symlink17he522eec08f7c87d3E, symObjAddr: 0x13038, symBinAddr: 0x1004F159C, symSize: 0x124 }
  - { offset: 0x88CE8, size: 0x8, addend: 0x0, symName: __ZN3std3sys2fs8metadata17h3303869632d2d10aE, symObjAddr: 0x13250, symBinAddr: 0x1004F17B4, symSize: 0x128 }
  - { offset: 0x88E5F, size: 0x8, addend: 0x0, symName: __ZN3std3sys2fs8read_dir17h2438d3100ab30d0aE, symObjAddr: 0x13378, symBinAddr: 0x1004F18DC, symSize: 0x194 }
  - { offset: 0x8917E, size: 0x8, addend: 0x0, symName: '__ZN3std3sys2fs9hard_link28_$u7b$$u7b$closure$u7d$$u7d$28_$u7b$$u7b$closure$u7d$$u7d$17h3c8a444995eef444E', symObjAddr: 0x13704, symBinAddr: 0x1004F1C68, symSize: 0x48 }
  - { offset: 0x8921B, size: 0x8, addend: 0x0, symName: '__ZN3std3sys2fs9hard_link28_$u7b$$u7b$closure$u7d$$u7d$17h8f322808ff90b486E', symObjAddr: 0x1363C, symBinAddr: 0x1004F1BA0, symSize: 0xC8 }
  - { offset: 0x89341, size: 0x8, addend: 0x0, symName: __ZN3std3sys2fs9hard_link17h86cc759c89630364E, symObjAddr: 0x1350C, symBinAddr: 0x1004F1A70, symSize: 0x130 }
  - { offset: 0x894DD, size: 0x8, addend: 0x0, symName: __ZN3std3sys2fs9read_link17ha76e966aa253fe67E, symObjAddr: 0x1374C, symBinAddr: 0x1004F1CB0, symSize: 0xB0 }
  - { offset: 0x89593, size: 0x8, addend: 0x0, symName: '__ZN3std3sys2fs9set_times28_$u7b$$u7b$closure$u7d$$u7d$17h0e1801a4019a3152E', symObjAddr: 0x139B0, symBinAddr: 0x1004F1F14, symSize: 0x13C }
  - { offset: 0x896E1, size: 0x8, addend: 0x0, symName: __ZN3std3sys2fs9set_times17h0da497df45039436E, symObjAddr: 0x137FC, symBinAddr: 0x1004F1D60, symSize: 0x1B4 }
  - { offset: 0x89B82, size: 0x8, addend: 0x0, symName: __ZN3std3sys6os_str5bytes5Slice21check_public_boundary9slow_path17haf67f6a6d4360af5E, symObjAddr: 0x184E8, symBinAddr: 0x1004F5A74, symSize: 0x13C }
  - { offset: 0x89D07, size: 0x8, addend: 0x0, symName: '__ZN69_$LT$std..sys..os_str..bytes..Slice$u20$as$u20$core..fmt..Display$GT$3fmt17h74b63fc8ddff523aE', symObjAddr: 0x46B68, symBinAddr: 0x1005205AC, symSize: 0xA0 }
  - { offset: 0x89D4D, size: 0x8, addend: 0x0, symName: '__ZN67_$LT$std..sys..os_str..bytes..Buf$u20$as$u20$core..fmt..Display$GT$3fmt17h700d841df252ec22E', symObjAddr: 0x46660, symBinAddr: 0x1005200A4, symSize: 0xAC }
  - { offset: 0x89EB4, size: 0x8, addend: 0x0, symName: __ZN3std3sys2fd4unix8FileDesc11read_buf_at17h33680b6642ac1446E, symObjAddr: 0x106E8, symBinAddr: 0x1004EEC4C, symSize: 0x7C }
  - { offset: 0x8A04A, size: 0x8, addend: 0x0, symName: __ZN3std3sys2fd4unix8FileDesc11read_to_end17hbe57068ced001ef0E, symObjAddr: 0x10764, symBinAddr: 0x1004EECC8, symSize: 0x1EC }
  - { offset: 0x8A414, size: 0x8, addend: 0x0, symName: __ZN3std3sys2fd4unix8FileDesc11set_cloexec17h95f52c01c57daeb5E, symObjAddr: 0x10950, symBinAddr: 0x1004EEEB4, symSize: 0x40 }
  - { offset: 0x8A4C7, size: 0x8, addend: 0x0, symName: __ZN3std3sys2fd4unix8FileDesc13read_vectored17h68da9906bee56680E, symObjAddr: 0x10990, symBinAddr: 0x1004EEEF4, symSize: 0x54 }
  - { offset: 0x8A5BA, size: 0x8, addend: 0x0, symName: __ZN3std3sys2fd4unix8FileDesc14write_vectored17h66f25b0ed50c590aE, symObjAddr: 0x109E4, symBinAddr: 0x1004EEF48, symSize: 0x54 }
  - { offset: 0x8A6B0, size: 0x8, addend: 0x0, symName: __ZN3std3sys2fd4unix8FileDesc15set_nonblocking17h9f5416c0b6a49e66E, symObjAddr: 0x10A38, symBinAddr: 0x1004EEF9C, symSize: 0x88 }
  - { offset: 0x8A79A, size: 0x8, addend: 0x0, symName: __ZN3std3sys2fd4unix8FileDesc16read_vectored_at17hee708066da1c996aE, symObjAddr: 0x10AC0, symBinAddr: 0x1004EF024, symSize: 0x11C }
  - { offset: 0x8A976, size: 0x8, addend: 0x0, symName: __ZN3std3sys2fd4unix8FileDesc17write_vectored_at17h209c6ed62fad032fE, symObjAddr: 0x10BDC, symBinAddr: 0x1004EF140, symSize: 0x11C }
  - { offset: 0x8AB44, size: 0x8, addend: 0x0, symName: __ZN3std3sys2fd4unix8FileDesc4read17h9fb8ca4a82ef9ed2E, symObjAddr: 0x10CF8, symBinAddr: 0x1004EF25C, symSize: 0x54 }
  - { offset: 0x8AC37, size: 0x8, addend: 0x0, symName: __ZN3std3sys2fd4unix8FileDesc5write17h5abfebd3d8094399E, symObjAddr: 0x10D4C, symBinAddr: 0x1004EF2B0, symSize: 0x54 }
  - { offset: 0x8AD2D, size: 0x8, addend: 0x0, symName: __ZN3std3sys2fd4unix8FileDesc7read_at17h6477bc6814e80616E, symObjAddr: 0x10DA0, symBinAddr: 0x1004EF304, symSize: 0x54 }
  - { offset: 0x8AE20, size: 0x8, addend: 0x0, symName: __ZN3std3sys2fd4unix8FileDesc8read_buf17hb60126afe7cd3e59E, symObjAddr: 0x10DF4, symBinAddr: 0x1004EF358, symSize: 0x78 }
  - { offset: 0x8AFB6, size: 0x8, addend: 0x0, symName: __ZN3std3sys2fd4unix8FileDesc8write_at17h69ae6f2da4a26fd4E, symObjAddr: 0x10E6C, symBinAddr: 0x1004EF3D0, symSize: 0x54 }
  - { offset: 0x8B29B, size: 0x8, addend: 0x0, symName: '__ZN65_$LT$std..sys..fd..unix..FileDesc$u20$as$u20$core..fmt..Debug$GT$3fmt17h41f9ccf4ee4beed5E', symObjAddr: 0x45F88, symBinAddr: 0x10051FA10, symSize: 0x40 }
  - { offset: 0x8B2C4, size: 0x8, addend: 0x0, symName: '__ZN73_$LT$std..sys..fd..unix..FileDesc$u20$as$u20$std..os..fd..owned..AsFd$GT$5as_fd17h348e88b013074626E', symObjAddr: 0x4801C, symBinAddr: 0x100521A60, symSize: 0x8 }
  - { offset: 0x8B2DC, size: 0x8, addend: 0x0, symName: '__ZN73_$LT$std..sys..fd..unix..FileDesc$u20$as$u20$std..os..fd..owned..AsFd$GT$5as_fd17h348e88b013074626E', symObjAddr: 0x4801C, symBinAddr: 0x100521A60, symSize: 0x8 }
  - { offset: 0x8B2F2, size: 0x8, addend: 0x0, symName: '__ZN73_$LT$std..sys..fd..unix..FileDesc$u20$as$u20$std..os..fd..owned..AsFd$GT$5as_fd17h348e88b013074626E', symObjAddr: 0x4801C, symBinAddr: 0x100521A60, symSize: 0x8 }
  - { offset: 0x8B342, size: 0x8, addend: 0x0, symName: '__ZN62_$LT$std..sys..stdio..unix..Stdin$u20$as$u20$std..io..Read$GT$13read_vectored17hcf3bf030b15e66f8E', symObjAddr: 0x44DC4, symBinAddr: 0x10051E84C, symSize: 0x54 }
  - { offset: 0x8B41F, size: 0x8, addend: 0x0, symName: '__ZN62_$LT$std..sys..stdio..unix..Stdin$u20$as$u20$std..io..Read$GT$4read17ha5a42532174ec05bE', symObjAddr: 0x44E18, symBinAddr: 0x10051E8A0, symSize: 0x54 }
  - { offset: 0x8B4FC, size: 0x8, addend: 0x0, symName: '__ZN62_$LT$std..sys..stdio..unix..Stdin$u20$as$u20$std..io..Read$GT$8read_buf17h2584db765ce8252fE', symObjAddr: 0x44E6C, symBinAddr: 0x10051E8F4, symSize: 0x78 }
  - { offset: 0x8B69D, size: 0x8, addend: 0x0, symName: '__ZN64_$LT$std..sys..stdio..unix..Stderr$u20$as$u20$std..io..Write$GT$14write_vectored17hc26c9570776fba98E', symObjAddr: 0x45D2C, symBinAddr: 0x10051F7B4, symSize: 0x54 }
  - { offset: 0x8B77C, size: 0x8, addend: 0x0, symName: '__ZN64_$LT$std..sys..stdio..unix..Stderr$u20$as$u20$std..io..Write$GT$17is_write_vectored17hed13078469538b7dE', symObjAddr: 0x45D80, symBinAddr: 0x10051F808, symSize: 0x8 }
  - { offset: 0x8B796, size: 0x8, addend: 0x0, symName: '__ZN64_$LT$std..sys..stdio..unix..Stderr$u20$as$u20$std..io..Write$GT$5flush17h95d09f74336d566aE', symObjAddr: 0x45D88, symBinAddr: 0x10051F810, symSize: 0x8 }
  - { offset: 0x8B7B0, size: 0x8, addend: 0x0, symName: '__ZN64_$LT$std..sys..stdio..unix..Stderr$u20$as$u20$std..io..Write$GT$5write17h5f9903b30d7b8655E', symObjAddr: 0x45D90, symBinAddr: 0x10051F818, symSize: 0x54 }
  - { offset: 0x8B8B0, size: 0x8, addend: 0x0, symName: '__ZN64_$LT$std..sys..stdio..unix..Stdout$u20$as$u20$std..io..Write$GT$14write_vectored17h033095f4db7c181aE', symObjAddr: 0x45DE4, symBinAddr: 0x10051F86C, symSize: 0x54 }
  - { offset: 0x8B98F, size: 0x8, addend: 0x0, symName: '__ZN64_$LT$std..sys..stdio..unix..Stdout$u20$as$u20$std..io..Write$GT$5write17h794a49829cf9a3cbE', symObjAddr: 0x45E38, symBinAddr: 0x10051F8C0, symSize: 0x54 }
  - { offset: 0x8BB76, size: 0x8, addend: 0x0, symName: '__ZN3std3sys4sync8once_box16OnceBox$LT$T$GT$10initialize17h1da039d2bc801872E', symObjAddr: 0x182A0, symBinAddr: 0x100597858, symSize: 0xE4 }
  - { offset: 0x8BD17, size: 0x8, addend: 0x0, symName: '__ZN3std3sys4sync8once_box16OnceBox$LT$T$GT$10initialize17h2199f5ca8ed5db7aE', symObjAddr: 0x18384, symBinAddr: 0x10059793C, symSize: 0xB4 }
  - { offset: 0x8C044, size: 0x8, addend: 0x0, symName: '__ZN79_$LT$std..sys..sync..mutex..pthread..Mutex$u20$as$u20$core..ops..drop..Drop$GT$4drop17hfd3991f31f1300d8E', symObjAddr: 0x49FF0, symBinAddr: 0x100523A34, symSize: 0x58 }
  - { offset: 0x8C19F, size: 0x8, addend: 0x0, symName: __ZN3std3sys4sync4once5queue4Once4call17hc6c0ce36cc04c0d4E, symObjAddr: 0x17680, symBinAddr: 0x1005970E4, symSize: 0x218 }
  - { offset: 0x8C45B, size: 0x8, addend: 0x0, symName: __ZN3std3sys4sync4once5queue4Once4wait17h4422ff665d2d969eE, symObjAddr: 0x17898, symBinAddr: 0x1005972FC, symSize: 0x1E0 }
  - { offset: 0x8CAC3, size: 0x8, addend: 0x0, symName: '__ZN82_$LT$std..sys..sync..once..queue..WaiterQueue$u20$as$u20$core..ops..drop..Drop$GT$4drop17h14d8bb8a23cfd1d3E', symObjAddr: 0x4B130, symBinAddr: 0x100524B74, symSize: 0xE0 }
  - { offset: 0x8CCD4, size: 0x8, addend: 0x0, symName: __ZN3std3sys4sync4once5queue4wait17hf8e25f6f82fb4d73E, symObjAddr: 0x17A78, symBinAddr: 0x1004F5518, symSize: 0x184 }
  - { offset: 0x8D2BF, size: 0x8, addend: 0x0, symName: __ZN3std3sys4sync6rwlock5queue6RwLock12unlock_queue17hef9c5f93c7985851E, symObjAddr: 0x17C10, symBinAddr: 0x1004F56B0, symSize: 0x1CC }
  - { offset: 0x8D967, size: 0x8, addend: 0x0, symName: __ZN3std3sys4sync6rwlock5queue6RwLock14downgrade_slow17hc5deae8f742ed6cfE, symObjAddr: 0x17DDC, symBinAddr: 0x1005974DC, symSize: 0x10C }
  - { offset: 0x8DD67, size: 0x8, addend: 0x0, symName: __ZN3std3sys4sync6rwlock5queue6RwLock14lock_contended17hd83147a2a2d578b5E, symObjAddr: 0x17EE8, symBinAddr: 0x1005975E8, symSize: 0x1F0 }
  - { offset: 0x8E326, size: 0x8, addend: 0x0, symName: __ZN3std3sys4sync6rwlock5queue6RwLock16unlock_contended17haa5e3ce6a448d2fcE, symObjAddr: 0x180D8, symBinAddr: 0x1005977D8, symSize: 0x40 }
  - { offset: 0x8E3F5, size: 0x8, addend: 0x0, symName: __ZN3std3sys4sync6rwlock5queue6RwLock21read_unlock_contended17h9e1b2273a360b3e9E, symObjAddr: 0x18118, symBinAddr: 0x100597818, symSize: 0x40 }
  - { offset: 0x8E414, size: 0x8, addend: 0x0, symName: __ZN3std3sys4sync6rwlock5queue6RwLock21read_unlock_contended17h9e1b2273a360b3e9E, symObjAddr: 0x18118, symBinAddr: 0x100597818, symSize: 0x40 }
  - { offset: 0x8E42A, size: 0x8, addend: 0x0, symName: __ZN3std3sys4sync6rwlock5queue6RwLock21read_unlock_contended17h9e1b2273a360b3e9E, symObjAddr: 0x18118, symBinAddr: 0x100597818, symSize: 0x40 }
  - { offset: 0x8E671, size: 0x8, addend: 0x0, symName: __ZN3std3sys4sync6rwlock5queue10write_lock17hcb873c9237d374bcE, symObjAddr: 0x17BFC, symBinAddr: 0x1004F569C, symSize: 0x14 }
  - { offset: 0x8E6C8, size: 0x8, addend: 0x0, symName: __ZN3std3sys4sync6rwlock5queue9read_lock17h60b05aa7e4c529e0E, symObjAddr: 0x18158, symBinAddr: 0x1004F587C, symSize: 0x20 }
  - { offset: 0x8E6EF, size: 0x8, addend: 0x0, symName: '__ZN83_$LT$std..sys..sync..rwlock..queue..PanicGuard$u20$as$u20$core..ops..drop..Drop$GT$4drop17ha09e551c66825125E', symObjAddr: 0x4B3B0, symBinAddr: 0x10059B538, symSize: 0x44 }
  - { offset: 0x8E742, size: 0x8, addend: 0x0, symName: __ZN3std3sys4sync14thread_parking6darwin6Parker6unpark17hc430bfee6c337945E, symObjAddr: 0x17660, symBinAddr: 0x1004F54F8, symSize: 0x20 }
  - { offset: 0x8E75A, size: 0x8, addend: 0x0, symName: __ZN3std3sys4sync14thread_parking6darwin6Parker6unpark17hc430bfee6c337945E, symObjAddr: 0x17660, symBinAddr: 0x1004F54F8, symSize: 0x20 }
  - { offset: 0x8E76F, size: 0x8, addend: 0x0, symName: __ZN3std3sys4sync14thread_parking6darwin6Parker6unpark17hc430bfee6c337945E, symObjAddr: 0x17660, symBinAddr: 0x1004F54F8, symSize: 0x20 }
  - { offset: 0x8E7D4, size: 0x8, addend: 0x0, symName: '__ZN88_$LT$std..sys..sync..thread_parking..darwin..Parker$u20$as$u20$core..ops..drop..Drop$GT$4drop17hb1125b36822261e0E', symObjAddr: 0x4B900, symBinAddr: 0x100525300, symSize: 0x8 }
  - { offset: 0x8E817, size: 0x8, addend: 0x0, symName: __ZN3std3sys4sync7condvar7pthread7Condvar12wait_timeout17h8b0fe4a5dac0ad24E, symObjAddr: 0x18178, symBinAddr: 0x1004F589C, symSize: 0x128 }
  - { offset: 0x8EA1B, size: 0x8, addend: 0x0, symName: __ZN3std3sys6thread4unix6Thread3new12thread_start17h98270432b6aefc44E, symObjAddr: 0x18694, symBinAddr: 0x1004F5C20, symSize: 0xB8 }
  - { offset: 0x8EBDC, size: 0x8, addend: 0x0, symName: __ZN3std3sys6thread4unix6Thread3new17ha4dc051ea8066dadE, symObjAddr: 0x1874C, symBinAddr: 0x1004F5CD8, symSize: 0x274 }
  - { offset: 0x8EEB8, size: 0x8, addend: 0x0, symName: __ZN3std3sys6thread4unix6Thread4join17h82f8748e58b69807E, symObjAddr: 0x189C0, symBinAddr: 0x1004F5F4C, symSize: 0x90 }
  - { offset: 0x8EF0E, size: 0x8, addend: 0x0, symName: __ZN3std3sys6thread4unix8set_name17h805034f35b41927bE, symObjAddr: 0x18A50, symBinAddr: 0x1004F5FDC, symSize: 0x60 }
  - { offset: 0x8F06C, size: 0x8, addend: 0x0, symName: '__ZN72_$LT$std..sys..thread..unix..Thread$u20$as$u20$core..ops..drop..Drop$GT$4drop17h705579a93016ef73E', symObjAddr: 0x47B08, symBinAddr: 0x10052154C, symSize: 0x8 }
  - { offset: 0x8F0E4, size: 0x8, addend: 0x0, symName: '__ZN65_$LT$std..sys..args..common..Args$u20$as$u20$core..fmt..Debug$GT$3fmt17h48e84920be117e1fE', symObjAddr: 0x45F10, symBinAddr: 0x10051F998, symSize: 0x78 }
  - { offset: 0x8F18C, size: 0x8, addend: 0x0, symName: '__ZN3std3sys11personality3gcc14find_eh_action28_$u7b$$u7b$closure$u7d$$u7d$17h34cc09c8637bc414E', symObjAddr: 0xF0FC, symBinAddr: 0x1004EE264, symSize: 0xC }
  - { offset: 0x8F1A0, size: 0x8, addend: 0x0, symName: '__ZN3std3sys11personality3gcc14find_eh_action28_$u7b$$u7b$closure$u7d$$u7d$17h52ef941b5da817b9E', symObjAddr: 0xF108, symBinAddr: 0x1004EE270, symSize: 0xC }
  - { offset: 0x8F1EC, size: 0x8, addend: 0x0, symName: _rust_eh_personality, symObjAddr: 0x4F3E4, symBinAddr: 0x100528DE4, symSize: 0x378 }
  - { offset: 0x8F52E, size: 0x8, addend: 0x0, symName: __ZN3std3sys11personality5dwarf2eh19read_encoded_offset17hecb2797128d099b6E, symObjAddr: 0xF114, symBinAddr: 0x1004EE27C, symSize: 0x148 }
  - { offset: 0x8F6A0, size: 0x8, addend: 0x0, symName: __ZN3std3sys6random19hashmap_random_keys17hcbba1d7764c9b72eE, symObjAddr: 0x18624, symBinAddr: 0x1004F5BB0, symSize: 0x70 }
  - { offset: 0x8F718, size: 0x8, addend: 0x0, symName: '__ZN3std3sys9backtrace10_print_fmt28_$u7b$$u7b$closure$u7d$$u7d$17h35022260730485a3E', symObjAddr: 0x1B448, symBinAddr: 0x1004F89D4, symSize: 0x24 }
  - { offset: 0x8F742, size: 0x8, addend: 0x0, symName: '__ZN3std3sys9backtrace10_print_fmt28_$u7b$$u7b$closure$u7d$$u7d$17h740f996d5eb9c70dE', symObjAddr: 0x1B46C, symBinAddr: 0x1004F89F8, symSize: 0x134 }
  - { offset: 0x8F863, size: 0x8, addend: 0x0, symName: '__ZN3std3sys9backtrace10_print_fmt28_$u7b$$u7b$closure$u7d$$u7d$28_$u7b$$u7b$closure$u7d$$u7d$17hc9a460fdd5f3b0faE', symObjAddr: 0x1B5A0, symBinAddr: 0x1004F8B2C, symSize: 0x25C }
  - { offset: 0x8FAB0, size: 0x8, addend: 0x0, symName: __ZN3std3sys9backtrace13BacktraceLock5print17h765d16e49e83c7b3E, symObjAddr: 0x1B7FC, symBinAddr: 0x1004F8D88, symSize: 0x54 }
  - { offset: 0x8FAE2, size: 0x8, addend: 0x0, symName: __ZN3std3sys9backtrace15output_filename17hde44ee24b1416b05E, symObjAddr: 0x1B850, symBinAddr: 0x1004F8DDC, symSize: 0xF4 }
  - { offset: 0x8FC53, size: 0x8, addend: 0x0, symName: __ZN3std3sys9backtrace26__rust_end_short_backtrace17h55629ed76aaa9d26E, symObjAddr: 0x1B944, symBinAddr: 0x1004F8ED0, symSize: 0xC }
  - { offset: 0x8FC6D, size: 0x8, addend: 0x0, symName: __ZN3std3sys9backtrace26__rust_end_short_backtrace17hb36e422b0fd5ee95E, symObjAddr: 0x1B950, symBinAddr: 0x1004F8EDC, symSize: 0xC }
  - { offset: 0x8FC87, size: 0x8, addend: 0x0, symName: __ZN3std3sys9backtrace4lock17hbd44f6947d8c1202E, symObjAddr: 0x1B95C, symBinAddr: 0x1004F8EE8, symSize: 0x70 }
  - { offset: 0x8FE03, size: 0x8, addend: 0x0, symName: '__ZN98_$LT$std..sys..backtrace..BacktraceLock..print..DisplayBacktrace$u20$as$u20$core..fmt..Display$GT$3fmt17h2808c764b780ef77E', symObjAddr: 0x4CA28, symBinAddr: 0x100526428, symSize: 0x210 }
  - { offset: 0x9032B, size: 0x8, addend: 0x0, symName: __RNvCsiGVaDesi5rv_7___rustc11___rdl_alloc, symObjAddr: 0x60, symBinAddr: 0x1004DF484, symSize: 0x6C }
  - { offset: 0x903AD, size: 0x8, addend: 0x0, symName: __RNvCsiGVaDesi5rv_7___rustc13___rdl_dealloc, symObjAddr: 0xD8, symBinAddr: 0x1004DF4F0, symSize: 0x4 }
  - { offset: 0x903CC, size: 0x8, addend: 0x0, symName: __RNvCsiGVaDesi5rv_7___rustc13___rdl_dealloc, symObjAddr: 0xD8, symBinAddr: 0x1004DF4F0, symSize: 0x4 }
  - { offset: 0x903DF, size: 0x8, addend: 0x0, symName: __RNvCsiGVaDesi5rv_7___rustc13___rdl_realloc, symObjAddr: 0xDC, symBinAddr: 0x1004DF4F4, symSize: 0xB0 }
  - { offset: 0x904BC, size: 0x8, addend: 0x0, symName: __RNvCsiGVaDesi5rv_7___rustc18___rdl_alloc_zeroed, symObjAddr: 0x268, symBinAddr: 0x1004DF680, symSize: 0x90 }
  - { offset: 0x90568, size: 0x8, addend: 0x0, symName: __RNvCsiGVaDesi5rv_7___rustc26___rust_alloc_error_handler, symObjAddr: 0x3B4, symBinAddr: 0x100595B64, symSize: 0x18 }
  - { offset: 0x90584, size: 0x8, addend: 0x0, symName: __ZN3std5alloc20set_alloc_error_hook17hfd8673bea91ff48dE, symObjAddr: 0x1F830, symBinAddr: 0x1004FCB20, symSize: 0x10 }
  - { offset: 0x905A3, size: 0x8, addend: 0x0, symName: __ZN3std5alloc20set_alloc_error_hook17hfd8673bea91ff48dE, symObjAddr: 0x1F830, symBinAddr: 0x1004FCB20, symSize: 0x10 }
  - { offset: 0x905B9, size: 0x8, addend: 0x0, symName: __ZN3std5alloc20set_alloc_error_hook17hfd8673bea91ff48dE, symObjAddr: 0x1F830, symBinAddr: 0x1004FCB20, symSize: 0x10 }
  - { offset: 0x905CD, size: 0x8, addend: 0x0, symName: __ZN3std5alloc24default_alloc_error_hook17h2b4d51b2dd4dcaf1E, symObjAddr: 0x1F840, symBinAddr: 0x1004FCB30, symSize: 0x140 }
  - { offset: 0x9081A, size: 0x8, addend: 0x0, symName: __ZN3std5alloc8rust_oom17hf0243909770106f8E, symObjAddr: 0x1F980, symBinAddr: 0x100597C8C, symSize: 0x2C }
  - { offset: 0x9086A, size: 0x8, addend: 0x0, symName: __RNvCsiGVaDesi5rv_7___rustc12___rust_abort, symObjAddr: 0xCC, symBinAddr: 0x100595B58, symSize: 0xC }
  - { offset: 0x90884, size: 0x8, addend: 0x0, symName: __ZN3std2rt15handle_rt_panic17h6511fed2c9fb6b23E, symObjAddr: 0xC0C4, symBinAddr: 0x100595DD0, symSize: 0x44 }
  - { offset: 0x90918, size: 0x8, addend: 0x0, symName: __ZN3std2rt19lang_start_internal17h1e9a2dfabf97dcbeE, symObjAddr: 0xC108, symBinAddr: 0x1004EB270, symSize: 0x6D4 }
  - { offset: 0x914C7, size: 0x8, addend: 0x0, symName: __ZN3std2rt7cleanup17h69aa537ccc5a42a1E, symObjAddr: 0xC7DC, symBinAddr: 0x1004EB944, symSize: 0x60 }
  - { offset: 0x914EC, size: 0x8, addend: 0x0, symName: __ZN3std2rt7cleanup17h69aa537ccc5a42a1E, symObjAddr: 0xC7DC, symBinAddr: 0x1004EB944, symSize: 0x60 }
  - { offset: 0x91501, size: 0x8, addend: 0x0, symName: __ZN3std2rt7cleanup17h69aa537ccc5a42a1E, symObjAddr: 0xC7DC, symBinAddr: 0x1004EB944, symSize: 0x60 }
  - { offset: 0x91516, size: 0x8, addend: 0x0, symName: __ZN3std2rt7cleanup17h69aa537ccc5a42a1E, symObjAddr: 0xC7DC, symBinAddr: 0x1004EB944, symSize: 0x60 }
  - { offset: 0x915E9, size: 0x8, addend: 0x0, symName: __ZN3std2io5error14repr_bitpacked4Repr3new17h1bfbe2274b240c12E, symObjAddr: 0x97BC, symBinAddr: 0x1004E8B78, symSize: 0x4C }
  - { offset: 0x917AA, size: 0x8, addend: 0x0, symName: __ZN3std2io5error14repr_bitpacked11decode_repr17hc96b606458a83b32E, symObjAddr: 0x975C, symBinAddr: 0x1004E8B18, symSize: 0x60 }
  - { offset: 0x91850, size: 0x8, addend: 0x0, symName: __ZN3std2io5error5Error3new17h18d25a0c70c5a783E, symObjAddr: 0x9808, symBinAddr: 0x1004E8BC4, symSize: 0x78 }
  - { offset: 0x9191B, size: 0x8, addend: 0x0, symName: __ZN3std2io5error5Error3new17hf8df74465e562d23E, symObjAddr: 0x9880, symBinAddr: 0x1004E8C3C, symSize: 0x120 }
  - { offset: 0x91CF7, size: 0x8, addend: 0x0, symName: __ZN3std2io5error5Error4_new17h8a795f64155a4157E, symObjAddr: 0x99A0, symBinAddr: 0x1004E8D5C, symSize: 0x7C }
  - { offset: 0x91F0C, size: 0x8, addend: 0x0, symName: '__ZN3std2io5error83_$LT$impl$u20$core..fmt..Debug$u20$for$u20$std..io..error..repr_bitpacked..Repr$GT$3fmt17he34953692231bc05E', symObjAddr: 0x9A1C, symBinAddr: 0x1004E8DD8, symSize: 0x294 }
  - { offset: 0x9217A, size: 0x8, addend: 0x0, symName: '__ZN58_$LT$std..io..error..Error$u20$as$u20$core..fmt..Debug$GT$3fmt17h3cb1a241d7d607a2E', symObjAddr: 0x34404, symBinAddr: 0x10050E4BC, symSize: 0x4 }
  - { offset: 0x92195, size: 0x8, addend: 0x0, symName: '__ZN60_$LT$std..io..error..Error$u20$as$u20$core..error..Error$GT$5cause17hc81d9bf05c7d4f18E', symObjAddr: 0x41D90, symBinAddr: 0x10051B818, symSize: 0x38 }
  - { offset: 0x921B4, size: 0x8, addend: 0x0, symName: '__ZN60_$LT$std..io..error..Error$u20$as$u20$core..error..Error$GT$5cause17hc81d9bf05c7d4f18E', symObjAddr: 0x41D90, symBinAddr: 0x10051B818, symSize: 0x38 }
  - { offset: 0x921DD, size: 0x8, addend: 0x0, symName: '__ZN60_$LT$std..io..error..Error$u20$as$u20$core..error..Error$GT$6source17hd750fefe2f1ad6c0E', symObjAddr: 0x41DC8, symBinAddr: 0x10051B850, symSize: 0x38 }
  - { offset: 0x921FC, size: 0x8, addend: 0x0, symName: '__ZN60_$LT$std..io..error..Error$u20$as$u20$core..error..Error$GT$6source17hd750fefe2f1ad6c0E', symObjAddr: 0x41DC8, symBinAddr: 0x10051B850, symSize: 0x38 }
  - { offset: 0x9222C, size: 0x8, addend: 0x0, symName: '__ZN60_$LT$std..io..error..Error$u20$as$u20$core..fmt..Display$GT$3fmt17hf9e57e9711138685E', symObjAddr: 0x41E00, symBinAddr: 0x10051B888, symSize: 0x208 }
  - { offset: 0x924A2, size: 0x8, addend: 0x0, symName: '__ZN62_$LT$std..io..error..ErrorKind$u20$as$u20$core..fmt..Debug$GT$3fmt17hc274c5835978fd90E', symObjAddr: 0x44AEC, symBinAddr: 0x10051E574, symSize: 0x28 }
  - { offset: 0x924D8, size: 0x8, addend: 0x0, symName: '__ZN64_$LT$std..io..error..ErrorKind$u20$as$u20$core..fmt..Display$GT$3fmt17h90ae512b8dce82ceE', symObjAddr: 0x45AAC, symBinAddr: 0x10051F534, symSize: 0x28 }
  - { offset: 0x92511, size: 0x8, addend: 0x0, symName: '__ZN96_$LT$std..io..error..Error$u20$as$u20$core..convert..From$LT$alloc..ffi..c_str..NulError$GT$$GT$4from17h3951f9841dd3c505E', symObjAddr: 0x4C668, symBinAddr: 0x100526068, symSize: 0x2C }
  - { offset: 0x9252F, size: 0x8, addend: 0x0, symName: '__ZN96_$LT$std..io..error..Error$u20$as$u20$core..convert..From$LT$alloc..ffi..c_str..NulError$GT$$GT$4from17h3951f9841dd3c505E', symObjAddr: 0x4C668, symBinAddr: 0x100526068, symSize: 0x2C }
  - { offset: 0x92544, size: 0x8, addend: 0x0, symName: '__ZN96_$LT$std..io..error..Error$u20$as$u20$core..convert..From$LT$alloc..ffi..c_str..NulError$GT$$GT$4from17h3951f9841dd3c505E', symObjAddr: 0x4C668, symBinAddr: 0x100526068, symSize: 0x2C }
  - { offset: 0x925E6, size: 0x8, addend: 0x0, symName: '__ZN111_$LT$std..io..buffered..bufwriter..BufWriter$LT$W$GT$..flush_buf..BufGuard$u20$as$u20$core..ops..drop..Drop$GT$4drop17h63b6fd25bb5ea15aE', symObjAddr: 0x838, symBinAddr: 0x1004DFBF4, symSize: 0x5C }
  - { offset: 0x92771, size: 0x8, addend: 0x0, symName: '__ZN3std2io8buffered9bufwriter18BufWriter$LT$W$GT$9flush_buf8BufGuard9remaining17h90c61d47e6804e65E', symObjAddr: 0xAF04, symBinAddr: 0x1004EA0B0, symSize: 0x38 }
  - { offset: 0x92862, size: 0x8, addend: 0x0, symName: '__ZN3std2io8buffered9bufwriter18BufWriter$LT$W$GT$10write_cold17h2584a9e098ec3badE', symObjAddr: 0xAB14, symBinAddr: 0x100595BC0, symSize: 0xEC }
  - { offset: 0x92AB3, size: 0x8, addend: 0x0, symName: '__ZN3std2io8buffered9bufwriter18BufWriter$LT$W$GT$14write_all_cold17hf5086244887fb433E', symObjAddr: 0xAC00, symBinAddr: 0x100595CAC, symSize: 0x124 }
  - { offset: 0x92CF2, size: 0x8, addend: 0x0, symName: '__ZN3std2io8buffered9bufwriter18BufWriter$LT$W$GT$9flush_buf17h1daa875c40956790E', symObjAddr: 0xAD24, symBinAddr: 0x1004E9ED0, symSize: 0x1E0 }
  - { offset: 0x9324E, size: 0x8, addend: 0x0, symName: '__ZN81_$LT$std..io..buffered..bufwriter..WriterPanicked$u20$as$u20$core..fmt..Debug$GT$3fmt17h884542a586acb04dE', symObjAddr: 0x4A5A0, symBinAddr: 0x100523FE4, symSize: 0xA8 }
  - { offset: 0x932F9, size: 0x8, addend: 0x0, symName: '__ZN83_$LT$std..io..buffered..bufwriter..WriterPanicked$u20$as$u20$core..fmt..Display$GT$3fmt17h239fab54ecb1dfa2E', symObjAddr: 0x4B210, symBinAddr: 0x100524C54, symSize: 0x14 }
  - { offset: 0x93342, size: 0x8, addend: 0x0, symName: __ZN3std2io8buffered9bufreader6buffer6Buffer9backshift17ha9492132320259ccE, symObjAddr: 0xAAA8, symBinAddr: 0x1004E9E64, symSize: 0x6C }
  - { offset: 0x93622, size: 0x8, addend: 0x0, symName: '__ZN82_$LT$std..io..buffered..bufreader..BufReader$LT$R$GT$$u20$as$u20$std..io..Read$GT$4read17hb7fb5eb5d4c9f3fbE', symObjAddr: 0x4AD50, symBinAddr: 0x100524794, symSize: 0x1E4 }
  - { offset: 0x93976, size: 0x8, addend: 0x0, symName: '__ZN82_$LT$std..io..buffered..bufreader..BufReader$LT$R$GT$$u20$as$u20$std..io..Read$GT$8read_buf17h6bc6ff4f7cd7f9acE', symObjAddr: 0x4AF34, symBinAddr: 0x100524978, symSize: 0x1BC }
  - { offset: 0x93FFA, size: 0x8, addend: 0x0, symName: '__ZN93_$LT$std..io..buffered..linewritershim..LineWriterShim$LT$W$GT$$u20$as$u20$std..io..Write$GT$14write_vectored17h3d4073e2b3bfc933E', symObjAddr: 0x4BC20, symBinAddr: 0x100525620, symSize: 0x410 }
  - { offset: 0x949D8, size: 0x8, addend: 0x0, symName: '__ZN56_$LT$std..io..Guard$u20$as$u20$core..ops..drop..Drop$GT$4drop17hf9ce2ab6cd2249f1E', symObjAddr: 0x339C0, symBinAddr: 0x10050DA78, symSize: 0xC }
  - { offset: 0x94A18, size: 0x8, addend: 0x0, symName: __ZN3std2io5Write18write_all_vectored17hb3a059cd43489c0bE, symObjAddr: 0x9184, symBinAddr: 0x1004E8540, symSize: 0x1B4 }
  - { offset: 0x94C5B, size: 0x8, addend: 0x0, symName: __ZN3std2io5Write9write_all17h2d8764ee298032edE, symObjAddr: 0x9338, symBinAddr: 0x1004E86F4, symSize: 0xAC }
  - { offset: 0x94D26, size: 0x8, addend: 0x0, symName: __ZN3std2io5Write9write_fmt17h13539701a7d3290cE, symObjAddr: 0x93E4, symBinAddr: 0x1004E87A0, symSize: 0x128 }
  - { offset: 0x94F86, size: 0x8, addend: 0x0, symName: __ZN3std2io5Write9write_fmt17haa5a1b8b37884759E, symObjAddr: 0x950C, symBinAddr: 0x1004E88C8, symSize: 0x128 }
  - { offset: 0x951E6, size: 0x8, addend: 0x0, symName: __ZN3std2io5Write9write_fmt17hc5b2a4d160c11c86E, symObjAddr: 0x9634, symBinAddr: 0x1004E89F0, symSize: 0x128 }
  - { offset: 0x954AF, size: 0x8, addend: 0x0, symName: __ZN3std2io10IoSliceMut10into_slice17hc4219f5a86c86793E, symObjAddr: 0x833C, symBinAddr: 0x1004E76F8, symSize: 0x4 }
  - { offset: 0x954F1, size: 0x8, addend: 0x0, symName: '__ZN58_$LT$std..io..stdio..StdinRaw$u20$as$u20$std..io..Read$GT$10read_exact17h7ae0ef54acee16ccE', symObjAddr: 0x34440, symBinAddr: 0x10050E4F8, symSize: 0xD4 }
  - { offset: 0x95616, size: 0x8, addend: 0x0, symName: '__ZN58_$LT$std..io..stdio..StdinRaw$u20$as$u20$std..io..Read$GT$11read_to_end17hdf19ea0c693bfc81E', symObjAddr: 0x34514, symBinAddr: 0x10050E5CC, symSize: 0x40 }
  - { offset: 0x95655, size: 0x8, addend: 0x0, symName: '__ZN58_$LT$std..io..stdio..StdinRaw$u20$as$u20$std..io..Read$GT$13read_vectored17h252da068332fe92aE', symObjAddr: 0x34554, symBinAddr: 0x10050E60C, symSize: 0x74 }
  - { offset: 0x9573D, size: 0x8, addend: 0x0, symName: '__ZN58_$LT$std..io..stdio..StdinRaw$u20$as$u20$std..io..Read$GT$14read_buf_exact17h90e9f29ca9dc16ccE', symObjAddr: 0x345C8, symBinAddr: 0x10050E680, symSize: 0xE0 }
  - { offset: 0x95935, size: 0x8, addend: 0x0, symName: '__ZN58_$LT$std..io..stdio..StdinRaw$u20$as$u20$std..io..Read$GT$14read_to_string17h5d0b45a0ffefad70E', symObjAddr: 0x346A8, symBinAddr: 0x10050E760, symSize: 0xEC }
  - { offset: 0x95B52, size: 0x8, addend: 0x0, symName: '__ZN58_$LT$std..io..stdio..StdinRaw$u20$as$u20$std..io..Read$GT$4read17h0fde4fb2af5d12afE', symObjAddr: 0x34794, symBinAddr: 0x10050E84C, symSize: 0x74 }
  - { offset: 0x95C3A, size: 0x8, addend: 0x0, symName: '__ZN58_$LT$std..io..stdio..StdinRaw$u20$as$u20$std..io..Read$GT$8read_buf17hb6617e1ce3efbc48E', symObjAddr: 0x34808, symBinAddr: 0x10050E8C0, symSize: 0x88 }
  - { offset: 0x95E3E, size: 0x8, addend: 0x0, symName: __ZN3std2io5stdio18set_output_capture17h2c44cf2baf117129E, symObjAddr: 0xA0A0, symBinAddr: 0x1004E945C, symSize: 0x104 }
  - { offset: 0x960FE, size: 0x8, addend: 0x0, symName: __ZN3std2io5stdio22try_set_output_capture17hcc620f798a57f54dE, symObjAddr: 0xA1A4, symBinAddr: 0x1004E9560, symSize: 0xEC }
  - { offset: 0x963B5, size: 0x8, addend: 0x0, symName: '__ZN57_$LT$std..io..stdio..Stderr$u20$as$u20$std..io..Write$GT$14write_vectored17h0296f1a7d7aabc22E', symObjAddr: 0x33C5C, symBinAddr: 0x10050DD14, symSize: 0x24 }
  - { offset: 0x963D0, size: 0x8, addend: 0x0, symName: '__ZN57_$LT$std..io..stdio..Stderr$u20$as$u20$std..io..Write$GT$18write_all_vectored17hb582d7b904a24bd0E', symObjAddr: 0x33C80, symBinAddr: 0x10050DD38, symSize: 0x24 }
  - { offset: 0x963EB, size: 0x8, addend: 0x0, symName: '__ZN57_$LT$std..io..stdio..Stderr$u20$as$u20$std..io..Write$GT$5flush17h0ccaf204074c1346E', symObjAddr: 0x33CA4, symBinAddr: 0x10050DD5C, symSize: 0x84 }
  - { offset: 0x96661, size: 0x8, addend: 0x0, symName: '__ZN57_$LT$std..io..stdio..Stderr$u20$as$u20$std..io..Write$GT$5write17h0ce7a011951a8d3dE', symObjAddr: 0x33D28, symBinAddr: 0x10050DDE0, symSize: 0x24 }
  - { offset: 0x9667C, size: 0x8, addend: 0x0, symName: '__ZN57_$LT$std..io..stdio..Stderr$u20$as$u20$std..io..Write$GT$9write_all17hc6a78897ef10ccd9E', symObjAddr: 0x33D4C, symBinAddr: 0x10050DE04, symSize: 0x9C }
  - { offset: 0x96892, size: 0x8, addend: 0x0, symName: '__ZN57_$LT$std..io..stdio..Stderr$u20$as$u20$std..io..Write$GT$9write_fmt17h92f52c151aeb23ffE', symObjAddr: 0x33DE8, symBinAddr: 0x10050DEA0, symSize: 0x24 }
  - { offset: 0x968A7, size: 0x8, addend: 0x0, symName: __ZN3std2io5stdio23attempt_print_to_stderr17h18f44411f4b9484cE, symObjAddr: 0xA290, symBinAddr: 0x1004E964C, symSize: 0xD4 }
  - { offset: 0x96B1D, size: 0x8, addend: 0x0, symName: __ZN3std2io5stdio31print_to_buffer_if_capture_used17hfbefa38127d5a0ffE, symObjAddr: 0xA364, symBinAddr: 0x1004E9720, symSize: 0x21C }
  - { offset: 0x9723E, size: 0x8, addend: 0x0, symName: __ZN3std2io5stdio5Stdin4lock17hd65b72b7faf0096cE, symObjAddr: 0xA580, symBinAddr: 0x1004E993C, symSize: 0x68 }
  - { offset: 0x9739C, size: 0x8, addend: 0x0, symName: __ZN3std2io5stdio5Stdin5lines17hdc86894e1a818f71E, symObjAddr: 0xA5E8, symBinAddr: 0x1004E99A4, symSize: 0x68 }
  - { offset: 0x97501, size: 0x8, addend: 0x0, symName: __ZN3std2io5stdio5Stdin9read_line17h678a38b65e13c600E, symObjAddr: 0xA650, symBinAddr: 0x1004E9A0C, symSize: 0x15C }
  - { offset: 0x979E0, size: 0x8, addend: 0x0, symName: '__ZN62_$LT$std..io..stdio..StdinLock$u20$as$u20$std..io..BufRead$GT$10read_until17h445d65764d784c6eE', symObjAddr: 0x44B4C, symBinAddr: 0x10051E5D4, symSize: 0xC }
  - { offset: 0x979FF, size: 0x8, addend: 0x0, symName: '__ZN62_$LT$std..io..stdio..StdinLock$u20$as$u20$std..io..BufRead$GT$10read_until17h445d65764d784c6eE', symObjAddr: 0x44B4C, symBinAddr: 0x10051E5D4, symSize: 0xC }
  - { offset: 0x97A3F, size: 0x8, addend: 0x0, symName: '__ZN62_$LT$std..io..stdio..StdinLock$u20$as$u20$std..io..BufRead$GT$7consume17hd101607044c42ad3E', symObjAddr: 0x44B58, symBinAddr: 0x10051E5E0, symSize: 0x1C }
  - { offset: 0x97A5E, size: 0x8, addend: 0x0, symName: '__ZN62_$LT$std..io..stdio..StdinLock$u20$as$u20$std..io..BufRead$GT$7consume17hd101607044c42ad3E', symObjAddr: 0x44B58, symBinAddr: 0x10051E5E0, symSize: 0x1C }
  - { offset: 0x97ACB, size: 0x8, addend: 0x0, symName: '__ZN62_$LT$std..io..stdio..StdinLock$u20$as$u20$std..io..BufRead$GT$8fill_buf17h5b27459e32404dbbE', symObjAddr: 0x44B74, symBinAddr: 0x10051E5FC, symSize: 0xD0 }
  - { offset: 0x97CAE, size: 0x8, addend: 0x0, symName: '__ZN62_$LT$std..io..stdio..StdinLock$u20$as$u20$std..io..BufRead$GT$9read_line17h10e6e1ea6d7cfd8dE', symObjAddr: 0x44C44, symBinAddr: 0x10051E6CC, symSize: 0xC4 }
  - { offset: 0x97EE9, size: 0x8, addend: 0x0, symName: __ZN3std2io5stdio5stdin17hd4e93bd1400924c2E, symObjAddr: 0xA7AC, symBinAddr: 0x1004E9B68, symSize: 0x38 }
  - { offset: 0x97F22, size: 0x8, addend: 0x0, symName: __ZN3std2io5stdio5stdin17hd4e93bd1400924c2E, symObjAddr: 0xA7AC, symBinAddr: 0x1004E9B68, symSize: 0x38 }
  - { offset: 0x97F38, size: 0x8, addend: 0x0, symName: __ZN3std2io5stdio5stdin17hd4e93bd1400924c2E, symObjAddr: 0xA7AC, symBinAddr: 0x1004E9B68, symSize: 0x38 }
  - { offset: 0x97F4D, size: 0x8, addend: 0x0, symName: __ZN3std2io5stdio5stdin17hd4e93bd1400924c2E, symObjAddr: 0xA7AC, symBinAddr: 0x1004E9B68, symSize: 0x38 }
  - { offset: 0x97F63, size: 0x8, addend: 0x0, symName: __ZN3std2io5stdio5stdin17hd4e93bd1400924c2E, symObjAddr: 0xA7AC, symBinAddr: 0x1004E9B68, symSize: 0x38 }
  - { offset: 0x97F79, size: 0x8, addend: 0x0, symName: __ZN3std2io5stdio5stdin17hd4e93bd1400924c2E, symObjAddr: 0xA7AC, symBinAddr: 0x1004E9B68, symSize: 0x38 }
  - { offset: 0x97F8E, size: 0x8, addend: 0x0, symName: __ZN3std2io5stdio5stdin17hd4e93bd1400924c2E, symObjAddr: 0xA7AC, symBinAddr: 0x1004E9B68, symSize: 0x38 }
  - { offset: 0x97FAE, size: 0x8, addend: 0x0, symName: __ZN3std2io5stdio6Stderr4lock17h434a31c17f1db40eE, symObjAddr: 0xA7E4, symBinAddr: 0x1004E9BA0, symSize: 0xE4 }
  - { offset: 0x98299, size: 0x8, addend: 0x0, symName: '__ZN57_$LT$std..io..stdio..Stdout$u20$as$u20$std..io..Write$GT$14write_vectored17he765bbffcb6a2206E', symObjAddr: 0x33E0C, symBinAddr: 0x10050DEC4, symSize: 0x24 }
  - { offset: 0x982B4, size: 0x8, addend: 0x0, symName: '__ZN57_$LT$std..io..stdio..Stdout$u20$as$u20$std..io..Write$GT$18write_all_vectored17h5310bee1f761fe21E', symObjAddr: 0x33E30, symBinAddr: 0x10050DEE8, symSize: 0x9C }
  - { offset: 0x984CA, size: 0x8, addend: 0x0, symName: '__ZN57_$LT$std..io..stdio..Stdout$u20$as$u20$std..io..Write$GT$5flush17hbf7ba91c9230cae2E', symObjAddr: 0x33ECC, symBinAddr: 0x10050DF84, symSize: 0x24 }
  - { offset: 0x984E5, size: 0x8, addend: 0x0, symName: '__ZN57_$LT$std..io..stdio..Stdout$u20$as$u20$std..io..Write$GT$5write17h179d5c9daf87139aE', symObjAddr: 0x33EF0, symBinAddr: 0x10050DFA8, symSize: 0xA4 }
  - { offset: 0x986FB, size: 0x8, addend: 0x0, symName: '__ZN57_$LT$std..io..stdio..Stdout$u20$as$u20$std..io..Write$GT$9write_all17h6b0cf6bc109bfc8aE', symObjAddr: 0x33F94, symBinAddr: 0x10050E04C, symSize: 0x9C }
  - { offset: 0x98911, size: 0x8, addend: 0x0, symName: '__ZN57_$LT$std..io..stdio..Stdout$u20$as$u20$std..io..Write$GT$9write_fmt17h7e3f40a45440f82dE', symObjAddr: 0x34030, symBinAddr: 0x10050E0E8, symSize: 0x24 }
  - { offset: 0x98926, size: 0x8, addend: 0x0, symName: __ZN3std2io5stdio6_print17h51e79c31889ace57E, symObjAddr: 0xA8C8, symBinAddr: 0x1004E9C84, symSize: 0xE0 }
  - { offset: 0x98A26, size: 0x8, addend: 0x0, symName: __ZN3std2io5stdio6stdout17h3d81cba9c5beb322E, symObjAddr: 0xA9A8, symBinAddr: 0x1004E9D64, symSize: 0x38 }
  - { offset: 0x98A58, size: 0x8, addend: 0x0, symName: __ZN3std2io5stdio6stdout17h3d81cba9c5beb322E, symObjAddr: 0xA9A8, symBinAddr: 0x1004E9D64, symSize: 0x38 }
  - { offset: 0x98A6E, size: 0x8, addend: 0x0, symName: __ZN3std2io5stdio6stdout17h3d81cba9c5beb322E, symObjAddr: 0xA9A8, symBinAddr: 0x1004E9D64, symSize: 0x38 }
  - { offset: 0x98A83, size: 0x8, addend: 0x0, symName: __ZN3std2io5stdio6stdout17h3d81cba9c5beb322E, symObjAddr: 0xA9A8, symBinAddr: 0x1004E9D64, symSize: 0x38 }
  - { offset: 0x98A99, size: 0x8, addend: 0x0, symName: __ZN3std2io5stdio6stdout17h3d81cba9c5beb322E, symObjAddr: 0xA9A8, symBinAddr: 0x1004E9D64, symSize: 0x38 }
  - { offset: 0x98AAF, size: 0x8, addend: 0x0, symName: __ZN3std2io5stdio6stdout17h3d81cba9c5beb322E, symObjAddr: 0xA9A8, symBinAddr: 0x1004E9D64, symSize: 0x38 }
  - { offset: 0x98AC4, size: 0x8, addend: 0x0, symName: __ZN3std2io5stdio6stdout17h3d81cba9c5beb322E, symObjAddr: 0xA9A8, symBinAddr: 0x1004E9D64, symSize: 0x38 }
  - { offset: 0x98AEC, size: 0x8, addend: 0x0, symName: __ZN3std2io5stdio7_eprint17hc94c7b2e935d9346E, symObjAddr: 0xA9E0, symBinAddr: 0x1004E9D9C, symSize: 0xC8 }
  - { offset: 0x98B6F, size: 0x8, addend: 0x0, symName: '__ZN60_$LT$std..io..stdio..StdoutRaw$u20$as$u20$std..io..Write$GT$14write_vectored17h835f893aa28d81b0E', symObjAddr: 0x4233C, symBinAddr: 0x10051BDC4, symSize: 0x100 }
  - { offset: 0x98CBA, size: 0x8, addend: 0x0, symName: '__ZN60_$LT$std..io..stdio..StdoutRaw$u20$as$u20$std..io..Write$GT$18write_all_vectored17hdb1c6013b92368f9E', symObjAddr: 0x4243C, symBinAddr: 0x10051BEC4, symSize: 0x1C8 }
  - { offset: 0x98F1F, size: 0x8, addend: 0x0, symName: '__ZN60_$LT$std..io..stdio..StdoutRaw$u20$as$u20$std..io..Write$GT$5write17hd8b16b03936cd9d8E', symObjAddr: 0x42604, symBinAddr: 0x10051C08C, symSize: 0x78 }
  - { offset: 0x99008, size: 0x8, addend: 0x0, symName: '__ZN60_$LT$std..io..stdio..StdoutRaw$u20$as$u20$std..io..Write$GT$9write_all17hcd4ae758d8ef2ecaE', symObjAddr: 0x4267C, symBinAddr: 0x10051C104, symSize: 0xBC }
  - { offset: 0x990F6, size: 0x8, addend: 0x0, symName: '__ZN60_$LT$std..io..stdio..StdoutRaw$u20$as$u20$std..io..Write$GT$9write_fmt17h1b4b174300b2e638E', symObjAddr: 0x42738, symBinAddr: 0x10051C1C0, symSize: 0x138 }
  - { offset: 0x993F3, size: 0x8, addend: 0x0, symName: '__ZN55_$LT$std..io..stdio..Stdin$u20$as$u20$std..io..Read$GT$10read_exact17hf3b9931aea8ed2bcE', symObjAddr: 0x331D0, symBinAddr: 0x10050D288, symSize: 0xE8 }
  - { offset: 0x99681, size: 0x8, addend: 0x0, symName: '__ZN55_$LT$std..io..stdio..Stdin$u20$as$u20$std..io..Read$GT$11read_to_end17h9577bd8bb7812036E', symObjAddr: 0x332B8, symBinAddr: 0x10050D370, symSize: 0x1E0 }
  - { offset: 0x99BD4, size: 0x8, addend: 0x0, symName: '__ZN55_$LT$std..io..stdio..Stdin$u20$as$u20$std..io..Read$GT$13read_vectored17hd632dd5c9668b1b1E', symObjAddr: 0x33498, symBinAddr: 0x10050D550, symSize: 0xD8 }
  - { offset: 0x99E62, size: 0x8, addend: 0x0, symName: '__ZN55_$LT$std..io..stdio..Stdin$u20$as$u20$std..io..Read$GT$14read_buf_exact17h02dbcda37bfe99daE', symObjAddr: 0x33570, symBinAddr: 0x10050D628, symSize: 0xD8 }
  - { offset: 0x9A0F0, size: 0x8, addend: 0x0, symName: '__ZN55_$LT$std..io..stdio..Stdin$u20$as$u20$std..io..Read$GT$14read_to_string17h39bdc22f276ecf86E', symObjAddr: 0x33648, symBinAddr: 0x10050D700, symSize: 0xE8 }
  - { offset: 0x9A37E, size: 0x8, addend: 0x0, symName: '__ZN55_$LT$std..io..stdio..Stdin$u20$as$u20$std..io..Read$GT$4read17h6c22221e159f4e95E', symObjAddr: 0x33730, symBinAddr: 0x10050D7E8, symSize: 0xF0 }
  - { offset: 0x9A60D, size: 0x8, addend: 0x0, symName: '__ZN55_$LT$std..io..stdio..Stdin$u20$as$u20$std..io..Read$GT$8read_buf17h47ddf954fbe01908E', symObjAddr: 0x33820, symBinAddr: 0x10050D8D8, symSize: 0xD0 }
  - { offset: 0x9A8CD, size: 0x8, addend: 0x0, symName: '__ZN59_$LT$std..io..stdio..StdinLock$u20$as$u20$std..io..Read$GT$10read_exact17hbd5d3c92ae05baceE', symObjAddr: 0x35264, symBinAddr: 0x10050F31C, symSize: 0x194 }
  - { offset: 0x9AC7C, size: 0x8, addend: 0x0, symName: '__ZN59_$LT$std..io..stdio..StdinLock$u20$as$u20$std..io..Read$GT$11read_to_end17h745ccdd6b56a9cc2E', symObjAddr: 0x353F8, symBinAddr: 0x10050F4B0, symSize: 0x130 }
  - { offset: 0x9AF5E, size: 0x8, addend: 0x0, symName: '__ZN59_$LT$std..io..stdio..StdinLock$u20$as$u20$std..io..Read$GT$13read_vectored17h729442a5295ad7d1E', symObjAddr: 0x35528, symBinAddr: 0x10050F5E0, symSize: 0x284 }
  - { offset: 0x9B43C, size: 0x8, addend: 0x0, symName: '__ZN59_$LT$std..io..stdio..StdinLock$u20$as$u20$std..io..Read$GT$14read_buf_exact17h5c7e10b87d1aa278E', symObjAddr: 0x357AC, symBinAddr: 0x10050F864, symSize: 0x18C }
  - { offset: 0x9B8FA, size: 0x8, addend: 0x0, symName: '__ZN59_$LT$std..io..stdio..StdinLock$u20$as$u20$std..io..Read$GT$14read_to_string17h960c48ccf6486676E', symObjAddr: 0x35938, symBinAddr: 0x10050F9F0, symSize: 0x318 }
  - { offset: 0x9C250, size: 0x8, addend: 0x0, symName: '__ZN59_$LT$std..io..stdio..StdinLock$u20$as$u20$std..io..Read$GT$4read17h44e309953f694d22E', symObjAddr: 0x35C50, symBinAddr: 0x10050FD08, symSize: 0xC }
  - { offset: 0x9C268, size: 0x8, addend: 0x0, symName: '__ZN59_$LT$std..io..stdio..StdinLock$u20$as$u20$std..io..Read$GT$4read17h44e309953f694d22E', symObjAddr: 0x35C50, symBinAddr: 0x10050FD08, symSize: 0xC }
  - { offset: 0x9C292, size: 0x8, addend: 0x0, symName: '__ZN59_$LT$std..io..stdio..StdinLock$u20$as$u20$std..io..Read$GT$8read_buf17h6a0549160273fea9E', symObjAddr: 0x35C5C, symBinAddr: 0x10050FD14, symSize: 0xC }
  - { offset: 0x9C2AA, size: 0x8, addend: 0x0, symName: '__ZN59_$LT$std..io..stdio..StdinLock$u20$as$u20$std..io..Read$GT$8read_buf17h6a0549160273fea9E', symObjAddr: 0x35C5C, symBinAddr: 0x10050FD14, symSize: 0xC }
  - { offset: 0x9C304, size: 0x8, addend: 0x0, symName: '__ZN61_$LT$$RF$std..io..stdio..Stderr$u20$as$u20$std..io..Write$GT$14write_vectored17hcea281b75ec2ac7dE', symObjAddr: 0x42A5C, symBinAddr: 0x10051C4E4, symSize: 0x194 }
  - { offset: 0x9C765, size: 0x8, addend: 0x0, symName: '__ZN61_$LT$$RF$std..io..stdio..Stderr$u20$as$u20$std..io..Write$GT$18write_all_vectored17hf0c10f50c7470588E', symObjAddr: 0x42BF0, symBinAddr: 0x10051C678, symSize: 0xE4 }
  - { offset: 0x9CB2D, size: 0x8, addend: 0x0, symName: '__ZN61_$LT$$RF$std..io..stdio..Stderr$u20$as$u20$std..io..Write$GT$5flush17haab209160bec946eE', symObjAddr: 0x42CD4, symBinAddr: 0x10051C75C, symSize: 0x88 }
  - { offset: 0x9CD8E, size: 0x8, addend: 0x0, symName: '__ZN61_$LT$$RF$std..io..stdio..Stderr$u20$as$u20$std..io..Write$GT$5write17h9717d0e6100c98aeE', symObjAddr: 0x42D5C, symBinAddr: 0x10051C7E4, symSize: 0x108 }
  - { offset: 0x9D185, size: 0x8, addend: 0x0, symName: '__ZN61_$LT$$RF$std..io..stdio..Stderr$u20$as$u20$std..io..Write$GT$9write_all17hb382cc1c55834badE', symObjAddr: 0x42E64, symBinAddr: 0x10051C8EC, symSize: 0xA0 }
  - { offset: 0x9D386, size: 0x8, addend: 0x0, symName: '__ZN61_$LT$$RF$std..io..stdio..Stderr$u20$as$u20$std..io..Write$GT$9write_fmt17h2369a12eefd0cd38E', symObjAddr: 0x42F04, symBinAddr: 0x10051C98C, symSize: 0x190 }
  - { offset: 0x9D7D8, size: 0x8, addend: 0x0, symName: '__ZN61_$LT$std..io..stdio..StderrLock$u20$as$u20$std..io..Write$GT$14write_vectored17h975f0986b4126737E', symObjAddr: 0x435A4, symBinAddr: 0x10051D02C, symSize: 0x134 }
  - { offset: 0x9DA4E, size: 0x8, addend: 0x0, symName: '__ZN61_$LT$std..io..stdio..StderrLock$u20$as$u20$std..io..Write$GT$18write_all_vectored17hd3fb76f04f508e7cE', symObjAddr: 0x436D8, symBinAddr: 0x10051D160, symSize: 0x6C }
  - { offset: 0x9DC34, size: 0x8, addend: 0x0, symName: '__ZN61_$LT$std..io..stdio..StderrLock$u20$as$u20$std..io..Write$GT$5flush17h5c75b0661ae4996cE', symObjAddr: 0x43744, symBinAddr: 0x10051D1CC, symSize: 0x28 }
  - { offset: 0x9DC4C, size: 0x8, addend: 0x0, symName: '__ZN61_$LT$std..io..stdio..StderrLock$u20$as$u20$std..io..Write$GT$5flush17h5c75b0661ae4996cE', symObjAddr: 0x43744, symBinAddr: 0x10051D1CC, symSize: 0x28 }
  - { offset: 0x9DCB1, size: 0x8, addend: 0x0, symName: '__ZN61_$LT$std..io..stdio..StderrLock$u20$as$u20$std..io..Write$GT$5write17hd20a308f5e1d31c4E', symObjAddr: 0x4376C, symBinAddr: 0x10051D1F4, symSize: 0xAC }
  - { offset: 0x9DECE, size: 0x8, addend: 0x0, symName: '__ZN61_$LT$std..io..stdio..StderrLock$u20$as$u20$std..io..Write$GT$9write_all17hf48ad6c7b7298274E', symObjAddr: 0x43818, symBinAddr: 0x10051D2A0, symSize: 0x104 }
  - { offset: 0x9E1A7, size: 0x8, addend: 0x0, symName: '__ZN61_$LT$$RF$std..io..stdio..Stdout$u20$as$u20$std..io..Write$GT$14write_vectored17h1cdd18283997e3beE', symObjAddr: 0x43094, symBinAddr: 0x10051CB1C, symSize: 0xDC }
  - { offset: 0x9E578, size: 0x8, addend: 0x0, symName: '__ZN61_$LT$$RF$std..io..stdio..Stdout$u20$as$u20$std..io..Write$GT$18write_all_vectored17h04c6148ea72cc27fE', symObjAddr: 0x43170, symBinAddr: 0x10051CBF8, symSize: 0xA0 }
  - { offset: 0x9E779, size: 0x8, addend: 0x0, symName: '__ZN61_$LT$$RF$std..io..stdio..Stdout$u20$as$u20$std..io..Write$GT$5flush17hf0acdc7e77440b4bE', symObjAddr: 0x43210, symBinAddr: 0x10051CC98, symSize: 0xBC }
  - { offset: 0x9EB60, size: 0x8, addend: 0x0, symName: '__ZN61_$LT$$RF$std..io..stdio..Stdout$u20$as$u20$std..io..Write$GT$5write17h0586e9792021c7a9E', symObjAddr: 0x432CC, symBinAddr: 0x10051CD54, symSize: 0xA8 }
  - { offset: 0x9ED61, size: 0x8, addend: 0x0, symName: '__ZN61_$LT$$RF$std..io..stdio..Stdout$u20$as$u20$std..io..Write$GT$9write_all17h41c5a9e36a615ddaE', symObjAddr: 0x43374, symBinAddr: 0x10051CDFC, symSize: 0xA0 }
  - { offset: 0x9EF62, size: 0x8, addend: 0x0, symName: '__ZN61_$LT$$RF$std..io..stdio..Stdout$u20$as$u20$std..io..Write$GT$9write_fmt17hb363d279aa3f51beE', symObjAddr: 0x43414, symBinAddr: 0x10051CE9C, symSize: 0x190 }
  - { offset: 0x9F37C, size: 0x8, addend: 0x0, symName: '__ZN58_$LT$std..io..stdio..Stdin$u20$as$u20$core..fmt..Debug$GT$3fmt17h4738ef150c2ba796E', symObjAddr: 0x34408, symBinAddr: 0x10050E4C0, symSize: 0x38 }
  - { offset: 0x9F3EC, size: 0x8, addend: 0x0, symName: '__ZN59_$LT$$RF$std..io..stdio..Stdin$u20$as$u20$std..io..Read$GT$10read_exact17hcd6e3a781b8d7e8aE', symObjAddr: 0x34AEC, symBinAddr: 0x10050EBA4, symSize: 0xEC }
  - { offset: 0x9F67A, size: 0x8, addend: 0x0, symName: '__ZN59_$LT$$RF$std..io..stdio..Stdin$u20$as$u20$std..io..Read$GT$11read_to_end17hdd6818eaee7070ddE', symObjAddr: 0x34BD8, symBinAddr: 0x10050EC90, symSize: 0x1E4 }
  - { offset: 0x9FBCD, size: 0x8, addend: 0x0, symName: '__ZN59_$LT$$RF$std..io..stdio..Stdin$u20$as$u20$std..io..Read$GT$13read_vectored17hc07a9040f4515d92E', symObjAddr: 0x34DBC, symBinAddr: 0x10050EE74, symSize: 0xDC }
  - { offset: 0x9FE5B, size: 0x8, addend: 0x0, symName: '__ZN59_$LT$$RF$std..io..stdio..Stdin$u20$as$u20$std..io..Read$GT$14read_buf_exact17hd3699d144248399fE', symObjAddr: 0x34E98, symBinAddr: 0x10050EF50, symSize: 0xDC }
  - { offset: 0xA00E9, size: 0x8, addend: 0x0, symName: '__ZN59_$LT$$RF$std..io..stdio..Stdin$u20$as$u20$std..io..Read$GT$14read_to_string17h8fd50923dd39ee67E', symObjAddr: 0x34F74, symBinAddr: 0x10050F02C, symSize: 0xEC }
  - { offset: 0xA0377, size: 0x8, addend: 0x0, symName: '__ZN59_$LT$$RF$std..io..stdio..Stdin$u20$as$u20$std..io..Read$GT$4read17hdac67630683f35d5E', symObjAddr: 0x35060, symBinAddr: 0x10050F118, symSize: 0xF4 }
  - { offset: 0xA0606, size: 0x8, addend: 0x0, symName: '__ZN59_$LT$$RF$std..io..stdio..Stdin$u20$as$u20$std..io..Read$GT$8read_buf17h255752b0af9e4fe1E', symObjAddr: 0x35154, symBinAddr: 0x10050F20C, symSize: 0xD4 }
  - { offset: 0xA089C, size: 0x8, addend: 0x0, symName: '__ZN59_$LT$std..io..stdio..Stderr$u20$as$u20$core..fmt..Debug$GT$3fmt17h32ff4ada5cf7ccefE', symObjAddr: 0x3522C, symBinAddr: 0x10050F2E4, symSize: 0x38 }
  - { offset: 0xA08BE, size: 0x8, addend: 0x0, symName: '__ZN59_$LT$std..io..stdio..Stdout$u20$as$u20$core..fmt..Debug$GT$3fmt17hb9514c9b6ae649b5E', symObjAddr: 0x35C68, symBinAddr: 0x10050FD20, symSize: 0x38 }
  - { offset: 0xA0901, size: 0x8, addend: 0x0, symName: '__ZN60_$LT$std..io..stdio..StderrRaw$u20$as$u20$std..io..Write$GT$14write_vectored17h370fc091a24e7275E', symObjAddr: 0x420B0, symBinAddr: 0x10051BB38, symSize: 0x100 }
  - { offset: 0xA0A4C, size: 0x8, addend: 0x0, symName: '__ZN60_$LT$std..io..stdio..StderrRaw$u20$as$u20$std..io..Write$GT$18write_all_vectored17h1ac41068608a3b1dE', symObjAddr: 0x421B0, symBinAddr: 0x10051BC38, symSize: 0x28 }
  - { offset: 0xA0A76, size: 0x8, addend: 0x0, symName: '__ZN60_$LT$std..io..stdio..StderrRaw$u20$as$u20$std..io..Write$GT$5flush17h9cc35090cb3c7f8fE', symObjAddr: 0x421D8, symBinAddr: 0x10051BC60, symSize: 0x8 }
  - { offset: 0xA0A90, size: 0x8, addend: 0x0, symName: '__ZN60_$LT$std..io..stdio..StderrRaw$u20$as$u20$std..io..Write$GT$5write17h97a2a9cbb92492dcE', symObjAddr: 0x421E0, symBinAddr: 0x10051BC68, symSize: 0x78 }
  - { offset: 0xA0B79, size: 0x8, addend: 0x0, symName: '__ZN60_$LT$std..io..stdio..StderrRaw$u20$as$u20$std..io..Write$GT$9write_all17h8bf60895c119a068E', symObjAddr: 0x42258, symBinAddr: 0x10051BCE0, symSize: 0xBC }
  - { offset: 0xA0C67, size: 0x8, addend: 0x0, symName: '__ZN60_$LT$std..io..stdio..StderrRaw$u20$as$u20$std..io..Write$GT$9write_fmt17h984f640a581f27cfE', symObjAddr: 0x42314, symBinAddr: 0x10051BD9C, symSize: 0x28 }
  - { offset: 0xA0D49, size: 0x8, addend: 0x0, symName: '__ZN61_$LT$std..io..stdio..StdoutLock$u20$as$u20$std..io..Write$GT$14write_vectored17h32529798c48b4febE', symObjAddr: 0x4391C, symBinAddr: 0x10051D3A4, symSize: 0x5C }
  - { offset: 0xA0F2F, size: 0x8, addend: 0x0, symName: '__ZN61_$LT$std..io..stdio..StdoutLock$u20$as$u20$std..io..Write$GT$18write_all_vectored17h858ea9141bd80a87E', symObjAddr: 0x43978, symBinAddr: 0x10051D400, symSize: 0x2A4 }
  - { offset: 0xA153F, size: 0x8, addend: 0x0, symName: '__ZN61_$LT$std..io..stdio..StdoutLock$u20$as$u20$std..io..Write$GT$5flush17ha77a866d07dc501fE', symObjAddr: 0x43C1C, symBinAddr: 0x10051D6A4, symSize: 0x5C }
  - { offset: 0xA173B, size: 0x8, addend: 0x0, symName: '__ZN61_$LT$std..io..stdio..StdoutLock$u20$as$u20$std..io..Write$GT$5write17hc9626febb371ac5cE', symObjAddr: 0x43C78, symBinAddr: 0x10051D700, symSize: 0x258 }
  - { offset: 0xA1E59, size: 0x8, addend: 0x0, symName: '__ZN61_$LT$std..io..stdio..StdoutLock$u20$as$u20$std..io..Write$GT$9write_all17h30cd75dfd30ef8ceE', symObjAddr: 0x43ED0, symBinAddr: 0x10051D958, symSize: 0x248 }
  - { offset: 0xA25C4, size: 0x8, addend: 0x0, symName: '__ZN62_$LT$std..io..stdio..StdinLock$u20$as$u20$core..fmt..Debug$GT$3fmt17hda619a71571941cbE', symObjAddr: 0x44B14, symBinAddr: 0x10051E59C, symSize: 0x38 }
  - { offset: 0xA25E6, size: 0x8, addend: 0x0, symName: '__ZN63_$LT$std..io..stdio..StderrLock$u20$as$u20$core..fmt..Debug$GT$3fmt17hc32d90d7eddf27c7E', symObjAddr: 0x45144, symBinAddr: 0x10051EBCC, symSize: 0x38 }
  - { offset: 0xA2608, size: 0x8, addend: 0x0, symName: '__ZN63_$LT$std..io..stdio..StdoutLock$u20$as$u20$core..fmt..Debug$GT$3fmt17h0078f65c26f2443fE', symObjAddr: 0x4517C, symBinAddr: 0x10051EC04, symSize: 0x38 }
  - { offset: 0xA2645, size: 0x8, addend: 0x0, symName: '__ZN3std2io5impls74_$LT$impl$u20$std..io..Write$u20$for$u20$alloc..vec..Vec$LT$u8$C$A$GT$$GT$14write_vectored17hd8cb46654ae804cbE', symObjAddr: 0x9CB0, symBinAddr: 0x1004E906C, symSize: 0x174 }
  - { offset: 0xA28A8, size: 0x8, addend: 0x0, symName: '__ZN3std2io5impls74_$LT$impl$u20$std..io..Write$u20$for$u20$alloc..vec..Vec$LT$u8$C$A$GT$$GT$17is_write_vectored17hea35dc8ad954a4beE', symObjAddr: 0x9E24, symBinAddr: 0x1004E91E0, symSize: 0x8 }
  - { offset: 0xA28D1, size: 0x8, addend: 0x0, symName: '__ZN3std2io5impls74_$LT$impl$u20$std..io..Write$u20$for$u20$alloc..vec..Vec$LT$u8$C$A$GT$$GT$18write_all_vectored17h5386aea50fe8f81bE', symObjAddr: 0x9E2C, symBinAddr: 0x1004E91E8, symSize: 0x168 }
  - { offset: 0xA28FD, size: 0x8, addend: 0x0, symName: '__ZN3std2io5impls74_$LT$impl$u20$std..io..Write$u20$for$u20$alloc..vec..Vec$LT$u8$C$A$GT$$GT$18write_all_vectored17h5386aea50fe8f81bE', symObjAddr: 0x9E2C, symBinAddr: 0x1004E91E8, symSize: 0x168 }
  - { offset: 0xA2913, size: 0x8, addend: 0x0, symName: '__ZN3std2io5impls74_$LT$impl$u20$std..io..Write$u20$for$u20$alloc..vec..Vec$LT$u8$C$A$GT$$GT$18write_all_vectored17h5386aea50fe8f81bE', symObjAddr: 0x9E2C, symBinAddr: 0x1004E91E8, symSize: 0x168 }
  - { offset: 0xA2929, size: 0x8, addend: 0x0, symName: '__ZN3std2io5impls74_$LT$impl$u20$std..io..Write$u20$for$u20$alloc..vec..Vec$LT$u8$C$A$GT$$GT$18write_all_vectored17h5386aea50fe8f81bE', symObjAddr: 0x9E2C, symBinAddr: 0x1004E91E8, symSize: 0x168 }
  - { offset: 0xA293E, size: 0x8, addend: 0x0, symName: '__ZN3std2io5impls74_$LT$impl$u20$std..io..Write$u20$for$u20$alloc..vec..Vec$LT$u8$C$A$GT$$GT$18write_all_vectored17h5386aea50fe8f81bE', symObjAddr: 0x9E2C, symBinAddr: 0x1004E91E8, symSize: 0x168 }
  - { offset: 0xA2B6B, size: 0x8, addend: 0x0, symName: '__ZN3std2io5impls74_$LT$impl$u20$std..io..Write$u20$for$u20$alloc..vec..Vec$LT$u8$C$A$GT$$GT$5flush17hc3fa68f5d1deeab9E', symObjAddr: 0x9F94, symBinAddr: 0x1004E9350, symSize: 0x8 }
  - { offset: 0xA2B86, size: 0x8, addend: 0x0, symName: '__ZN3std2io5impls74_$LT$impl$u20$std..io..Write$u20$for$u20$alloc..vec..Vec$LT$u8$C$A$GT$$GT$5write17he199850ebc1dc8b7E', symObjAddr: 0x9F9C, symBinAddr: 0x1004E9358, symSize: 0x84 }
  - { offset: 0xA2CD6, size: 0x8, addend: 0x0, symName: '__ZN3std2io5impls74_$LT$impl$u20$std..io..Write$u20$for$u20$alloc..vec..Vec$LT$u8$C$A$GT$$GT$9write_all17h90b9e8c1dfa81e96E', symObjAddr: 0xA020, symBinAddr: 0x1004E93DC, symSize: 0x80 }
  - { offset: 0xA2E75, size: 0x8, addend: 0x0, symName: __ZN3std2io10read_until17h19b0697aa7dc4f9eE, symObjAddr: 0x8340, symBinAddr: 0x1004E76FC, symSize: 0x354 }
  - { offset: 0xA3550, size: 0x8, addend: 0x0, symName: __ZN3std2io19default_read_to_end16small_probe_read17h2beb78861d58925eE, symObjAddr: 0x8694, symBinAddr: 0x1004E7A50, symSize: 0xE8 }
  - { offset: 0xA3769, size: 0x8, addend: 0x0, symName: __ZN3std2io19default_read_to_end16small_probe_read17h46e6d98b653b039dE, symObjAddr: 0x877C, symBinAddr: 0x1004E7B38, symSize: 0xEC }
  - { offset: 0xA3982, size: 0x8, addend: 0x0, symName: __ZN3std2io19default_read_to_end16small_probe_read17h5de1f9ac5d68d25aE, symObjAddr: 0x8868, symBinAddr: 0x1004E7C24, symSize: 0xEC }
  - { offset: 0xA3BA9, size: 0x8, addend: 0x0, symName: __ZN3std2io19default_read_to_end16small_probe_read17hc99f2ad3b7812869E, symObjAddr: 0x8954, symBinAddr: 0x1004E7D10, symSize: 0xEC }
  - { offset: 0xA3E09, size: 0x8, addend: 0x0, symName: __ZN3std2io19default_read_to_end17h5619365d67b10693E, symObjAddr: 0x8A40, symBinAddr: 0x1004E7DFC, symSize: 0x22C }
  - { offset: 0xA42AC, size: 0x8, addend: 0x0, symName: __ZN3std2io19default_read_to_end17hc985a6e5608ea08cE, symObjAddr: 0x8C6C, symBinAddr: 0x1004E8028, symSize: 0x250 }
  - { offset: 0xA476B, size: 0x8, addend: 0x0, symName: __ZN3std2io19default_read_to_end17hf4efc2dbd1516746E, symObjAddr: 0x8EBC, symBinAddr: 0x1004E8278, symSize: 0x260 }
  - { offset: 0xA4C28, size: 0x8, addend: 0x0, symName: __ZN3std2io4pipe10PipeReader9try_clone17h26bf5caa545cbab0E, symObjAddr: 0x911C, symBinAddr: 0x1004E84D8, symSize: 0x68 }
  - { offset: 0xA4D23, size: 0x8, addend: 0x0, symName: '__ZN59_$LT$std..io..pipe..PipeReader$u20$as$u20$std..io..Read$GT$11read_to_end17h8d1b9d71b13940d5E', symObjAddr: 0x35228, symBinAddr: 0x10050F2E0, symSize: 0x4 }
  - { offset: 0xA4D44, size: 0x8, addend: 0x0, symName: '__ZN60_$LT$std..io..pipe..PipeWriter$u20$as$u20$std..io..Write$GT$14write_vectored17h933bc385b7360eafE', symObjAddr: 0x42008, symBinAddr: 0x10051BA90, symSize: 0x54 }
  - { offset: 0xA4E58, size: 0x8, addend: 0x0, symName: '__ZN60_$LT$std..io..pipe..PipeWriter$u20$as$u20$std..io..Write$GT$5write17h1495b54f2ea68584E', symObjAddr: 0x4205C, symBinAddr: 0x10051BAE4, symSize: 0x54 }
  - { offset: 0xA4F73, size: 0x8, addend: 0x0, symName: '__ZN63_$LT$$RF$std..io..pipe..PipeReader$u20$as$u20$std..io..Read$GT$11read_to_end17h0c7189161d1a5445E', symObjAddr: 0x44EE4, symBinAddr: 0x10051E96C, symSize: 0x8 }
  - { offset: 0xA4F8D, size: 0x8, addend: 0x0, symName: '__ZN63_$LT$$RF$std..io..pipe..PipeReader$u20$as$u20$std..io..Read$GT$13read_vectored17h4649bfcdc7415f7bE', symObjAddr: 0x44EEC, symBinAddr: 0x10051E974, symSize: 0x58 }
  - { offset: 0xA509C, size: 0x8, addend: 0x0, symName: '__ZN63_$LT$$RF$std..io..pipe..PipeReader$u20$as$u20$std..io..Read$GT$4read17h3da503e454cc44d0E', symObjAddr: 0x44F44, symBinAddr: 0x10051E9CC, symSize: 0x58 }
  - { offset: 0xA51AB, size: 0x8, addend: 0x0, symName: '__ZN63_$LT$$RF$std..io..pipe..PipeReader$u20$as$u20$std..io..Read$GT$8read_buf17hcf042cf023aadcbfE', symObjAddr: 0x44F9C, symBinAddr: 0x10051EA24, symSize: 0x7C }
  - { offset: 0xA5364, size: 0x8, addend: 0x0, symName: '__ZN64_$LT$$RF$std..io..pipe..PipeWriter$u20$as$u20$std..io..Write$GT$14write_vectored17h9a40b9aa2cc09a9eE', symObjAddr: 0x4535C, symBinAddr: 0x10051EDE4, symSize: 0x58 }
  - { offset: 0xA5478, size: 0x8, addend: 0x0, symName: '__ZN64_$LT$$RF$std..io..pipe..PipeWriter$u20$as$u20$std..io..Write$GT$5write17h92ed94a24c352c32E', symObjAddr: 0x453B4, symBinAddr: 0x10051EE3C, symSize: 0x58 }
  - { offset: 0xA57EB, size: 0x8, addend: 0x0, symName: '__ZN81_$LT$std..io..default_write_fmt..Adapter$LT$T$GT$$u20$as$u20$core..fmt..Write$GT$9write_str17h307741c9b6d71990E', symObjAddr: 0x4A648, symBinAddr: 0x10052408C, symSize: 0xD8 }
  - { offset: 0xA58DA, size: 0x8, addend: 0x0, symName: '__ZN81_$LT$std..io..default_write_fmt..Adapter$LT$T$GT$$u20$as$u20$core..fmt..Write$GT$9write_str17h427fc96ba1017a47E', symObjAddr: 0x4A720, symBinAddr: 0x100524164, symSize: 0x50 }
  - { offset: 0xA5905, size: 0x8, addend: 0x0, symName: '__ZN81_$LT$std..io..default_write_fmt..Adapter$LT$T$GT$$u20$as$u20$core..fmt..Write$GT$9write_str17h6181350c8e58758cE', symObjAddr: 0x4A770, symBinAddr: 0x1005241B4, symSize: 0x50 }
  - { offset: 0xA5930, size: 0x8, addend: 0x0, symName: '__ZN81_$LT$std..io..default_write_fmt..Adapter$LT$T$GT$$u20$as$u20$core..fmt..Write$GT$9write_str17h6876f5d03f0b5428E', symObjAddr: 0x4A7C0, symBinAddr: 0x100524204, symSize: 0xD8 }
  - { offset: 0xA5A1F, size: 0x8, addend: 0x0, symName: '__ZN81_$LT$std..io..default_write_fmt..Adapter$LT$T$GT$$u20$as$u20$core..fmt..Write$GT$9write_str17ha6caeba6f4ac94f0E', symObjAddr: 0x4A898, symBinAddr: 0x1005242DC, symSize: 0x80 }
  - { offset: 0xA5B76, size: 0x8, addend: 0x0, symName: '__ZN81_$LT$std..io..default_write_fmt..Adapter$LT$T$GT$$u20$as$u20$core..fmt..Write$GT$9write_str17hf55a3440d6800e4aE', symObjAddr: 0x4A918, symBinAddr: 0x10052435C, symSize: 0xA0 }
  - { offset: 0xA5CBC, size: 0x8, addend: 0x0, symName: '__ZN53_$LT$std..io..IoSlice$u20$as$u20$core..fmt..Debug$GT$3fmt17h3124dfd426ca0c96E', symObjAddr: 0x32A38, symBinAddr: 0x10050CAF0, symSize: 0x70 }
  - { offset: 0xA5D99, size: 0x8, addend: 0x0, symName: '__ZN58_$LT$std..io..util..Repeat$u20$as$u20$core..fmt..Debug$GT$3fmt17h9bc41d1e6fa21f64E', symObjAddr: 0x34890, symBinAddr: 0x10050E948, symSize: 0x38 }
  - { offset: 0xA5E2C, size: 0x8, addend: 0x0, symName: '__ZN79_$LT$alloc..vec..Vec$LT$u8$GT$$u20$as$u20$std..io..copy..BufferedWriterSpec$GT$11buffer_size17hd48bf7f009b6a638E', symObjAddr: 0x497F8, symBinAddr: 0x10052323C, symSize: 0x1C }
  - { offset: 0xA5E4C, size: 0x8, addend: 0x0, symName: '__ZN79_$LT$alloc..vec..Vec$LT$u8$GT$$u20$as$u20$std..io..copy..BufferedWriterSpec$GT$11buffer_size17hd48bf7f009b6a638E', symObjAddr: 0x497F8, symBinAddr: 0x10052323C, symSize: 0x1C }
  - { offset: 0xA5E63, size: 0x8, addend: 0x0, symName: '__ZN79_$LT$alloc..vec..Vec$LT$u8$GT$$u20$as$u20$std..io..copy..BufferedWriterSpec$GT$11buffer_size17hd48bf7f009b6a638E', symObjAddr: 0x497F8, symBinAddr: 0x10052323C, symSize: 0x1C }
  - { offset: 0xA5E79, size: 0x8, addend: 0x0, symName: '__ZN79_$LT$alloc..vec..Vec$LT$u8$GT$$u20$as$u20$std..io..copy..BufferedWriterSpec$GT$11buffer_size17hd48bf7f009b6a638E', symObjAddr: 0x497F8, symBinAddr: 0x10052323C, symSize: 0x1C }
  - { offset: 0xA5FEC, size: 0x8, addend: 0x0, symName: __ZN3std4path4Path10_ends_with17h3a705b6c45d94407E, symObjAddr: 0x1C330, symBinAddr: 0x1004F98BC, symSize: 0x198 }
  - { offset: 0xA6157, size: 0x8, addend: 0x0, symName: __ZN3std4path4Path10components17h700bd97382bd5ebfE, symObjAddr: 0x1C4C8, symBinAddr: 0x1004F9A54, symSize: 0x34 }
  - { offset: 0xA616F, size: 0x8, addend: 0x0, symName: __ZN3std4path4Path10components17h700bd97382bd5ebfE, symObjAddr: 0x1C4C8, symBinAddr: 0x1004F9A54, symSize: 0x34 }
  - { offset: 0xA6199, size: 0x8, addend: 0x0, symName: __ZN3std4path4Path10is_symlink17h3572bb0b7798e7cfE, symObjAddr: 0x1C4FC, symBinAddr: 0x1004F9A88, symSize: 0x1C8 }
  - { offset: 0xA65BB, size: 0x8, addend: 0x0, symName: __ZN3std4path4Path11file_prefix17hb6cb5b1745a1d702E, symObjAddr: 0x1C6C4, symBinAddr: 0x1004F9C50, symSize: 0x13C }
  - { offset: 0xA67C9, size: 0x8, addend: 0x0, symName: __ZN3std4path4Path11is_absolute17hfbb68a37cf4f6740E, symObjAddr: 0x1C800, symBinAddr: 0x1004F9D8C, symSize: 0x20 }
  - { offset: 0xA67E1, size: 0x8, addend: 0x0, symName: __ZN3std4path4Path11is_absolute17hfbb68a37cf4f6740E, symObjAddr: 0x1C800, symBinAddr: 0x1004F9D8C, symSize: 0x20 }
  - { offset: 0xA67F7, size: 0x8, addend: 0x0, symName: __ZN3std4path4Path11is_absolute17hfbb68a37cf4f6740E, symObjAddr: 0x1C800, symBinAddr: 0x1004F9D8C, symSize: 0x20 }
  - { offset: 0xA680C, size: 0x8, addend: 0x0, symName: __ZN3std4path4Path11is_absolute17hfbb68a37cf4f6740E, symObjAddr: 0x1C800, symBinAddr: 0x1004F9D8C, symSize: 0x20 }
  - { offset: 0xA6822, size: 0x8, addend: 0x0, symName: __ZN3std4path4Path11is_absolute17hfbb68a37cf4f6740E, symObjAddr: 0x1C800, symBinAddr: 0x1004F9D8C, symSize: 0x20 }
  - { offset: 0xA684E, size: 0x8, addend: 0x0, symName: __ZN3std4path4Path12_starts_with17h52ec9313a750d5d1E, symObjAddr: 0x1C820, symBinAddr: 0x1004F9DAC, symSize: 0x198 }
  - { offset: 0xA6951, size: 0x8, addend: 0x0, symName: __ZN3std4path4Path13_strip_prefix17h070e5d4c6cb85d0eE, symObjAddr: 0x1C9B8, symBinAddr: 0x1004F9F44, symSize: 0x21C }
  - { offset: 0xA6A79, size: 0x8, addend: 0x0, symName: __ZN3std4path4Path15_with_extension17heb1dbdc5117e759dE, symObjAddr: 0x1CBD4, symBinAddr: 0x1004FA160, symSize: 0x20C }
  - { offset: 0xA6F61, size: 0x8, addend: 0x0, symName: __ZN3std4path4Path15_with_file_name17h1f6253c78888e527E, symObjAddr: 0x1CDE0, symBinAddr: 0x1004FA36C, symSize: 0xE0 }
  - { offset: 0xA722B, size: 0x8, addend: 0x0, symName: __ZN3std4path4Path19normalize_lexically17h9335e8408660b234E, symObjAddr: 0x1CEC0, symBinAddr: 0x1004FA44C, symSize: 0x3E0 }
  - { offset: 0xA7B55, size: 0x8, addend: 0x0, symName: __ZN3std4path4Path5_join17h796419c6e162ac89E, symObjAddr: 0x1D2A0, symBinAddr: 0x1004FA82C, symSize: 0x19C }
  - { offset: 0xA808F, size: 0x8, addend: 0x0, symName: __ZN3std4path4Path6is_dir17hdffb7e0cd3e75cb8E, symObjAddr: 0x1D43C, symBinAddr: 0x1004FA9C8, symSize: 0x1C8 }
  - { offset: 0xA84A3, size: 0x8, addend: 0x0, symName: __ZN3std4path4Path6parent17h40b16a801526473aE, symObjAddr: 0x1D604, symBinAddr: 0x1004FAB90, symSize: 0x74 }
  - { offset: 0xA84BB, size: 0x8, addend: 0x0, symName: __ZN3std4path4Path6parent17h40b16a801526473aE, symObjAddr: 0x1D604, symBinAddr: 0x1004FAB90, symSize: 0x74 }
  - { offset: 0xA84D1, size: 0x8, addend: 0x0, symName: __ZN3std4path4Path6parent17h40b16a801526473aE, symObjAddr: 0x1D604, symBinAddr: 0x1004FAB90, symSize: 0x74 }
  - { offset: 0xA8529, size: 0x8, addend: 0x0, symName: __ZN3std4path4Path7is_file17hf92b360c4eb3b78aE, symObjAddr: 0x1D678, symBinAddr: 0x1004FAC04, symSize: 0x1C8 }
  - { offset: 0xA893D, size: 0x8, addend: 0x0, symName: __ZN3std4path4Path9extension17h91265b500e29450bE, symObjAddr: 0x1D840, symBinAddr: 0x1004FADCC, symSize: 0xC0 }
  - { offset: 0xA8955, size: 0x8, addend: 0x0, symName: __ZN3std4path4Path9extension17h91265b500e29450bE, symObjAddr: 0x1D840, symBinAddr: 0x1004FADCC, symSize: 0xC0 }
  - { offset: 0xA896B, size: 0x8, addend: 0x0, symName: __ZN3std4path4Path9extension17h91265b500e29450bE, symObjAddr: 0x1D840, symBinAddr: 0x1004FADCC, symSize: 0xC0 }
  - { offset: 0xA8981, size: 0x8, addend: 0x0, symName: __ZN3std4path4Path9extension17h91265b500e29450bE, symObjAddr: 0x1D840, symBinAddr: 0x1004FADCC, symSize: 0xC0 }
  - { offset: 0xA8BB2, size: 0x8, addend: 0x0, symName: __ZN3std4path4Path9file_name17h400607ea0c42a657E, symObjAddr: 0x1D900, symBinAddr: 0x1004FAE8C, symSize: 0x64 }
  - { offset: 0xA8BCA, size: 0x8, addend: 0x0, symName: __ZN3std4path4Path9file_name17h400607ea0c42a657E, symObjAddr: 0x1D900, symBinAddr: 0x1004FAE8C, symSize: 0x64 }
  - { offset: 0xA8BE0, size: 0x8, addend: 0x0, symName: __ZN3std4path4Path9file_name17h400607ea0c42a657E, symObjAddr: 0x1D900, symBinAddr: 0x1004FAE8C, symSize: 0x64 }
  - { offset: 0xA8C21, size: 0x8, addend: 0x0, symName: __ZN3std4path4Path9file_stem17hdce16c8307cc39d1E, symObjAddr: 0x1D964, symBinAddr: 0x1004FAEF0, symSize: 0xF8 }
  - { offset: 0xA8C39, size: 0x8, addend: 0x0, symName: __ZN3std4path4Path9file_stem17hdce16c8307cc39d1E, symObjAddr: 0x1D964, symBinAddr: 0x1004FAEF0, symSize: 0xF8 }
  - { offset: 0xA8C4F, size: 0x8, addend: 0x0, symName: __ZN3std4path4Path9file_stem17hdce16c8307cc39d1E, symObjAddr: 0x1D964, symBinAddr: 0x1004FAEF0, symSize: 0xF8 }
  - { offset: 0xA8C65, size: 0x8, addend: 0x0, symName: __ZN3std4path4Path9file_stem17hdce16c8307cc39d1E, symObjAddr: 0x1D964, symBinAddr: 0x1004FAEF0, symSize: 0xF8 }
  - { offset: 0xA8F4E, size: 0x8, addend: 0x0, symName: '__ZN106_$LT$$LT$std..path..Iter$u20$as$u20$core..fmt..Debug$GT$..fmt..DebugHelper$u20$as$u20$core..fmt..Debug$GT$3fmt17h29f007297e209c4eE', symObjAddr: 0x5F4, symBinAddr: 0x1004DF9B0, symSize: 0x130 }
  - { offset: 0xA900C, size: 0x8, addend: 0x0, symName: '__ZN52_$LT$std..path..Iter$u20$as$u20$core..fmt..Debug$GT$3fmt17h4ccbe492a3364cb3E', symObjAddr: 0x328E4, symBinAddr: 0x10050C99C, symSize: 0x64 }
  - { offset: 0xA9051, size: 0x8, addend: 0x0, symName: '__ZN112_$LT$$LT$std..path..Components$u20$as$u20$core..fmt..Debug$GT$..fmt..DebugHelper$u20$as$u20$core..fmt..Debug$GT$3fmt17h1ae2f6c5e643f1acE', symObjAddr: 0x894, symBinAddr: 0x1004DFC50, symSize: 0xD4 }
  - { offset: 0xA90C9, size: 0x8, addend: 0x0, symName: '__ZN58_$LT$std..path..Components$u20$as$u20$core..fmt..Debug$GT$3fmt17h9d34a3b6377ce5bbE', symObjAddr: 0x3498C, symBinAddr: 0x10050EA44, symSize: 0x64 }
  - { offset: 0xA9322, size: 0x8, addend: 0x0, symName: __ZN3std4path10Components15len_before_body17h0c587bc4e5aad407E, symObjAddr: 0x1B9CC, symBinAddr: 0x1004F8F58, symSize: 0x18C }
  - { offset: 0xA933A, size: 0x8, addend: 0x0, symName: __ZN3std4path10Components15len_before_body17h0c587bc4e5aad407E, symObjAddr: 0x1B9CC, symBinAddr: 0x1004F8F58, symSize: 0x18C }
  - { offset: 0xA9350, size: 0x8, addend: 0x0, symName: __ZN3std4path10Components15len_before_body17h0c587bc4e5aad407E, symObjAddr: 0x1B9CC, symBinAddr: 0x1004F8F58, symSize: 0x18C }
  - { offset: 0xA94DB, size: 0x8, addend: 0x0, symName: __ZN3std4path10Components25parse_next_component_back17h3370b705fe3f614dE, symObjAddr: 0x1BB58, symBinAddr: 0x1004F90E4, symSize: 0x12C }
  - { offset: 0xA95FF, size: 0x8, addend: 0x0, symName: __ZN3std4path10Components7as_path17hbf474adab0e008a2E, symObjAddr: 0x1BC84, symBinAddr: 0x1004F9210, symSize: 0x330 }
  - { offset: 0xA9947, size: 0x8, addend: 0x0, symName: __ZN3std4path7PathBuf14_add_extension17he50bbe19cae1d660E, symObjAddr: 0x1DA5C, symBinAddr: 0x1004FAFE8, symSize: 0x284 }
  - { offset: 0xA9EE8, size: 0x8, addend: 0x0, symName: __ZN3std4path7PathBuf14_set_extension17h4862d6fbb787b59aE, symObjAddr: 0x1DCE0, symBinAddr: 0x1004FB26C, symSize: 0x348 }
  - { offset: 0xAA631, size: 0x8, addend: 0x0, symName: __ZN3std4path7PathBuf14_set_file_name17hf5b501397e6a6218E, symObjAddr: 0x1E028, symBinAddr: 0x1004FB5B4, symSize: 0x154 }
  - { offset: 0xAAA8D, size: 0x8, addend: 0x0, symName: __ZN3std4path7PathBuf16pop_trailing_sep17h8dd9425ba3062e8eE, symObjAddr: 0x1E17C, symBinAddr: 0x1004FB708, symSize: 0x12C }
  - { offset: 0xAACBF, size: 0x8, addend: 0x0, symName: __ZN3std4path7PathBuf16set_trailing_sep17ha248c76bd9e480beE, symObjAddr: 0x1E2A8, symBinAddr: 0x1004FB834, symSize: 0x80 }
  - { offset: 0xAAF52, size: 0x8, addend: 0x0, symName: __ZN3std4path7PathBuf17push_trailing_sep17hd34ab7a19d016e6bE, symObjAddr: 0x1E328, symBinAddr: 0x1004FB8B4, symSize: 0x78 }
  - { offset: 0xAB1D0, size: 0x8, addend: 0x0, symName: __ZN3std4path7PathBuf3pop17h3606ed9ff1380cd2E, symObjAddr: 0x1E3A0, symBinAddr: 0x1004FB92C, symSize: 0xE4 }
  - { offset: 0xAB40B, size: 0x8, addend: 0x0, symName: __ZN3std4path7PathBuf4push17heec70d5ead659fdaE, symObjAddr: 0x1E484, symBinAddr: 0x1004FBA10, symSize: 0x1C8 }
  - { offset: 0xAB6D7, size: 0x8, addend: 0x0, symName: __ZN3std4path7PathBuf5_push17h704134417ae15f74E, symObjAddr: 0x1E64C, symBinAddr: 0x1004FBBD8, symSize: 0x10C }
  - { offset: 0xAB9FE, size: 0x8, addend: 0x0, symName: '__ZN57_$LT$std..path..Display$u20$as$u20$core..fmt..Display$GT$3fmt17h0059307dbdcc6ce9E', symObjAddr: 0x34120, symBinAddr: 0x10050E1D8, symSize: 0x4 }
  - { offset: 0xABA7A, size: 0x8, addend: 0x0, symName: '__ZN3std4path117_$LT$impl$u20$core..convert..From$LT$$RF$std..path..Path$GT$$u20$for$u20$alloc..boxed..Box$LT$std..path..Path$GT$$GT$4from17h52b6b7c132b1765fE', symObjAddr: 0x1BFB4, symBinAddr: 0x1004F9540, symSize: 0x78 }
  - { offset: 0xABC76, size: 0x8, addend: 0x0, symName: __ZN3std4path18compare_components17hdf01e64d29d1e7daE, symObjAddr: 0x1C02C, symBinAddr: 0x1004F95B8, symSize: 0x304 }
  - { offset: 0xAC097, size: 0x8, addend: 0x0, symName: '__ZN52_$LT$std..path..Path$u20$as$u20$core..fmt..Debug$GT$3fmt17hb7313a638872f182E', symObjAddr: 0x32948, symBinAddr: 0x10050CA00, symSize: 0x28 }
  - { offset: 0xAC104, size: 0x8, addend: 0x0, symName: '__ZN55_$LT$std..path..Display$u20$as$u20$core..fmt..Debug$GT$3fmt17h8a579fe9bca01ad9E', symObjAddr: 0x338F0, symBinAddr: 0x10050D9A8, symSize: 0x28 }
  - { offset: 0xAC198, size: 0x8, addend: 0x0, symName: '__ZN55_$LT$std..path..PathBuf$u20$as$u20$core..fmt..Debug$GT$3fmt17h33af34a4b980948aE', symObjAddr: 0x33918, symBinAddr: 0x10050D9D0, symSize: 0x28 }
  - { offset: 0xAC310, size: 0x8, addend: 0x0, symName: '__ZN57_$LT$std..path..Component$u20$as$u20$core..fmt..Debug$GT$3fmt17h14199429dc7a29f4E', symObjAddr: 0x34054, symBinAddr: 0x10050E10C, symSize: 0xCC }
  - { offset: 0xAC35B, size: 0x8, addend: 0x0, symName: '__ZN61_$LT$std..path..Component$u20$as$u20$core..cmp..PartialEq$GT$2eq17h5c9285254e32c8d6E', symObjAddr: 0x44120, symBinAddr: 0x10051DBA8, symSize: 0x134 }
  - { offset: 0xAC4B9, size: 0x8, addend: 0x0, symName: '__ZN64_$LT$std..path..NormalizeError$u20$as$u20$core..fmt..Display$GT$3fmt17h87c39b3a9000c312E', symObjAddr: 0x45CB4, symBinAddr: 0x10051F73C, symSize: 0x14 }
  - { offset: 0xAC4DB, size: 0x8, addend: 0x0, symName: '__ZN66_$LT$std..path..StripPrefixError$u20$as$u20$core..fmt..Display$GT$3fmt17h8cf95f89e365ddfcE', symObjAddr: 0x464C4, symBinAddr: 0x10051FF08, symSize: 0x14 }
  - { offset: 0xAC4FD, size: 0x8, addend: 0x0, symName: '__ZN80_$LT$std..path..Components$u20$as$u20$core..iter..traits..iterator..Iterator$GT$4next17h1f184f15015d2f15E', symObjAddr: 0x4A048, symBinAddr: 0x100523A8C, symSize: 0x364 }
  - { offset: 0xAC7AC, size: 0x8, addend: 0x0, symName: '__ZN95_$LT$std..path..Components$u20$as$u20$core..iter..traits..double_ended..DoubleEndedIterator$GT$9next_back17h70dafec54cd4461cE', symObjAddr: 0x4C314, symBinAddr: 0x100525D14, symSize: 0x344 }
  - { offset: 0xAC990, size: 0x8, addend: 0x0, symName: __ZN3std2os2fd5owned10BorrowedFd18try_clone_to_owned17h07afe93215329f65E, symObjAddr: 0xAF3C, symBinAddr: 0x1004EA0E8, symSize: 0x68 }
  - { offset: 0xACA4C, size: 0x8, addend: 0x0, symName: __ZN3std2os2fd5owned7OwnedFd9try_clone17hb68f5ac71b436e02E, symObjAddr: 0xAFA4, symBinAddr: 0x1004EA150, symSize: 0x68 }
  - { offset: 0xACCBF, size: 0x8, addend: 0x0, symName: '__ZN64_$LT$std..os..fd..owned..OwnedFd$u20$as$u20$core..fmt..Debug$GT$3fmt17h4c88ce908c08fa42E', symObjAddr: 0x45AD4, symBinAddr: 0x10051F55C, symSize: 0x64 }
  - { offset: 0xACCE7, size: 0x8, addend: 0x0, symName: '__ZN67_$LT$std..os..fd..owned..BorrowedFd$u20$as$u20$core..fmt..Debug$GT$3fmt17h1b3be335da53f560E', symObjAddr: 0x46590, symBinAddr: 0x10051FFD4, symSize: 0x64 }
  - { offset: 0xACD02, size: 0x8, addend: 0x0, symName: '__ZN70_$LT$std..io..pipe..PipeReader$u20$as$u20$std..os..fd..owned..AsFd$GT$5as_fd17hd98daf84b547127aE', symObjAddr: 0x475BC, symBinAddr: 0x100521000, symSize: 0x8 }
  - { offset: 0xACD21, size: 0x8, addend: 0x0, symName: '__ZN70_$LT$std..io..pipe..PipeReader$u20$as$u20$std..os..fd..owned..AsFd$GT$5as_fd17hd98daf84b547127aE', symObjAddr: 0x475BC, symBinAddr: 0x100521000, symSize: 0x8 }
  - { offset: 0xACD37, size: 0x8, addend: 0x0, symName: '__ZN70_$LT$std..io..pipe..PipeReader$u20$as$u20$std..os..fd..owned..AsFd$GT$5as_fd17hd98daf84b547127aE', symObjAddr: 0x475BC, symBinAddr: 0x100521000, symSize: 0x8 }
  - { offset: 0xACD4D, size: 0x8, addend: 0x0, symName: '__ZN70_$LT$std..io..pipe..PipeReader$u20$as$u20$std..os..fd..owned..AsFd$GT$5as_fd17hd98daf84b547127aE', symObjAddr: 0x475BC, symBinAddr: 0x100521000, symSize: 0x8 }
  - { offset: 0xACDB2, size: 0x8, addend: 0x0, symName: __ZN3std2os4unix3net4addr10SocketAddr10is_unnamed17h9f555f2e5011591bE, symObjAddr: 0xB00C, symBinAddr: 0x1004EA1B8, symSize: 0x44 }
  - { offset: 0xACE1D, size: 0x8, addend: 0x0, symName: __ZN3std2os4unix3net4addr10SocketAddr11as_pathname17hb73b2995a343788aE, symObjAddr: 0xB050, symBinAddr: 0x1004EA1FC, symSize: 0x48 }
  - { offset: 0xACEE4, size: 0x8, addend: 0x0, symName: __ZN3std2os4unix3net4addr11sockaddr_un17h6767c23dcf33dd3fE, symObjAddr: 0xB098, symBinAddr: 0x1004EA244, symSize: 0x134 }
  - { offset: 0xACFC5, size: 0x8, addend: 0x0, symName: '__ZN73_$LT$std..os..unix..net..addr..SocketAddr$u20$as$u20$core..fmt..Debug$GT$3fmt17he567f5837d3875a1E', symObjAddr: 0x47F20, symBinAddr: 0x100521964, symSize: 0xB0 }
  - { offset: 0xAD0B1, size: 0x8, addend: 0x0, symName: __ZN3std2os4unix3net6stream10UnixStream10local_addr17h7ff250dd31e1ca77E, symObjAddr: 0xB1CC, symBinAddr: 0x1004EA378, symSize: 0xE4 }
  - { offset: 0xAD1C0, size: 0x8, addend: 0x0, symName: __ZN3std2os4unix3net6stream10UnixStream10take_error17h80346cd8f1e4ae65E, symObjAddr: 0xB2B0, symBinAddr: 0x1004EA45C, symSize: 0x74 }
  - { offset: 0xAD2AC, size: 0x8, addend: 0x0, symName: __ZN3std2os4unix3net6stream10UnixStream12connect_addr17hf48aadcb7e869263E, symObjAddr: 0xB324, symBinAddr: 0x1004EA4D0, symSize: 0xB4 }
  - { offset: 0xAD3C2, size: 0x8, addend: 0x0, symName: __ZN3std2os4unix3net6stream10UnixStream12read_timeout17he67dcc7bbe6a2ea5E, symObjAddr: 0xB3D8, symBinAddr: 0x1004EA584, symSize: 0xE0 }
  - { offset: 0xAD4DE, size: 0x8, addend: 0x0, symName: __ZN3std2os4unix3net6stream10UnixStream13write_timeout17hbfb02efd069f9d24E, symObjAddr: 0xB4B8, symBinAddr: 0x1004EA664, symSize: 0xE0 }
  - { offset: 0xAD5FA, size: 0x8, addend: 0x0, symName: __ZN3std2os4unix3net6stream10UnixStream15set_nonblocking17hff6f0232f70586d9E, symObjAddr: 0xB598, symBinAddr: 0x1004EA744, symSize: 0x54 }
  - { offset: 0xAD69E, size: 0x8, addend: 0x0, symName: __ZN3std2os4unix3net6stream10UnixStream16set_read_timeout17hf1ecb466bb1619c1E, symObjAddr: 0xB5EC, symBinAddr: 0x1004EA798, symSize: 0xC0 }
  - { offset: 0xAD766, size: 0x8, addend: 0x0, symName: __ZN3std2os4unix3net6stream10UnixStream17set_write_timeout17h048b19cc7b946662E, symObjAddr: 0xB6AC, symBinAddr: 0x1004EA858, symSize: 0xC0 }
  - { offset: 0xAD82E, size: 0x8, addend: 0x0, symName: __ZN3std2os4unix3net6stream10UnixStream4pair17h655a2b0c13d10da8E, symObjAddr: 0xB76C, symBinAddr: 0x1004EA918, symSize: 0x5C }
  - { offset: 0xAD86C, size: 0x8, addend: 0x0, symName: __ZN3std2os4unix3net6stream10UnixStream4peek17he3621f87da29c567E, symObjAddr: 0xB7C8, symBinAddr: 0x1004EA974, symSize: 0x44 }
  - { offset: 0xAD927, size: 0x8, addend: 0x0, symName: __ZN3std2os4unix3net6stream10UnixStream8shutdown17h085d8839172dc492E, symObjAddr: 0xB80C, symBinAddr: 0x1004EA9B8, symSize: 0x3C }
  - { offset: 0xAD9CB, size: 0x8, addend: 0x0, symName: __ZN3std2os4unix3net6stream10UnixStream9peer_addr17h510b3ab406ff769bE, symObjAddr: 0xB848, symBinAddr: 0x1004EA9F4, symSize: 0xE4 }
  - { offset: 0xADADA, size: 0x8, addend: 0x0, symName: __ZN3std2os4unix3net6stream10UnixStream9peer_cred17hc9b51650b28ea88bE, symObjAddr: 0xB92C, symBinAddr: 0x1004EAAD8, symSize: 0xD0 }
  - { offset: 0xADC0A, size: 0x8, addend: 0x0, symName: '__ZN76_$LT$$RF$std..os..unix..net..stream..UnixStream$u20$as$u20$std..io..Read$GT$8read_buf17hcd3b531115b05dc8E', symObjAddr: 0x4867C, symBinAddr: 0x1005220C0, symSize: 0x74 }
  - { offset: 0xADD7F, size: 0x8, addend: 0x0, symName: '__ZN72_$LT$std..os..unix..net..stream..UnixStream$u20$as$u20$std..io..Read$GT$13read_vectored17h8c11dfd7621d5dfcE', symObjAddr: 0x478B8, symBinAddr: 0x1005212FC, symSize: 0x54 }
  - { offset: 0xADE92, size: 0x8, addend: 0x0, symName: '__ZN72_$LT$std..os..unix..net..stream..UnixStream$u20$as$u20$std..io..Read$GT$4read17h87a1df252d6b35e8E', symObjAddr: 0x4790C, symBinAddr: 0x100521350, symSize: 0x44 }
  - { offset: 0xADF64, size: 0x8, addend: 0x0, symName: '__ZN72_$LT$std..os..unix..net..stream..UnixStream$u20$as$u20$std..io..Read$GT$8read_buf17hbd1db85c170fa8c8E', symObjAddr: 0x47950, symBinAddr: 0x100521394, symSize: 0x70 }
  - { offset: 0xAE10C, size: 0x8, addend: 0x0, symName: '__ZN73_$LT$std..os..unix..net..stream..UnixStream$u20$as$u20$std..io..Write$GT$5write17h9d40c21e358694c2E', symObjAddr: 0x47FD0, symBinAddr: 0x100521A14, symSize: 0x4C }
  - { offset: 0xAE1E4, size: 0x8, addend: 0x0, symName: '__ZN75_$LT$std..os..unix..net..stream..UnixStream$u20$as$u20$core..fmt..Debug$GT$3fmt17hf442c7b10423d63eE', symObjAddr: 0x48300, symBinAddr: 0x100521D44, symSize: 0x37C }
  - { offset: 0xAE8AB, size: 0x8, addend: 0x0, symName: __ZN3std2os4unix3net8datagram12UnixDatagram12connect_addr17h920ba54797b3465dE, symObjAddr: 0xB9FC, symBinAddr: 0x1004EABA8, symSize: 0x3C }
  - { offset: 0xAE979, size: 0x8, addend: 0x0, symName: __ZN3std2os4unix3net8datagram12UnixDatagram12send_to_addr17hfde599607995ae80E, symObjAddr: 0xBA38, symBinAddr: 0x1004EABE4, symSize: 0x54 }
  - { offset: 0xAEA60, size: 0x8, addend: 0x0, symName: __ZN3std2os4unix3net8datagram12UnixDatagram4pair17h82309464ab8906c6E, symObjAddr: 0xBA8C, symBinAddr: 0x1004EAC38, symSize: 0x5C }
  - { offset: 0xAEA9E, size: 0x8, addend: 0x0, symName: __ZN3std2os4unix3net8datagram12UnixDatagram4recv17h231af8523fcb40fbE, symObjAddr: 0xBAE8, symBinAddr: 0x1004EAC94, symSize: 0x44 }
  - { offset: 0xAEB59, size: 0x8, addend: 0x0, symName: __ZN3std2os4unix3net8datagram12UnixDatagram4send17h178824b53f7c0435E, symObjAddr: 0xBB2C, symBinAddr: 0x1004EACD8, symSize: 0x54 }
  - { offset: 0xAEC57, size: 0x8, addend: 0x0, symName: __ZN3std2os4unix3net8datagram12UnixDatagram7unbound17h0a5215a295997f08E, symObjAddr: 0xBB80, symBinAddr: 0x1004EAD2C, symSize: 0x60 }
  - { offset: 0xAEC9C, size: 0x8, addend: 0x0, symName: __ZN3std2os4unix3net8datagram12UnixDatagram9bind_addr17ha1bc6f2348f27643E, symObjAddr: 0xBBE0, symBinAddr: 0x1004EAD8C, symSize: 0xB4 }
  - { offset: 0xAEDE5, size: 0x8, addend: 0x0, symName: __ZN3std2os4unix3net8datagram12UnixDatagram9peek_from17h6ff81b32eaf04e5cE, symObjAddr: 0xBC94, symBinAddr: 0x1004EAE40, symSize: 0x118 }
  - { offset: 0xAEF66, size: 0x8, addend: 0x0, symName: __ZN3std2os4unix3net8datagram12UnixDatagram9recv_from17haa8896a563e93d04E, symObjAddr: 0xBDAC, symBinAddr: 0x1004EAF58, symSize: 0x118 }
  - { offset: 0xAF150, size: 0x8, addend: 0x0, symName: '__ZN79_$LT$std..os..unix..net..datagram..UnixDatagram$u20$as$u20$core..fmt..Debug$GT$3fmt17ha3c06f20cce7fbc2E', symObjAddr: 0x499F4, symBinAddr: 0x100523438, symSize: 0x37C }
  - { offset: 0xAF7CB, size: 0x8, addend: 0x0, symName: __ZN3std2os4unix3net8listener12UnixListener6accept17h46d0a3278904235aE, symObjAddr: 0xBEC4, symBinAddr: 0x1004EB070, symSize: 0x134 }
  - { offset: 0xAF9E7, size: 0x8, addend: 0x0, symName: __ZN3std2os4unix3net8listener12UnixListener9bind_addr17hefbe76a060e56355E, symObjAddr: 0xBFF8, symBinAddr: 0x1004EB1A4, symSize: 0xC8 }
  - { offset: 0xAFB5B, size: 0x8, addend: 0x0, symName: '__ZN79_$LT$std..os..unix..net..listener..UnixListener$u20$as$u20$core..fmt..Debug$GT$3fmt17h7fe9c93f98566db3E', symObjAddr: 0x49D70, symBinAddr: 0x1005237B4, symSize: 0x204 }
  - { offset: 0xAFE62, size: 0x8, addend: 0x0, symName: '__ZN97_$LT$std..os..unix..net..listener..Incoming$u20$as$u20$core..iter..traits..iterator..Iterator$GT$4next17hc4b75debc1e3e960E', symObjAddr: 0x4C85C, symBinAddr: 0x10052625C, symSize: 0x40 }
  - { offset: 0xAFE9D, size: 0x8, addend: 0x0, symName: __ZN3std2os4unix7process9parent_id17h1173eb393c9d6383E, symObjAddr: 0xC0C0, symBinAddr: 0x1004EB26C, symSize: 0x4 }
  - { offset: 0xAFEBC, size: 0x8, addend: 0x0, symName: __ZN3std2os4unix7process9parent_id17h1173eb393c9d6383E, symObjAddr: 0xC0C0, symBinAddr: 0x1004EB26C, symSize: 0x4 }
  - { offset: 0xAFED5, size: 0x8, addend: 0x0, symName: '__ZN72_$LT$std..process..Child$u20$as$u20$std..os..unix..process..ChildExt$GT$11send_signal17hae701460e16d969cE', symObjAddr: 0x479C0, symBinAddr: 0x100521404, symSize: 0x48 }
  - { offset: 0xAFF77, size: 0x8, addend: 0x0, symName: '__ZN76_$LT$std..process..Command$u20$as$u20$std..os..unix..process..CommandExt$GT$4exec17h1309b7bb6803e3d3E', symObjAddr: 0x486F0, symBinAddr: 0x100522134, symSize: 0x1C8 }
  - { offset: 0xB022F, size: 0x8, addend: 0x0, symName: '__ZN76_$LT$std..process..Command$u20$as$u20$std..os..unix..process..CommandExt$GT$6groups17h895ae237cccd4b34E', symObjAddr: 0x488B8, symBinAddr: 0x1005222FC, symSize: 0xC8 }
  - { offset: 0xB0421, size: 0x8, addend: 0x0, symName: '__ZN87_$LT$std..process..ExitStatusError$u20$as$u20$std..os..unix..process..ExitStatusExt$GT$8from_raw17hcf0dec5dc80c1439E', symObjAddr: 0x4B7DC, symBinAddr: 0x1005251DC, symSize: 0x38 }
  - { offset: 0xB047C, size: 0x8, addend: 0x0, symName: '__ZN60_$LT$std..fs..File$u20$as$u20$std..os..unix..fs..FileExt$GT$11read_buf_at17h069577c844347878E', symObjAddr: 0x41A04, symBinAddr: 0x10051B48C, symSize: 0x7C }
  - { offset: 0xB061B, size: 0x8, addend: 0x0, symName: '__ZN60_$LT$std..fs..File$u20$as$u20$std..os..unix..fs..FileExt$GT$16read_vectored_at17h3be7a738f3280c21E', symObjAddr: 0x41A80, symBinAddr: 0x10051B508, symSize: 0x11C }
  - { offset: 0xB081E, size: 0x8, addend: 0x0, symName: '__ZN60_$LT$std..fs..File$u20$as$u20$std..os..unix..fs..FileExt$GT$17write_vectored_at17h476fa332928edadeE', symObjAddr: 0x41B9C, symBinAddr: 0x10051B624, symSize: 0x11C }
  - { offset: 0xB0A21, size: 0x8, addend: 0x0, symName: '__ZN60_$LT$std..fs..File$u20$as$u20$std..os..unix..fs..FileExt$GT$7read_at17h80611cf317945f84E', symObjAddr: 0x41CB8, symBinAddr: 0x10051B740, symSize: 0x54 }
  - { offset: 0xB0B1D, size: 0x8, addend: 0x0, symName: '__ZN60_$LT$std..fs..File$u20$as$u20$std..os..unix..fs..FileExt$GT$8write_at17h390526c0863631b6E', symObjAddr: 0x41D0C, symBinAddr: 0x10051B794, symSize: 0x54 }
  - { offset: 0xB0C22, size: 0x8, addend: 0x0, symName: '__ZN69_$LT$std..fs..DirEntry$u20$as$u20$std..os..unix..fs..DirEntryExt2$GT$13file_name_ref17h480a781dd56c812fE', symObjAddr: 0x46B00, symBinAddr: 0x100520544, symSize: 0xC }
  - { offset: 0xB0C41, size: 0x8, addend: 0x0, symName: '__ZN69_$LT$std..fs..DirEntry$u20$as$u20$std..os..unix..fs..DirEntryExt2$GT$13file_name_ref17h480a781dd56c812fE', symObjAddr: 0x46B00, symBinAddr: 0x100520544, symSize: 0xC }
  - { offset: 0xB0C57, size: 0x8, addend: 0x0, symName: '__ZN69_$LT$std..fs..DirEntry$u20$as$u20$std..os..unix..fs..DirEntryExt2$GT$13file_name_ref17h480a781dd56c812fE', symObjAddr: 0x46B00, symBinAddr: 0x100520544, symSize: 0xC }
  - { offset: 0xB0C7B, size: 0x8, addend: 0x0, symName: '__ZN112_$LT$std..process..Child$u20$as$u20$std..sys_common..IntoInner$LT$std..sys..process..unix..unix..Process$GT$$GT$10into_inner17hcd5c41f99b4b81ceE', symObjAddr: 0x968, symBinAddr: 0x1004DFD24, symSize: 0x60 }
  - { offset: 0xB0E50, size: 0x8, addend: 0x0, symName: __ZN3std7process15ExitStatusError12code_nonzero17ha9104a1d2bd854aeE, symObjAddr: 0x20CFC, symBinAddr: 0x1004FDD94, symSize: 0x50 }
  - { offset: 0xB0F20, size: 0x8, addend: 0x0, symName: __ZN3std7process15ExitStatusError4code17h79fa06b5a564859bE, symObjAddr: 0x20D4C, symBinAddr: 0x1004FDDE4, symSize: 0x58 }
  - { offset: 0xB1006, size: 0x8, addend: 0x0, symName: __ZN3std7process2id17hfd6104499af9a6a0E, symObjAddr: 0x20DA4, symBinAddr: 0x1004FDE3C, symSize: 0x4 }
  - { offset: 0xB1025, size: 0x8, addend: 0x0, symName: __ZN3std7process2id17hfd6104499af9a6a0E, symObjAddr: 0x20DA4, symBinAddr: 0x1004FDE3C, symSize: 0x4 }
  - { offset: 0xB1038, size: 0x8, addend: 0x0, symName: __ZN3std7process4exit17hb29e0c7d146d4f43E, symObjAddr: 0x20DA8, symBinAddr: 0x1004FDE40, symSize: 0x1C }
  - { offset: 0xB1067, size: 0x8, addend: 0x0, symName: '__ZN59_$LT$std..process..ChildStderr$u20$as$u20$std..io..Read$GT$4read17hc8ec504c2432312dE', symObjAddr: 0x35CF4, symBinAddr: 0x10050FDAC, symSize: 0x54 }
  - { offset: 0xB1162, size: 0x8, addend: 0x0, symName: '__ZN59_$LT$std..process..ChildStderr$u20$as$u20$std..io..Read$GT$8read_buf17h1ad3ea281d90413cE', symObjAddr: 0x35D48, symBinAddr: 0x10050FE00, symSize: 0x78 }
  - { offset: 0xB132A, size: 0x8, addend: 0x0, symName: __ZN3std7process5Child16wait_with_output17h3a0352c45a2e8e9fE, symObjAddr: 0x20DC4, symBinAddr: 0x1004FDE5C, symSize: 0x29C }
  - { offset: 0xB177A, size: 0x8, addend: 0x0, symName: __ZN3std7process5Child4kill17hc847b578b154957aE, symObjAddr: 0x21060, symBinAddr: 0x1004FE0F8, symSize: 0x4C }
  - { offset: 0xB1823, size: 0x8, addend: 0x0, symName: __ZN3std7process5Child4wait17h35014ea7cee8ca1bE, symObjAddr: 0x210AC, symBinAddr: 0x1004FE144, symSize: 0xB8 }
  - { offset: 0xB19AD, size: 0x8, addend: 0x0, symName: __ZN3std7process5Child8try_wait17h1d6308e2c487b9c5E, symObjAddr: 0x21164, symBinAddr: 0x1004FE1FC, symSize: 0xB0 }
  - { offset: 0xB1A76, size: 0x8, addend: 0x0, symName: __ZN3std7process5abort17h2f4325b8d66c2416E, symObjAddr: 0x21214, symBinAddr: 0x100597EE4, symSize: 0xC }
  - { offset: 0xB1AAC, size: 0x8, addend: 0x0, symName: __ZN3std7process6Output7exit_ok17hdabdcec1adbe7cb4E, symObjAddr: 0x21220, symBinAddr: 0x1004FE2AC, symSize: 0x7C }
  - { offset: 0xB1C60, size: 0x8, addend: 0x0, symName: __ZN3std7process7Command11get_program17ha4b998d86855d9f0E, symObjAddr: 0x2129C, symBinAddr: 0x1004FE328, symSize: 0x10 }
  - { offset: 0xB1CA8, size: 0x8, addend: 0x0, symName: __ZN3std7process7Command15get_current_dir17h80f82846accf8349E, symObjAddr: 0x212AC, symBinAddr: 0x1004FE338, symSize: 0x10 }
  - { offset: 0xB1CF1, size: 0x8, addend: 0x0, symName: __ZN3std7process7Command5spawn17hea0f0acdf447453cE, symObjAddr: 0x212BC, symBinAddr: 0x1004FE348, symSize: 0x78 }
  - { offset: 0xB1D23, size: 0x8, addend: 0x0, symName: __ZN3std7process7Command6output17h427178a0d04fd666E, symObjAddr: 0x21334, symBinAddr: 0x1004FE3C0, symSize: 0x2EC }
  - { offset: 0xB22CD, size: 0x8, addend: 0x0, symName: __ZN3std7process7Command6status17h8169344a57ba19b6E, symObjAddr: 0x21620, symBinAddr: 0x1004FE6AC, symSize: 0xFC }
  - { offset: 0xB2589, size: 0x8, addend: 0x0, symName: __ZN3std7process7Command8get_args17h85ebeb3791fa73aaE, symObjAddr: 0x2171C, symBinAddr: 0x1004FE7A8, symSize: 0x44 }
  - { offset: 0xB266C, size: 0x8, addend: 0x0, symName: __ZN3std7process7Command9env_clear17hb0e2836ec9337c42E, symObjAddr: 0x21760, symBinAddr: 0x1004FE7EC, symSize: 0xE0 }
  - { offset: 0xB2988, size: 0x8, addend: 0x0, symName: __ZN3std7process8ExitCode12exit_process17h962a0cefbab50cc8E, symObjAddr: 0x21840, symBinAddr: 0x1004FE8CC, symSize: 0x10 }
  - { offset: 0xB29E6, size: 0x8, addend: 0x0, symName: '__ZN61_$LT$std..process..ChildStdin$u20$as$u20$core..fmt..Debug$GT$3fmt17hd04007836b871db0E', symObjAddr: 0x44254, symBinAddr: 0x10051DCDC, symSize: 0x38 }
  - { offset: 0xB2A0F, size: 0x8, addend: 0x0, symName: '__ZN62_$LT$std..process..ChildStderr$u20$as$u20$core..fmt..Debug$GT$3fmt17h1229035c4ec9a050E', symObjAddr: 0x44D08, symBinAddr: 0x10051E790, symSize: 0x38 }
  - { offset: 0xB2A38, size: 0x8, addend: 0x0, symName: '__ZN62_$LT$std..process..ChildStdout$u20$as$u20$core..fmt..Debug$GT$3fmt17hc365ce007ce71987E', symObjAddr: 0x44D40, symBinAddr: 0x10051E7C8, symSize: 0x38 }
  - { offset: 0xB2A53, size: 0x8, addend: 0x0, symName: '__ZN56_$LT$std..process..Child$u20$as$u20$core..fmt..Debug$GT$3fmt17h89e4cebe715f5592E', symObjAddr: 0x339CC, symBinAddr: 0x10050DA84, symSize: 0x9C }
  - { offset: 0xB2A75, size: 0x8, addend: 0x0, symName: '__ZN56_$LT$std..process..Stdio$u20$as$u20$core..fmt..Debug$GT$3fmt17hb2d598010f02b3caE', symObjAddr: 0x33A68, symBinAddr: 0x10050DB20, symSize: 0x38 }
  - { offset: 0xB2A97, size: 0x8, addend: 0x0, symName: '__ZN57_$LT$std..process..Output$u20$as$u20$core..fmt..Debug$GT$3fmt17h23587169bff084e4E', symObjAddr: 0x34124, symBinAddr: 0x10050E1DC, symSize: 0x10C }
  - { offset: 0xB2BD1, size: 0x8, addend: 0x0, symName: '__ZN58_$LT$std..process..Command$u20$as$u20$core..fmt..Debug$GT$3fmt17ha2aa5ac11a49cc14E', symObjAddr: 0x349F0, symBinAddr: 0x10050EAA8, symSize: 0x4 }
  - { offset: 0xB2BF3, size: 0x8, addend: 0x0, symName: '__ZN61_$LT$std..process..ExitStatus$u20$as$u20$core..fmt..Debug$GT$3fmt17h05ac00b2ccab4218E', symObjAddr: 0x4428C, symBinAddr: 0x10051DD14, symSize: 0x40 }
  - { offset: 0xB2C15, size: 0x8, addend: 0x0, symName: '__ZN62_$LT$std..process..CommandEnvs$u20$as$u20$core..fmt..Debug$GT$3fmt17hda07afab24b28430E', symObjAddr: 0x44D78, symBinAddr: 0x10051E800, symSize: 0x4C }
  - { offset: 0xB2C4E, size: 0x8, addend: 0x0, symName: '__ZN63_$LT$std..process..ExitStatus$u20$as$u20$core..fmt..Display$GT$3fmt17h2b4d11a9b0c9a0daE', symObjAddr: 0x451B8, symBinAddr: 0x10051EC40, symSize: 0x4 }
  - { offset: 0xB2C70, size: 0x8, addend: 0x0, symName: '__ZN68_$LT$std..process..ExitStatusError$u20$as$u20$core..fmt..Display$GT$3fmt17hf85649c6138f3f0fE', symObjAddr: 0x46928, symBinAddr: 0x10052036C, symSize: 0x58 }
  - { offset: 0xB2CD6, size: 0x8, addend: 0x0, symName: '__ZN84_$LT$std..process..CommandArgs$u20$as$u20$core..iter..traits..iterator..Iterator$GT$4next17ha206e1422a1d0fa3E', symObjAddr: 0x4B418, symBinAddr: 0x100524E18, symSize: 0x44 }
  - { offset: 0xB2D8D, size: 0x8, addend: 0x0, symName: '__ZN84_$LT$std..process..CommandArgs$u20$as$u20$core..iter..traits..iterator..Iterator$GT$9size_hint17h7fdd09be935ab6bcE', symObjAddr: 0x4B45C, symBinAddr: 0x100524E5C, symSize: 0x1C }
  - { offset: 0xB2DAC, size: 0x8, addend: 0x0, symName: '__ZN84_$LT$std..process..CommandArgs$u20$as$u20$core..iter..traits..iterator..Iterator$GT$9size_hint17h7fdd09be935ab6bcE', symObjAddr: 0x4B45C, symBinAddr: 0x100524E5C, symSize: 0x1C }
  - { offset: 0xB2DC2, size: 0x8, addend: 0x0, symName: '__ZN84_$LT$std..process..CommandArgs$u20$as$u20$core..iter..traits..iterator..Iterator$GT$9size_hint17h7fdd09be935ab6bcE', symObjAddr: 0x4B45C, symBinAddr: 0x100524E5C, symSize: 0x1C }
  - { offset: 0xB2DD8, size: 0x8, addend: 0x0, symName: '__ZN84_$LT$std..process..CommandArgs$u20$as$u20$core..iter..traits..iterator..Iterator$GT$9size_hint17h7fdd09be935ab6bcE', symObjAddr: 0x4B45C, symBinAddr: 0x100524E5C, symSize: 0x1C }
  - { offset: 0xB2E37, size: 0x8, addend: 0x0, symName: '__ZN84_$LT$std..process..CommandEnvs$u20$as$u20$core..iter..traits..iterator..Iterator$GT$4next17h02b1ceea878e8109E', symObjAddr: 0x4B478, symBinAddr: 0x100524E78, symSize: 0x50 }
  - { offset: 0xB2ECA, size: 0x8, addend: 0x0, symName: '__ZN95_$LT$std..process..CommandArgs$u20$as$u20$core..iter..traits..exact_size..ExactSizeIterator$GT$3len17h4eaa8157ee716d52E', symObjAddr: 0x4C658, symBinAddr: 0x100526058, symSize: 0x10 }
  - { offset: 0xB2EE9, size: 0x8, addend: 0x0, symName: '__ZN95_$LT$std..process..CommandArgs$u20$as$u20$core..iter..traits..exact_size..ExactSizeIterator$GT$3len17h4eaa8157ee716d52E', symObjAddr: 0x4C658, symBinAddr: 0x100526058, symSize: 0x10 }
  - { offset: 0xB2EFF, size: 0x8, addend: 0x0, symName: '__ZN95_$LT$std..process..CommandArgs$u20$as$u20$core..iter..traits..exact_size..ExactSizeIterator$GT$3len17h4eaa8157ee716d52E', symObjAddr: 0x4C658, symBinAddr: 0x100526058, symSize: 0x10 }
  - { offset: 0xB2F15, size: 0x8, addend: 0x0, symName: '__ZN95_$LT$std..process..CommandArgs$u20$as$u20$core..iter..traits..exact_size..ExactSizeIterator$GT$3len17h4eaa8157ee716d52E', symObjAddr: 0x4C658, symBinAddr: 0x100526058, symSize: 0x10 }
  - { offset: 0xB2F81, size: 0x8, addend: 0x0, symName: '__ZN118_$LT$std..thread..thread_name_string..ThreadNameString$u20$as$u20$core..convert..From$LT$alloc..string..String$GT$$GT$4from17h508dfaf2a0ec8e0eE', symObjAddr: 0xAA0, symBinAddr: 0x1004DFE5C, symSize: 0x128 }
  - { offset: 0xB3271, size: 0x8, addend: 0x0, symName: __ZN3std6thread5local18panic_access_error17h8e5b1583a281a7a9E, symObjAddr: 0x1FE30, symBinAddr: 0x100597CC4, symSize: 0x44 }
  - { offset: 0xB32C6, size: 0x8, addend: 0x0, symName: '__ZN68_$LT$std..thread..local..AccessError$u20$as$u20$core..fmt..Debug$GT$3fmt17hcc430accc785db4cE', symObjAddr: 0x46AC8, symBinAddr: 0x10052050C, symSize: 0x38 }
  - { offset: 0xB32E8, size: 0x8, addend: 0x0, symName: '__ZN70_$LT$std..thread..local..AccessError$u20$as$u20$core..fmt..Display$GT$3fmt17h7206f37ad45933faE', symObjAddr: 0x475C4, symBinAddr: 0x100521008, symSize: 0x14 }
  - { offset: 0xB3454, size: 0x8, addend: 0x0, symName: __ZN3std6thread7current11set_current17h304aba8c366fbe47E, symObjAddr: 0x2030C, symBinAddr: 0x1004FD540, symSize: 0xA4 }
  - { offset: 0xB3612, size: 0x8, addend: 0x0, symName: __ZN3std6thread7current12init_current17hd2bd631e2d2f39c7E, symObjAddr: 0x203B0, symBinAddr: 0x100597D48, symSize: 0x164 }
  - { offset: 0xB3952, size: 0x8, addend: 0x0, symName: __ZN3std6thread7current13current_os_id17h5e26ea0ddd6615bcE, symObjAddr: 0x20514, symBinAddr: 0x1004FD5E4, symSize: 0x88 }
  - { offset: 0xB3AE9, size: 0x8, addend: 0x0, symName: __ZN3std6thread7current18current_or_unnamed17h54e6e22497d883f3E, symObjAddr: 0x2059C, symBinAddr: 0x1004FD66C, symSize: 0xBC }
  - { offset: 0xB3D4E, size: 0x8, addend: 0x0, symName: __ZN3std6thread7current7current17he1f800f3a0ae599bE, symObjAddr: 0x20658, symBinAddr: 0x1004FD728, symSize: 0x48 }
  - { offset: 0xB3E85, size: 0x8, addend: 0x0, symName: __ZN3std6thread8ThreadId3new17h5ee0c2895c53c427E, symObjAddr: 0x206A0, symBinAddr: 0x1004FD770, symSize: 0x44 }
  - { offset: 0xB3F91, size: 0x8, addend: 0x0, symName: __ZN3std6thread6Thread12park_timeout17h76e4126481fb49ecE, symObjAddr: 0x1FF28, symBinAddr: 0x1004FD19C, symSize: 0x90 }
  - { offset: 0xB40C7, size: 0x8, addend: 0x0, symName: __ZN3std6thread6Thread3new17h2a23c99fc4ff5bccE, symObjAddr: 0x1FFB8, symBinAddr: 0x1004FD22C, symSize: 0x158 }
  - { offset: 0xB43BD, size: 0x8, addend: 0x0, symName: __ZN3std6thread6Thread4name17h3e0d9a964b1e79b1E, symObjAddr: 0x20110, symBinAddr: 0x1004FD384, symSize: 0x48 }
  - { offset: 0xB43D5, size: 0x8, addend: 0x0, symName: __ZN3std6thread6Thread4name17h3e0d9a964b1e79b1E, symObjAddr: 0x20110, symBinAddr: 0x1004FD384, symSize: 0x48 }
  - { offset: 0xB43EB, size: 0x8, addend: 0x0, symName: __ZN3std6thread6Thread4name17h3e0d9a964b1e79b1E, symObjAddr: 0x20110, symBinAddr: 0x1004FD384, symSize: 0x48 }
  - { offset: 0xB4401, size: 0x8, addend: 0x0, symName: __ZN3std6thread6Thread4name17h3e0d9a964b1e79b1E, symObjAddr: 0x20110, symBinAddr: 0x1004FD384, symSize: 0x48 }
  - { offset: 0xB4417, size: 0x8, addend: 0x0, symName: __ZN3std6thread6Thread4name17h3e0d9a964b1e79b1E, symObjAddr: 0x20110, symBinAddr: 0x1004FD384, symSize: 0x48 }
  - { offset: 0xB442D, size: 0x8, addend: 0x0, symName: __ZN3std6thread6Thread4name17h3e0d9a964b1e79b1E, symObjAddr: 0x20110, symBinAddr: 0x1004FD384, symSize: 0x48 }
  - { offset: 0xB44CB, size: 0x8, addend: 0x0, symName: __ZN3std6thread6Thread4park17h1c9f2bf188115eb7E, symObjAddr: 0x20158, symBinAddr: 0x1004FD3CC, symSize: 0x48 }
  - { offset: 0xB45C0, size: 0x8, addend: 0x0, symName: __ZN3std6thread6Thread5cname17h810fe7fb3e1633b1E, symObjAddr: 0x201A0, symBinAddr: 0x1004FD414, symSize: 0x44 }
  - { offset: 0xB45DF, size: 0x8, addend: 0x0, symName: __ZN3std6thread6Thread5cname17h810fe7fb3e1633b1E, symObjAddr: 0x201A0, symBinAddr: 0x1004FD414, symSize: 0x44 }
  - { offset: 0xB45F5, size: 0x8, addend: 0x0, symName: __ZN3std6thread6Thread5cname17h810fe7fb3e1633b1E, symObjAddr: 0x201A0, symBinAddr: 0x1004FD414, symSize: 0x44 }
  - { offset: 0xB460B, size: 0x8, addend: 0x0, symName: __ZN3std6thread6Thread5cname17h810fe7fb3e1633b1E, symObjAddr: 0x201A0, symBinAddr: 0x1004FD414, symSize: 0x44 }
  - { offset: 0xB4621, size: 0x8, addend: 0x0, symName: __ZN3std6thread6Thread5cname17h810fe7fb3e1633b1E, symObjAddr: 0x201A0, symBinAddr: 0x1004FD414, symSize: 0x44 }
  - { offset: 0xB4637, size: 0x8, addend: 0x0, symName: __ZN3std6thread6Thread5cname17h810fe7fb3e1633b1E, symObjAddr: 0x201A0, symBinAddr: 0x1004FD414, symSize: 0x44 }
  - { offset: 0xB4703, size: 0x8, addend: 0x0, symName: __ZN3std6thread6Thread8from_raw17h8805358b30fe3aa8E, symObjAddr: 0x201E4, symBinAddr: 0x1004FD458, symSize: 0x8 }
  - { offset: 0xB471B, size: 0x8, addend: 0x0, symName: __ZN3std6thread6Thread8from_raw17h8805358b30fe3aa8E, symObjAddr: 0x201E4, symBinAddr: 0x1004FD458, symSize: 0x8 }
  - { offset: 0xB4731, size: 0x8, addend: 0x0, symName: __ZN3std6thread6Thread8from_raw17h8805358b30fe3aa8E, symObjAddr: 0x201E4, symBinAddr: 0x1004FD458, symSize: 0x8 }
  - { offset: 0xB4747, size: 0x8, addend: 0x0, symName: __ZN3std6thread6Thread8from_raw17h8805358b30fe3aa8E, symObjAddr: 0x201E4, symBinAddr: 0x1004FD458, symSize: 0x8 }
  - { offset: 0xB475D, size: 0x8, addend: 0x0, symName: __ZN3std6thread6Thread8from_raw17h8805358b30fe3aa8E, symObjAddr: 0x201E4, symBinAddr: 0x1004FD458, symSize: 0x8 }
  - { offset: 0xB4815, size: 0x8, addend: 0x0, symName: __ZN3std6thread11sleep_until17h89eb07d9d6c717e1E, symObjAddr: 0x1FAE4, symBinAddr: 0x1004FCD9C, symSize: 0xE8 }
  - { offset: 0xB48FF, size: 0x8, addend: 0x0, symName: __ZN3std6thread12park_timeout17hc253ac48fe8b135eE, symObjAddr: 0x1FBCC, symBinAddr: 0x1004FCE84, symSize: 0x120 }
  - { offset: 0xB4B9D, size: 0x8, addend: 0x0, symName: __ZN3std6thread15park_timeout_ms17h0869d973d8e42c77E, symObjAddr: 0x1FCEC, symBinAddr: 0x1004FCFA4, symSize: 0x2C }
  - { offset: 0xB4BBC, size: 0x8, addend: 0x0, symName: __ZN3std6thread15park_timeout_ms17h0869d973d8e42c77E, symObjAddr: 0x1FCEC, symBinAddr: 0x1004FCFA4, symSize: 0x2C }
  - { offset: 0xB4BCF, size: 0x8, addend: 0x0, symName: __ZN3std6thread21available_parallelism17h5fb07f321e5feb3aE, symObjAddr: 0x1FD18, symBinAddr: 0x1004FCFD0, symSize: 0x50 }
  - { offset: 0xB4C5B, size: 0x8, addend: 0x0, symName: __ZN3std6thread4park17h58a22be9b37808a4E, symObjAddr: 0x1FD68, symBinAddr: 0x1004FD020, symSize: 0xC8 }
  - { offset: 0xB4EB8, size: 0x8, addend: 0x0, symName: __ZN3std6thread5sleep17hbbb1506f4c7bd0e7E, symObjAddr: 0x1FE74, symBinAddr: 0x1004FD0E8, symSize: 0xB4 }
  - { offset: 0xB4F2A, size: 0x8, addend: 0x0, symName: __ZN3std6thread6scoped9ScopeData29decrement_num_running_threads17hb2861865ef00c880E, symObjAddr: 0x201EC, symBinAddr: 0x1004FD460, symSize: 0x44 }
  - { offset: 0xB506C, size: 0x8, addend: 0x0, symName: __ZN3std6thread6scoped9ScopeData29increment_num_running_threads17h4a781a736a15c7b0E, symObjAddr: 0x20230, symBinAddr: 0x1004FD4A4, symSize: 0x20 }
  - { offset: 0xB508A, size: 0x8, addend: 0x0, symName: __ZN3std6thread6scoped9ScopeData29increment_num_running_threads17h4a781a736a15c7b0E, symObjAddr: 0x20230, symBinAddr: 0x1004FD4A4, symSize: 0x20 }
  - { offset: 0xB509F, size: 0x8, addend: 0x0, symName: __ZN3std6thread6scoped9ScopeData29increment_num_running_threads17h4a781a736a15c7b0E, symObjAddr: 0x20230, symBinAddr: 0x1004FD4A4, symSize: 0x20 }
  - { offset: 0xB50C9, size: 0x8, addend: 0x0, symName: __ZN3std6thread6scoped9ScopeData8overflow17h3b823ff29a9c3139E, symObjAddr: 0x20250, symBinAddr: 0x100597D08, symSize: 0x40 }
  - { offset: 0xB5100, size: 0x8, addend: 0x0, symName: '__ZN63_$LT$std..thread..scoped..Scope$u20$as$u20$core..fmt..Debug$GT$3fmt17hbf02f10d38da64f3E', symObjAddr: 0x452A4, symBinAddr: 0x10051ED2C, symSize: 0xB8 }
  - { offset: 0xB51C2, size: 0x8, addend: 0x0, symName: __ZN3std6thread7Builder4name17h091ef3ed2186dbbfE, symObjAddr: 0x20290, symBinAddr: 0x1004FD4C4, symSize: 0x7C }
  - { offset: 0xB5299, size: 0x8, addend: 0x0, symName: __ZN3std6thread8ThreadId3new9exhausted17h68ab401095d394baE, symObjAddr: 0x206E4, symBinAddr: 0x100597EAC, symSize: 0x38 }
  - { offset: 0xB52DB, size: 0x8, addend: 0x0, symName: __ZN3std6thread8sleep_ms17ha6b73d456376be3bE, symObjAddr: 0x2071C, symBinAddr: 0x1004FD7B4, symSize: 0xD8 }
  - { offset: 0xB538B, size: 0x8, addend: 0x0, symName: __ZN3std6thread9spawnhook15ChildSpawnHooks3run17hc73a94f78f475035E, symObjAddr: 0x207F4, symBinAddr: 0x1004FD88C, symSize: 0x268 }
  - { offset: 0xB5AE1, size: 0x8, addend: 0x0, symName: __ZN3std6thread9spawnhook15run_spawn_hooks17h49054efdbf16bad4E, symObjAddr: 0x20A5C, symBinAddr: 0x1004FDAF4, symSize: 0x29C }
  - { offset: 0xB6133, size: 0x8, addend: 0x0, symName: '__ZN76_$LT$std..thread..spawnhook..SpawnHooks$u20$as$u20$core..ops..drop..Drop$GT$4drop17hf5b4bcea6affec90E', symObjAddr: 0x48980, symBinAddr: 0x1005223C4, symSize: 0x104 }
  - { offset: 0xB6463, size: 0x8, addend: 0x0, symName: __ZN3std6thread9yield_now17hee9cddc862399ac8E, symObjAddr: 0x20CF8, symBinAddr: 0x1004FDD90, symSize: 0x4 }
  - { offset: 0xB6482, size: 0x8, addend: 0x0, symName: __ZN3std6thread9yield_now17hee9cddc862399ac8E, symObjAddr: 0x20CF8, symBinAddr: 0x1004FDD90, symSize: 0x4 }
  - { offset: 0xB64DA, size: 0x8, addend: 0x0, symName: '__ZN56_$LT$std..thread..Thread$u20$as$u20$core..fmt..Debug$GT$3fmt17h71a2ae6d5223e551E', symObjAddr: 0x33AA0, symBinAddr: 0x10050DB58, symSize: 0xCC }
  - { offset: 0xB6624, size: 0x8, addend: 0x0, symName: '__ZN58_$LT$std..thread..ThreadId$u20$as$u20$core..fmt..Debug$GT$3fmt17h55b39e8ef129b1f0E', symObjAddr: 0x34A2C, symBinAddr: 0x10050EAE4, symSize: 0x40 }
  - { offset: 0xB6646, size: 0x8, addend: 0x0, symName: '__ZN65_$LT$std..thread..PanicGuard$u20$as$u20$core..ops..drop..Drop$GT$4drop17h98aa6800d62ae13dE', symObjAddr: 0x460FC, symBinAddr: 0x10059B4F4, symSize: 0x44 }
  - { offset: 0xB66A6, size: 0x8, addend: 0x0, symName: __ZN3std12backtrace_rs5print17BacktraceFrameFmt21print_raw_with_column17hbc70be85f9e1f228E, symObjAddr: 0xC48, symBinAddr: 0x1004E0004, symSize: 0x438 }
  - { offset: 0xB692D, size: 0x8, addend: 0x0, symName: __ZN3std12backtrace_rs9backtrace9libunwind5trace8trace_fn17h1923d6bda419f666E, symObjAddr: 0x1080, symBinAddr: 0x1004E043C, symSize: 0x48 }
  - { offset: 0xB69AC, size: 0x8, addend: 0x0, symName: '__ZN85_$LT$std..backtrace_rs..backtrace..libunwind..Frame$u20$as$u20$core..clone..Clone$GT$5clone17h15aaa2e0ab06fbddE', symObjAddr: 0x4B4C8, symBinAddr: 0x100524EC8, symSize: 0x6C }
  - { offset: 0xB6A12, size: 0x8, addend: 0x0, symName: '__ZN87_$LT$std..backtrace_rs..backtrace..libunwind..Bomb$u20$as$u20$core..ops..drop..Drop$GT$4drop17he193a15a1e43619eE', symObjAddr: 0x4B798, symBinAddr: 0x100525198, symSize: 0x44 }
  - { offset: 0xB6A93, size: 0x8, addend: 0x0, symName: '__ZN72_$LT$std..backtrace_rs..backtrace..Frame$u20$as$u20$core..fmt..Debug$GT$3fmt17hd2b0d3fd3e0c2f19E', symObjAddr: 0x477D8, symBinAddr: 0x10052121C, symSize: 0xE0 }
  - { offset: 0xB6B42, size: 0x8, addend: 0x0, symName: '__ZN89_$LT$std..backtrace_rs..symbolize..gimli..mmap..Mmap$u20$as$u20$core..ops..drop..Drop$GT$4drop17h569f42ba70bc928bE', symObjAddr: 0x4B9C8, symBinAddr: 0x1005253C8, symSize: 0xC }
  - { offset: 0xB6B5D, size: 0x8, addend: 0x0, symName: '__ZN91_$LT$std..backtrace_rs..symbolize..gimli..mmap..Mmap$u20$as$u20$core..ops..deref..Deref$GT$5deref17haae16e7bfc4311dfE', symObjAddr: 0x4BA98, symBinAddr: 0x100525498, symSize: 0xC }
  - { offset: 0xB6B79, size: 0x8, addend: 0x0, symName: __ZN3std12backtrace_rs9symbolize5gimli4mmap17h56d1d2061b1c0339E, symObjAddr: 0x10C8, symBinAddr: 0x1004E0484, symSize: 0x1DC }
  - { offset: 0xB70A6, size: 0x8, addend: 0x0, symName: __ZN3std12backtrace_rs9symbolize5gimli5macho11find_header17hd5a6155137b0335aE, symObjAddr: 0x12A4, symBinAddr: 0x1004E0660, symSize: 0x1D4 }
  - { offset: 0xB70C4, size: 0x8, addend: 0x0, symName: __ZN3std12backtrace_rs9symbolize5gimli5macho11find_header17hd5a6155137b0335aE, symObjAddr: 0x12A4, symBinAddr: 0x1004E0660, symSize: 0x1D4 }
  - { offset: 0xB70D9, size: 0x8, addend: 0x0, symName: __ZN3std12backtrace_rs9symbolize5gimli5macho11find_header17hd5a6155137b0335aE, symObjAddr: 0x12A4, symBinAddr: 0x1004E0660, symSize: 0x1D4 }
  - { offset: 0xB70EE, size: 0x8, addend: 0x0, symName: __ZN3std12backtrace_rs9symbolize5gimli5macho11find_header17hd5a6155137b0335aE, symObjAddr: 0x12A4, symBinAddr: 0x1004E0660, symSize: 0x1D4 }
  - { offset: 0xB7103, size: 0x8, addend: 0x0, symName: __ZN3std12backtrace_rs9symbolize5gimli5macho11find_header17hd5a6155137b0335aE, symObjAddr: 0x12A4, symBinAddr: 0x1004E0660, symSize: 0x1D4 }
  - { offset: 0xB7119, size: 0x8, addend: 0x0, symName: __ZN3std12backtrace_rs9symbolize5gimli5macho11find_header17hd5a6155137b0335aE, symObjAddr: 0x12A4, symBinAddr: 0x1004E0660, symSize: 0x1D4 }
  - { offset: 0xB712F, size: 0x8, addend: 0x0, symName: __ZN3std12backtrace_rs9symbolize5gimli5macho11find_header17hd5a6155137b0335aE, symObjAddr: 0x12A4, symBinAddr: 0x1004E0660, symSize: 0x1D4 }
  - { offset: 0xB786A, size: 0x8, addend: 0x0, symName: __ZN3std12backtrace_rs9symbolize5gimli5macho6Object5parse17hd442739e3afdbe3fE, symObjAddr: 0x1478, symBinAddr: 0x1004E0834, symSize: 0xC9C }
  - { offset: 0xB962C, size: 0x8, addend: 0x0, symName: __ZN3std12backtrace_rs9symbolize5gimli5macho6Object7section17h64eadef34f4b86d5E, symObjAddr: 0x2114, symBinAddr: 0x1004E14D0, symSize: 0x154 }
  - { offset: 0xB9A43, size: 0x8, addend: 0x0, symName: __ZN3std12backtrace_rs9symbolize5gimli7Context11find_frames17h0b5dd36bc5ddf6e5E, symObjAddr: 0x2268, symBinAddr: 0x1004E1624, symSize: 0x394 }
  - { offset: 0xB9E26, size: 0x8, addend: 0x0, symName: __ZN3std12backtrace_rs9symbolize5gimli7Context3new17haaa7132b0402a195E, symObjAddr: 0x25FC, symBinAddr: 0x1004E19B8, symSize: 0x1FA8 }
  - { offset: 0xBDF4B, size: 0x8, addend: 0x0, symName: __ZN3std12backtrace_rs9symbolize5gimli7resolve17h75c802063f9cd4e1E, symObjAddr: 0x45A4, symBinAddr: 0x1004E3960, symSize: 0x25A4 }
  - { offset: 0xC38E8, size: 0x8, addend: 0x0, symName: __ZN3std12backtrace_rs9symbolize6Symbol12filename_raw17h11489b813a4abb40E, symObjAddr: 0x6B48, symBinAddr: 0x1004E5F04, symSize: 0x38 }
  - { offset: 0xC3922, size: 0x8, addend: 0x0, symName: __ZN3std12backtrace_rs9symbolize6Symbol4name17he5af028317cc6f6eE, symObjAddr: 0x6B80, symBinAddr: 0x1004E5F3C, symSize: 0xE4 }
  - { offset: 0xC3B16, size: 0x8, addend: 0x0, symName: '__ZN73_$LT$std..backtrace_rs..symbolize..Symbol$u20$as$u20$core..fmt..Debug$GT$3fmt17hf97004471b2c5e5eE', symObjAddr: 0x47B58, symBinAddr: 0x10052159C, symSize: 0xFC }
  - { offset: 0xC3B9F, size: 0x8, addend: 0x0, symName: '__ZN77_$LT$std..backtrace_rs..symbolize..SymbolName$u20$as$u20$core..fmt..Debug$GT$3fmt17hf2e970bfaa0ad137E', symObjAddr: 0x48AC4, symBinAddr: 0x100522508, symSize: 0x104 }
  - { offset: 0xC3C44, size: 0x8, addend: 0x0, symName: '__ZN79_$LT$std..backtrace_rs..symbolize..SymbolName$u20$as$u20$core..fmt..Display$GT$3fmt17hf3232031926e14d2E', symObjAddr: 0x49814, symBinAddr: 0x100523258, symSize: 0x104 }
  - { offset: 0xC3D29, size: 0x8, addend: 0x0, symName: __ZN3std2fs11OpenOptions5_open17hf9dfb02cfccd407dE, symObjAddr: 0x7198, symBinAddr: 0x1004E6554, symSize: 0xEC }
  - { offset: 0xC3E7B, size: 0x8, addend: 0x0, symName: __ZN3std2fs4File11lock_shared17h947cbd0a915815e4E, symObjAddr: 0x74F4, symBinAddr: 0x1004E68B0, symSize: 0x3C }
  - { offset: 0xC3F1F, size: 0x8, addend: 0x0, symName: __ZN3std2fs4File15set_permissions17hd4a103bd6c8545d2E, symObjAddr: 0x7530, symBinAddr: 0x1004E68EC, symSize: 0x54 }
  - { offset: 0xC3FD7, size: 0x8, addend: 0x0, symName: __ZN3std2fs4File15try_lock_shared17h24f775144121af40E, symObjAddr: 0x7584, symBinAddr: 0x1004E6940, symSize: 0x58 }
  - { offset: 0xC4091, size: 0x8, addend: 0x0, symName: __ZN3std2fs4File4lock17hebf535608b536a9dE, symObjAddr: 0x75DC, symBinAddr: 0x1004E6998, symSize: 0x3C }
  - { offset: 0xC4135, size: 0x8, addend: 0x0, symName: __ZN3std2fs4File6unlock17hda71e82341b520a6E, symObjAddr: 0x7618, symBinAddr: 0x1004E69D4, symSize: 0x3C }
  - { offset: 0xC41D9, size: 0x8, addend: 0x0, symName: __ZN3std2fs4File7set_len17h49293fcc0195656bE, symObjAddr: 0x7654, symBinAddr: 0x1004E6A10, symSize: 0x68 }
  - { offset: 0xC42D7, size: 0x8, addend: 0x0, symName: __ZN3std2fs4File8metadata17h35ca2d67af063279E, symObjAddr: 0x76BC, symBinAddr: 0x1004E6A78, symSize: 0xAC }
  - { offset: 0xC43DC, size: 0x8, addend: 0x0, symName: __ZN3std2fs4File8sync_all17h7815da9a0eebf929E, symObjAddr: 0x7768, symBinAddr: 0x1004E6B24, symSize: 0x50 }
  - { offset: 0xC44B2, size: 0x8, addend: 0x0, symName: __ZN3std2fs4File8try_lock17hec3ddb8e968ebf15E, symObjAddr: 0x77B8, symBinAddr: 0x1004E6B74, symSize: 0x58 }
  - { offset: 0xC456C, size: 0x8, addend: 0x0, symName: __ZN3std2fs4File9set_times17hffd210e274f15fcfE, symObjAddr: 0x7810, symBinAddr: 0x1004E6BCC, symSize: 0x134 }
  - { offset: 0xC4695, size: 0x8, addend: 0x0, symName: __ZN3std2fs4File9try_clone17ha71701285185834cE, symObjAddr: 0x7944, symBinAddr: 0x1004E6D00, symSize: 0x68 }
  - { offset: 0xC47B5, size: 0x8, addend: 0x0, symName: __ZN3std2fs8DirEntry4path17ha5972829583073eeE, symObjAddr: 0x8060, symBinAddr: 0x1004E741C, symSize: 0x18 }
  - { offset: 0xC47CD, size: 0x8, addend: 0x0, symName: __ZN3std2fs8DirEntry4path17ha5972829583073eeE, symObjAddr: 0x8060, symBinAddr: 0x1004E741C, symSize: 0x18 }
  - { offset: 0xC47E3, size: 0x8, addend: 0x0, symName: __ZN3std2fs8DirEntry4path17ha5972829583073eeE, symObjAddr: 0x8060, symBinAddr: 0x1004E741C, symSize: 0x18 }
  - { offset: 0xC47F9, size: 0x8, addend: 0x0, symName: __ZN3std2fs8DirEntry4path17ha5972829583073eeE, symObjAddr: 0x8060, symBinAddr: 0x1004E741C, symSize: 0x18 }
  - { offset: 0xC480F, size: 0x8, addend: 0x0, symName: __ZN3std2fs8DirEntry4path17ha5972829583073eeE, symObjAddr: 0x8060, symBinAddr: 0x1004E741C, symSize: 0x18 }
  - { offset: 0xC4964, size: 0x8, addend: 0x0, symName: __ZN3std2fs8DirEntry8metadata17h450d2cf349c6a4b5E, symObjAddr: 0x8078, symBinAddr: 0x1004E7434, symSize: 0xA0 }
  - { offset: 0xC4996, size: 0x8, addend: 0x0, symName: __ZN3std2fs8DirEntry9file_name17h76025a8e89f5e0a5E, symObjAddr: 0x8118, symBinAddr: 0x1004E74D4, symSize: 0x70 }
  - { offset: 0xC4AEE, size: 0x8, addend: 0x0, symName: __ZN3std2fs8DirEntry9file_type17h253c3c64df36dd5cE, symObjAddr: 0x8188, symBinAddr: 0x1004E7544, symSize: 0x88 }
  - { offset: 0xC4B3B, size: 0x8, addend: 0x0, symName: __ZN3std2fs10DirBuilder14create_dir_all17h68f000f5d0fba603E, symObjAddr: 0x6C64, symBinAddr: 0x1004E6020, symSize: 0x46C }
  - { offset: 0xC535F, size: 0x8, addend: 0x0, symName: __ZN3std2fs10DirBuilder7_create17h14f28987dc0a4cf6E, symObjAddr: 0x70D0, symBinAddr: 0x1004E648C, symSize: 0xC8 }
  - { offset: 0xC548A, size: 0x8, addend: 0x0, symName: __ZN3std2fs14read_to_string5inner17hba1ec49165be1912E, symObjAddr: 0x7284, symBinAddr: 0x1004E6640, symSize: 0x270 }
  - { offset: 0xC5AC2, size: 0x8, addend: 0x0, symName: __ZN3std2fs4read5inner17h9b01ff119d7da6a2E, symObjAddr: 0x79AC, symBinAddr: 0x1004E6D68, symSize: 0x1FC }
  - { offset: 0xC5FE7, size: 0x8, addend: 0x0, symName: '__ZN52_$LT$$RF$std..fs..File$u20$as$u20$std..io..Write$GT$14write_vectored17hdb049723b5dfc47cE', symObjAddr: 0x32834, symBinAddr: 0x10050C8EC, symSize: 0x58 }
  - { offset: 0xC60DE, size: 0x8, addend: 0x0, symName: '__ZN52_$LT$$RF$std..fs..File$u20$as$u20$std..io..Write$GT$5write17h66230aecf3f7a69bE', symObjAddr: 0x3288C, symBinAddr: 0x10050C944, symSize: 0x58 }
  - { offset: 0xC61EA, size: 0x8, addend: 0x0, symName: '__ZN48_$LT$std..fs..File$u20$as$u20$std..io..Write$GT$14write_vectored17h30acffa1e0a01d33E', symObjAddr: 0x23DCC, symBinAddr: 0x100500D04, symSize: 0x54 }
  - { offset: 0xC62F8, size: 0x8, addend: 0x0, symName: '__ZN48_$LT$std..fs..File$u20$as$u20$std..io..Write$GT$5write17h40c980cef635504aE', symObjAddr: 0x23E20, symBinAddr: 0x100500D58, symSize: 0x54 }
  - { offset: 0xC641B, size: 0x8, addend: 0x0, symName: __ZN3std2fs5write5inner17hf7b3dcc447dce24eE, symObjAddr: 0x7BA8, symBinAddr: 0x1004E6F64, symSize: 0x1A4 }
  - { offset: 0xC6765, size: 0x8, addend: 0x0, symName: '__ZN3std2fs81_$LT$impl$u20$std..io..Read$u20$for$u20$alloc..sync..Arc$LT$std..fs..File$GT$$GT$11read_to_end17h7332f05a0bfea3fcE', symObjAddr: 0x7D4C, symBinAddr: 0x1004E7108, symSize: 0x2C }
  - { offset: 0xC67C5, size: 0x8, addend: 0x0, symName: '__ZN3std2fs81_$LT$impl$u20$std..io..Read$u20$for$u20$alloc..sync..Arc$LT$std..fs..File$GT$$GT$13read_vectored17hf8bf5c75838c3b15E', symObjAddr: 0x7D78, symBinAddr: 0x1004E7134, symSize: 0x58 }
  - { offset: 0xC6948, size: 0x8, addend: 0x0, symName: '__ZN3std2fs81_$LT$impl$u20$std..io..Read$u20$for$u20$alloc..sync..Arc$LT$std..fs..File$GT$$GT$14read_to_string17hc255d719923f4959E', symObjAddr: 0x7DD0, symBinAddr: 0x1004E718C, symSize: 0x2C }
  - { offset: 0xC69A8, size: 0x8, addend: 0x0, symName: '__ZN3std2fs81_$LT$impl$u20$std..io..Read$u20$for$u20$alloc..sync..Arc$LT$std..fs..File$GT$$GT$4read17haf9b8d8a58c1ff3aE', symObjAddr: 0x7DFC, symBinAddr: 0x1004E71B8, symSize: 0x58 }
  - { offset: 0xC6B2B, size: 0x8, addend: 0x0, symName: '__ZN3std2fs81_$LT$impl$u20$std..io..Read$u20$for$u20$alloc..sync..Arc$LT$std..fs..File$GT$$GT$8read_buf17h9f2b5db8b828aa7cE', symObjAddr: 0x7E54, symBinAddr: 0x1004E7210, symSize: 0x7C }
  - { offset: 0xC6DC8, size: 0x8, addend: 0x0, symName: '__ZN51_$LT$$RF$std..fs..File$u20$as$u20$std..io..Read$GT$11read_to_end17h6f42b1280329bbbaE', symObjAddr: 0x322F0, symBinAddr: 0x10050C3A8, symSize: 0x138 }
  - { offset: 0xC70B4, size: 0x8, addend: 0x0, symName: '__ZN51_$LT$$RF$std..fs..File$u20$as$u20$std..io..Read$GT$14read_to_string17h0fe38c3a1308df49E', symObjAddr: 0x32428, symBinAddr: 0x10050C4E0, symSize: 0x164 }
  - { offset: 0xC746C, size: 0x8, addend: 0x0, symName: '__ZN3std2fs81_$LT$impl$u20$std..io..Seek$u20$for$u20$alloc..sync..Arc$LT$std..fs..File$GT$$GT$10stream_len17h66121ed746ca8ec5E', symObjAddr: 0x7ED0, symBinAddr: 0x1004E728C, symSize: 0x2C }
  - { offset: 0xC74CC, size: 0x8, addend: 0x0, symName: '__ZN3std2fs81_$LT$impl$u20$std..io..Seek$u20$for$u20$alloc..sync..Arc$LT$std..fs..File$GT$$GT$15stream_position17h889c73f0089d7fcbE', symObjAddr: 0x7EFC, symBinAddr: 0x1004E72B8, symSize: 0x54 }
  - { offset: 0xC75F8, size: 0x8, addend: 0x0, symName: '__ZN3std2fs81_$LT$impl$u20$std..io..Seek$u20$for$u20$alloc..sync..Arc$LT$std..fs..File$GT$$GT$4seek17hf8a11d8dc32de22bE', symObjAddr: 0x7F50, symBinAddr: 0x1004E730C, symSize: 0x60 }
  - { offset: 0xC7730, size: 0x8, addend: 0x0, symName: '__ZN51_$LT$$RF$std..fs..File$u20$as$u20$std..io..Seek$GT$10stream_len17h55806573e671c487E', symObjAddr: 0x3258C, symBinAddr: 0x10050C644, symSize: 0xFC }
  - { offset: 0xC796C, size: 0x8, addend: 0x0, symName: '__ZN51_$LT$$RF$std..fs..File$u20$as$u20$std..io..Seek$GT$15stream_position17h86010739e17f9a22E', symObjAddr: 0x32688, symBinAddr: 0x10050C740, symSize: 0x54 }
  - { offset: 0xC7A36, size: 0x8, addend: 0x0, symName: '__ZN51_$LT$$RF$std..fs..File$u20$as$u20$std..io..Seek$GT$4seek17ha538d9b7eb1cfeccE', symObjAddr: 0x326DC, symBinAddr: 0x10050C794, symSize: 0x60 }
  - { offset: 0xC7AF0, size: 0x8, addend: 0x0, symName: '__ZN3std2fs82_$LT$impl$u20$std..io..Write$u20$for$u20$alloc..sync..Arc$LT$std..fs..File$GT$$GT$14write_vectored17hb8492075fde96dfbE', symObjAddr: 0x7FB0, symBinAddr: 0x1004E736C, symSize: 0x58 }
  - { offset: 0xC7C49, size: 0x8, addend: 0x0, symName: '__ZN3std2fs82_$LT$impl$u20$std..io..Write$u20$for$u20$alloc..sync..Arc$LT$std..fs..File$GT$$GT$5write17h67df746a2f4ec883E', symObjAddr: 0x8008, symBinAddr: 0x1004E73C4, symSize: 0x58 }
  - { offset: 0xC7DA9, size: 0x8, addend: 0x0, symName: __ZN3std2fs8Metadata7created17h7bbee31a888a149dE, symObjAddr: 0x8210, symBinAddr: 0x1004E75CC, symSize: 0x64 }
  - { offset: 0xC7E0A, size: 0x8, addend: 0x0, symName: __ZN3std2fs8Metadata8accessed17haff71d7851e6c0d6E, symObjAddr: 0x8274, symBinAddr: 0x1004E7630, symSize: 0x64 }
  - { offset: 0xC7E6B, size: 0x8, addend: 0x0, symName: __ZN3std2fs8Metadata8modified17h9de56c222b3101fdE, symObjAddr: 0x82D8, symBinAddr: 0x1004E7694, symSize: 0x64 }
  - { offset: 0xC7F6D, size: 0x8, addend: 0x0, symName: '__ZN47_$LT$std..fs..File$u20$as$u20$std..io..Read$GT$11read_to_end17ha7b2b390cc78bf6bE', symObjAddr: 0x23B94, symBinAddr: 0x100500ACC, symSize: 0x24 }
  - { offset: 0xC7F81, size: 0x8, addend: 0x0, symName: '__ZN47_$LT$std..fs..File$u20$as$u20$std..io..Read$GT$13read_vectored17h34abd5212809428dE', symObjAddr: 0x23BB8, symBinAddr: 0x100500AF0, symSize: 0x54 }
  - { offset: 0xC80B9, size: 0x8, addend: 0x0, symName: '__ZN47_$LT$std..fs..File$u20$as$u20$std..io..Read$GT$14read_to_string17hd3d8ac4ac033a2a4E', symObjAddr: 0x23C0C, symBinAddr: 0x100500B44, symSize: 0x24 }
  - { offset: 0xC80CD, size: 0x8, addend: 0x0, symName: '__ZN47_$LT$std..fs..File$u20$as$u20$std..io..Read$GT$4read17h2e5e58e3e0fca49eE', symObjAddr: 0x23C30, symBinAddr: 0x100500B68, symSize: 0x54 }
  - { offset: 0xC8205, size: 0x8, addend: 0x0, symName: '__ZN47_$LT$std..fs..File$u20$as$u20$std..io..Read$GT$8read_buf17h80f09fe02509aaaeE', symObjAddr: 0x23C84, symBinAddr: 0x100500BBC, symSize: 0x78 }
  - { offset: 0xC8496, size: 0x8, addend: 0x0, symName: '__ZN47_$LT$std..fs..File$u20$as$u20$std..io..Seek$GT$10stream_len17h1ef6201105f5570fE', symObjAddr: 0x23CFC, symBinAddr: 0x100500C34, symSize: 0x24 }
  - { offset: 0xC84B1, size: 0x8, addend: 0x0, symName: '__ZN47_$LT$std..fs..File$u20$as$u20$std..io..Seek$GT$15stream_position17h6506f6e8fe0e5283E', symObjAddr: 0x23D20, symBinAddr: 0x100500C58, symSize: 0x50 }
  - { offset: 0xC8599, size: 0x8, addend: 0x0, symName: '__ZN47_$LT$std..fs..File$u20$as$u20$std..io..Seek$GT$4seek17he4b7f84ba6a02fd2E', symObjAddr: 0x23D70, symBinAddr: 0x100500CA8, symSize: 0x5C }
  - { offset: 0xC8671, size: 0x8, addend: 0x0, symName: '__ZN50_$LT$std..fs..File$u20$as$u20$core..fmt..Debug$GT$3fmt17h773e1b57ed7847b6E', symObjAddr: 0x322EC, symBinAddr: 0x10050C3A4, symSize: 0x4 }
  - { offset: 0xC86A1, size: 0x8, addend: 0x0, symName: '__ZN54_$LT$std..fs..DirEntry$u20$as$u20$core..fmt..Debug$GT$3fmt17he527c6ed52956061E', symObjAddr: 0x32AA8, symBinAddr: 0x10050CB60, symSize: 0xB0 }
  - { offset: 0xC89CA, size: 0x8, addend: 0x0, symName: '__ZN54_$LT$std..fs..FileType$u20$as$u20$core..fmt..Debug$GT$3fmt17h7ce41488e732e22fE', symObjAddr: 0x32B58, symBinAddr: 0x10050CC10, symSize: 0xC8 }
  - { offset: 0xC8AE8, size: 0x8, addend: 0x0, symName: '__ZN54_$LT$std..fs..Metadata$u20$as$u20$core..fmt..Debug$GT$3fmt17ha283e0b2cba0a9adE', symObjAddr: 0x32C20, symBinAddr: 0x10050CCD8, symSize: 0x1F0 }
  - { offset: 0xC8C20, size: 0x8, addend: 0x0, symName: '__ZN57_$LT$std..fs..Permissions$u20$as$u20$core..fmt..Debug$GT$3fmt17h1026b2c6abd4dbf8E', symObjAddr: 0x33C1C, symBinAddr: 0x10050DCD4, symSize: 0x40 }
  - { offset: 0xC8C41, size: 0x8, addend: 0x0, symName: '__ZN58_$LT$std..fs..TryLockError$u20$as$u20$core..fmt..Debug$GT$3fmt17h5cdb7c0e0683c93aE', symObjAddr: 0x343E0, symBinAddr: 0x10050E498, symSize: 0x24 }
  - { offset: 0xC8C7A, size: 0x8, addend: 0x0, symName: '__ZN60_$LT$std..fs..TryLockError$u20$as$u20$core..fmt..Display$GT$3fmt17h12d54f95f1d9f293E', symObjAddr: 0x41D60, symBinAddr: 0x10051B7E8, symSize: 0x30 }
  - { offset: 0xC8CB1, size: 0x8, addend: 0x0, symName: '__ZN75_$LT$std..fs..ReadDir$u20$as$u20$core..iter..traits..iterator..Iterator$GT$4next17h0adea9aba7bfe783E', symObjAddr: 0x48174, symBinAddr: 0x100521BB8, symSize: 0x18C }
  - { offset: 0xC8F5A, size: 0x8, addend: 0x0, symName: __ZN3std3ffi6os_str5OsStr14into_os_string17hf3606697b91af37cE, symObjAddr: 0xD5BC, symBinAddr: 0x1004EC724, symSize: 0xC }
  - { offset: 0xC8F75, size: 0x8, addend: 0x0, symName: __ZN3std3ffi6os_str5OsStr18to_ascii_lowercase17he7035a8a1221efefE, symObjAddr: 0xD5C8, symBinAddr: 0x1004EC730, symSize: 0x194 }
  - { offset: 0xC9150, size: 0x8, addend: 0x0, symName: __ZN3std3ffi6os_str5OsStr18to_ascii_uppercase17h8ead84fca5dcdc6eE, symObjAddr: 0xD75C, symBinAddr: 0x1004EC8C4, symSize: 0x194 }
  - { offset: 0xC93DF, size: 0x8, addend: 0x0, symName: __ZN3std3ffi6os_str8OsString17into_boxed_os_str17h74e7fa0d8b85099aE, symObjAddr: 0xD8F0, symBinAddr: 0x1004ECA58, symSize: 0x98 }
  - { offset: 0xC98D5, size: 0x8, addend: 0x0, symName: '__ZN3std3ffi6os_str95_$LT$impl$u20$core..convert..TryFrom$LT$$RF$std..ffi..os_str..OsStr$GT$$u20$for$u20$$RF$str$GT$8try_from17h0d344e58dc0ecbbaE', symObjAddr: 0xD988, symBinAddr: 0x1004ECAF0, symSize: 0x4 }
  - { offset: 0xC98F4, size: 0x8, addend: 0x0, symName: '__ZN3std3ffi6os_str95_$LT$impl$u20$core..convert..TryFrom$LT$$RF$std..ffi..os_str..OsStr$GT$$u20$for$u20$$RF$str$GT$8try_from17h0d344e58dc0ecbbaE', symObjAddr: 0xD988, symBinAddr: 0x1004ECAF0, symSize: 0x4 }
  - { offset: 0xC9A81, size: 0x8, addend: 0x0, symName: '__ZN62_$LT$std..ffi..os_str..Display$u20$as$u20$core..fmt..Debug$GT$3fmt17hac7f877850cbcff3E', symObjAddr: 0x44AC4, symBinAddr: 0x10051E54C, symSize: 0x28 }
  - { offset: 0xC9AF7, size: 0x8, addend: 0x0, symName: '__ZN63_$LT$std..ffi..os_str..OsString$u20$as$u20$core..fmt..Write$GT$9write_str17h0876d89b6bf8deaaE', symObjAddr: 0x450C4, symBinAddr: 0x10051EB4C, symSize: 0x80 }
  - { offset: 0xC9C78, size: 0x8, addend: 0x0, symName: '__ZN64_$LT$std..ffi..os_str..Display$u20$as$u20$core..fmt..Display$GT$3fmt17hd588eae5435de492E', symObjAddr: 0x45A00, symBinAddr: 0x10051F488, symSize: 0xAC }
  - { offset: 0xC9D11, size: 0x8, addend: 0x0, symName: '__ZN3std4sync6poison5mutex14Mutex$LT$T$GT$4lock17h1f09923be7dd830dE', symObjAddr: 0x1EDC8, symBinAddr: 0x1004FC20C, symSize: 0x78 }
  - { offset: 0xCA01B, size: 0x8, addend: 0x0, symName: '__ZN3std4sync6poison6rwlock15RwLock$LT$T$GT$5write17h153739fa3dbdf9a8E', symObjAddr: 0x1EE40, symBinAddr: 0x1004FC284, symSize: 0x228 }
  - { offset: 0xCA722, size: 0x8, addend: 0x0, symName: '__ZN3std4sync6poison6rwlock15RwLock$LT$T$GT$5write17haf70c1801d4491e1E', symObjAddr: 0x1F068, symBinAddr: 0x1004FC4AC, symSize: 0x228 }
  - { offset: 0xCAED8, size: 0x8, addend: 0x0, symName: __ZN3std4sync6poison7condvar7Condvar10notify_all17h980e0991b0798be9E, symObjAddr: 0x1F290, symBinAddr: 0x1004FC6D4, symSize: 0x28 }
  - { offset: 0xCAF75, size: 0x8, addend: 0x0, symName: __ZN3std4sync6poison7condvar7Condvar10notify_one17h26000b595a0a7927E, symObjAddr: 0x1F2B8, symBinAddr: 0x1004FC6FC, symSize: 0x28 }
  - { offset: 0xCB019, size: 0x8, addend: 0x0, symName: '__ZN72_$LT$std..sync..poison..condvar..Condvar$u20$as$u20$core..fmt..Debug$GT$3fmt17h945f628af180f158E', symObjAddr: 0x47A38, symBinAddr: 0x10052147C, symSize: 0x38 }
  - { offset: 0xCB06C, size: 0x8, addend: 0x0, symName: __ZN3std4sync4once4Once10wait_force17h9c2aebea130cc1d8E, symObjAddr: 0x1E8A0, symBinAddr: 0x1004FBCE4, symSize: 0x1C }
  - { offset: 0xCB08B, size: 0x8, addend: 0x0, symName: __ZN3std4sync4once4Once10wait_force17h9c2aebea130cc1d8E, symObjAddr: 0x1E8A0, symBinAddr: 0x1004FBCE4, symSize: 0x1C }
  - { offset: 0xCB0A1, size: 0x8, addend: 0x0, symName: __ZN3std4sync4once4Once10wait_force17h9c2aebea130cc1d8E, symObjAddr: 0x1E8A0, symBinAddr: 0x1004FBCE4, symSize: 0x1C }
  - { offset: 0xCB0B6, size: 0x8, addend: 0x0, symName: __ZN3std4sync4once4Once10wait_force17h9c2aebea130cc1d8E, symObjAddr: 0x1E8A0, symBinAddr: 0x1004FBCE4, symSize: 0x1C }
  - { offset: 0xCB0CB, size: 0x8, addend: 0x0, symName: __ZN3std4sync4once4Once4wait17hcd86d81b1095eb52E, symObjAddr: 0x1EB8C, symBinAddr: 0x1004FBFD0, symSize: 0x1C }
  - { offset: 0xCB0EA, size: 0x8, addend: 0x0, symName: __ZN3std4sync4once4Once4wait17hcd86d81b1095eb52E, symObjAddr: 0x1EB8C, symBinAddr: 0x1004FBFD0, symSize: 0x1C }
  - { offset: 0xCB100, size: 0x8, addend: 0x0, symName: __ZN3std4sync4once4Once4wait17hcd86d81b1095eb52E, symObjAddr: 0x1EB8C, symBinAddr: 0x1004FBFD0, symSize: 0x1C }
  - { offset: 0xCB115, size: 0x8, addend: 0x0, symName: __ZN3std4sync4once4Once4wait17hcd86d81b1095eb52E, symObjAddr: 0x1EB8C, symBinAddr: 0x1004FBFD0, symSize: 0x1C }
  - { offset: 0xCB179, size: 0x8, addend: 0x0, symName: '__ZN3std4sync4once4Once15call_once_force28_$u7b$$u7b$closure$u7d$$u7d$17h9d38321cd98d6efbE', symObjAddr: 0x1E8BC, symBinAddr: 0x1004FBD00, symSize: 0x194 }
  - { offset: 0xCB4DB, size: 0x8, addend: 0x0, symName: '__ZN3std4sync4once4Once15call_once_force28_$u7b$$u7b$closure$u7d$$u7d$17h9ec593f088033c19E', symObjAddr: 0x1EA50, symBinAddr: 0x1004FBE94, symSize: 0x60 }
  - { offset: 0xCB599, size: 0x8, addend: 0x0, symName: '__ZN3std4sync4once4Once15call_once_force28_$u7b$$u7b$closure$u7d$$u7d$17hab87cbe584998266E', symObjAddr: 0x1EAB0, symBinAddr: 0x1004FBEF4, symSize: 0x70 }
  - { offset: 0xCB6E2, size: 0x8, addend: 0x0, symName: '__ZN3std4sync4once4Once15call_once_force28_$u7b$$u7b$closure$u7d$$u7d$17hcf89d9c7e99d6046E', symObjAddr: 0x1EB20, symBinAddr: 0x1004FBF64, symSize: 0x6C }
  - { offset: 0xCB83C, size: 0x8, addend: 0x0, symName: '__ZN3std4sync4once4Once9call_once28_$u7b$$u7b$closure$u7d$$u7d$17ha589d224c75b59d7E', symObjAddr: 0x1EBA8, symBinAddr: 0x1004FBFEC, symSize: 0x220 }
  - { offset: 0xCBF9A, size: 0x8, addend: 0x0, symName: '__ZN58_$LT$std..sync..once..Once$u20$as$u20$core..fmt..Debug$GT$3fmt17h4989bcbe8168edb8E', symObjAddr: 0x349F4, symBinAddr: 0x10050EAAC, symSize: 0x38 }
  - { offset: 0xCBFD1, size: 0x8, addend: 0x0, symName: '__ZN63_$LT$std..sync..once..OnceState$u20$as$u20$core..fmt..Debug$GT$3fmt17h863da4f22bcfdcabE', symObjAddr: 0x451BC, symBinAddr: 0x10051EC44, symSize: 0x6C }
  - { offset: 0xCC0CD, size: 0x8, addend: 0x0, symName: '__ZN3std4sync9once_lock17OnceLock$LT$T$GT$10initialize17h11843f2a3920cae5E', symObjAddr: 0x1F474, symBinAddr: 0x100597B70, symSize: 0x58 }
  - { offset: 0xCC0F9, size: 0x8, addend: 0x0, symName: '__ZN3std4sync9once_lock17OnceLock$LT$T$GT$10initialize17h11843f2a3920cae5E', symObjAddr: 0x1F474, symBinAddr: 0x100597B70, symSize: 0x58 }
  - { offset: 0xCC10E, size: 0x8, addend: 0x0, symName: '__ZN3std4sync9once_lock17OnceLock$LT$T$GT$10initialize17h11843f2a3920cae5E', symObjAddr: 0x1F474, symBinAddr: 0x100597B70, symSize: 0x58 }
  - { offset: 0xCC123, size: 0x8, addend: 0x0, symName: '__ZN3std4sync9once_lock17OnceLock$LT$T$GT$10initialize17h11843f2a3920cae5E', symObjAddr: 0x1F474, symBinAddr: 0x100597B70, symSize: 0x58 }
  - { offset: 0xCC139, size: 0x8, addend: 0x0, symName: '__ZN3std4sync9once_lock17OnceLock$LT$T$GT$10initialize17ha7fce30d4e4b5780E', symObjAddr: 0x1F4CC, symBinAddr: 0x100597BC8, symSize: 0x60 }
  - { offset: 0xCC165, size: 0x8, addend: 0x0, symName: '__ZN3std4sync9once_lock17OnceLock$LT$T$GT$10initialize17ha7fce30d4e4b5780E', symObjAddr: 0x1F4CC, symBinAddr: 0x100597BC8, symSize: 0x60 }
  - { offset: 0xCC17A, size: 0x8, addend: 0x0, symName: '__ZN3std4sync9once_lock17OnceLock$LT$T$GT$10initialize17ha7fce30d4e4b5780E', symObjAddr: 0x1F4CC, symBinAddr: 0x100597BC8, symSize: 0x60 }
  - { offset: 0xCC18F, size: 0x8, addend: 0x0, symName: '__ZN3std4sync9once_lock17OnceLock$LT$T$GT$10initialize17ha7fce30d4e4b5780E', symObjAddr: 0x1F4CC, symBinAddr: 0x100597BC8, symSize: 0x60 }
  - { offset: 0xCC1A5, size: 0x8, addend: 0x0, symName: '__ZN3std4sync9once_lock17OnceLock$LT$T$GT$10initialize17hd3a3492dd518ec41E', symObjAddr: 0x1F52C, symBinAddr: 0x100597C28, symSize: 0x64 }
  - { offset: 0xCC1D1, size: 0x8, addend: 0x0, symName: '__ZN3std4sync9once_lock17OnceLock$LT$T$GT$10initialize17hd3a3492dd518ec41E', symObjAddr: 0x1F52C, symBinAddr: 0x100597C28, symSize: 0x64 }
  - { offset: 0xCC1E6, size: 0x8, addend: 0x0, symName: '__ZN3std4sync9once_lock17OnceLock$LT$T$GT$10initialize17hd3a3492dd518ec41E', symObjAddr: 0x1F52C, symBinAddr: 0x100597C28, symSize: 0x64 }
  - { offset: 0xCC1FB, size: 0x8, addend: 0x0, symName: '__ZN3std4sync9once_lock17OnceLock$LT$T$GT$10initialize17hd3a3492dd518ec41E', symObjAddr: 0x1F52C, symBinAddr: 0x100597C28, symSize: 0x64 }
  - { offset: 0xCC422, size: 0x8, addend: 0x0, symName: __ZN3std4sync4mpmc7context7Context3new17h286506fcbf35e4c8E, symObjAddr: 0x1E758, symBinAddr: 0x1005979F0, symSize: 0x148 }
  - { offset: 0xCC81A, size: 0x8, addend: 0x0, symName: '__ZN69_$LT$std..sync..mpmc..zero..ZeroToken$u20$as$u20$core..fmt..Debug$GT$3fmt17h4e5b086a1c9814ceE', symObjAddr: 0x46B0C, symBinAddr: 0x100520550, symSize: 0x48 }
  - { offset: 0xCC886, size: 0x8, addend: 0x0, symName: __ZN3std4sync9lazy_lock14panic_poisoned17h9c4c995a75b37abbE, symObjAddr: 0x1F43C, symBinAddr: 0x100597B38, symSize: 0x38 }
  - { offset: 0xCC98B, size: 0x8, addend: 0x0, symName: '__ZN69_$LT$std..sync..nonpoison..WouldBlock$u20$as$u20$core..fmt..Debug$GT$3fmt17h6955649f4028d0c6E', symObjAddr: 0x46B54, symBinAddr: 0x100520598, symSize: 0x14 }
  - { offset: 0xCC9AD, size: 0x8, addend: 0x0, symName: '__ZN71_$LT$std..sync..nonpoison..WouldBlock$u20$as$u20$core..fmt..Display$GT$3fmt17hcfb36725ebb36d7eE', symObjAddr: 0x475D8, symBinAddr: 0x10052101C, symSize: 0x14 }
  - { offset: 0xCC9D6, size: 0x8, addend: 0x0, symName: __ZN3std4sync7barrier7Barrier4wait17h9d461c011e96ff06E, symObjAddr: 0x1F2E0, symBinAddr: 0x1004FC724, symSize: 0x15C }
  - { offset: 0xCCCE0, size: 0x8, addend: 0x0, symName: '__ZN64_$LT$std..sync..barrier..Barrier$u20$as$u20$core..fmt..Debug$GT$3fmt17h0d37664de1134e38E', symObjAddr: 0x45CC8, symBinAddr: 0x10051F750, symSize: 0x38 }
  - { offset: 0xCCD15, size: 0x8, addend: 0x0, symName: '__ZN74_$LT$std..sync..barrier..BarrierWaitResult$u20$as$u20$core..fmt..Debug$GT$3fmt17h86459de77f7fded3E', symObjAddr: 0x48024, symBinAddr: 0x100521A68, symSize: 0x6C }
  - { offset: 0xCCD53, size: 0x8, addend: 0x0, symName: '__ZN65_$LT$std..sync..mpsc..RecvError$u20$as$u20$core..fmt..Display$GT$3fmt17h84f9f3a03432a6ffE', symObjAddr: 0x45EFC, symBinAddr: 0x10051F984, symSize: 0x14 }
  - { offset: 0xCCD76, size: 0x8, addend: 0x0, symName: '__ZN68_$LT$std..sync..mpsc..TryRecvError$u20$as$u20$core..fmt..Display$GT$3fmt17h756d8188407f2ed6E', symObjAddr: 0x46980, symBinAddr: 0x1005203C4, symSize: 0x28 }
  - { offset: 0xCCD99, size: 0x8, addend: 0x0, symName: '__ZN72_$LT$std..sync..mpsc..RecvTimeoutError$u20$as$u20$core..fmt..Display$GT$3fmt17hd3aa2c05b0f067f9E', symObjAddr: 0x47A08, symBinAddr: 0x10052144C, symSize: 0x30 }
  - { offset: 0xCCE04, size: 0x8, addend: 0x0, symName: __ZN3std5panic13resume_unwind17h70d5b04f59a20b48E, symObjAddr: 0x1F9AC, symBinAddr: 0x100597CB8, symSize: 0xC }
  - { offset: 0xCCE42, size: 0x8, addend: 0x0, symName: __ZN3std5panic19get_backtrace_style17h3479dd24d1b0bdcbE, symObjAddr: 0x1F9B8, symBinAddr: 0x1004FCC70, symSize: 0x11C }
  - { offset: 0xCCE61, size: 0x8, addend: 0x0, symName: __ZN3std5panic19get_backtrace_style17h3479dd24d1b0bdcbE, symObjAddr: 0x1F9B8, symBinAddr: 0x1004FCC70, symSize: 0x11C }
  - { offset: 0xCCE77, size: 0x8, addend: 0x0, symName: __ZN3std5panic19get_backtrace_style17h3479dd24d1b0bdcbE, symObjAddr: 0x1F9B8, symBinAddr: 0x1004FCC70, symSize: 0x11C }
  - { offset: 0xCD2CD, size: 0x8, addend: 0x0, symName: __ZN3std5panic19set_backtrace_style17h5d2854a487bf5be2E, symObjAddr: 0x1FAD4, symBinAddr: 0x1004FCD8C, symSize: 0x10 }
  - { offset: 0xCD2EC, size: 0x8, addend: 0x0, symName: __ZN3std5panic19set_backtrace_style17h5d2854a487bf5be2E, symObjAddr: 0x1FAD4, symBinAddr: 0x1004FCD8C, symSize: 0x10 }
  - { offset: 0xCD37A, size: 0x8, addend: 0x0, symName: '__ZN64_$LT$std..panic..PanicHookInfo$u20$as$u20$core..fmt..Display$GT$3fmt17h7c1cdc460125385eE', symObjAddr: 0x45B38, symBinAddr: 0x10051F5C0, symSize: 0x17C }
  - { offset: 0xCD5E3, size: 0x8, addend: 0x0, symName: __ZN3std3env11current_dir17h2ac95328d49795b0E, symObjAddr: 0xC83C, symBinAddr: 0x1004EB9A4, symSize: 0x18C }
  - { offset: 0xCD9B9, size: 0x8, addend: 0x0, symName: __ZN3std3env11current_exe17h0349bd41a8af3535E, symObjAddr: 0xC9C8, symBinAddr: 0x1004EBB30, symSize: 0xCC }
  - { offset: 0xCDBBF, size: 0x8, addend: 0x0, symName: __ZN3std3env4_var17hcda43e04445703cfE, symObjAddr: 0xCA94, symBinAddr: 0x1004EBBFC, symSize: 0x98 }
  - { offset: 0xCDCC7, size: 0x8, addend: 0x0, symName: __ZN3std3env4args17h3a3fba95c5668b2dE, symObjAddr: 0xCB2C, symBinAddr: 0x1004EBC94, symSize: 0x4 }
  - { offset: 0xCDCE2, size: 0x8, addend: 0x0, symName: __ZN3std3env4vars17hb381e4b4524d9797E, symObjAddr: 0xCB30, symBinAddr: 0x1004EBC98, symSize: 0x4 }
  - { offset: 0xCDCFC, size: 0x8, addend: 0x0, symName: __ZN3std3env7_var_os17h2f606c77ff80c31fE, symObjAddr: 0xCB34, symBinAddr: 0x1004EBC9C, symSize: 0x164 }
  - { offset: 0xCDF93, size: 0x8, addend: 0x0, symName: __ZN3std3env7args_os17ha786b850fc9cfcacE, symObjAddr: 0xCC98, symBinAddr: 0x1004EBE00, symSize: 0x1E4 }
  - { offset: 0xCE65A, size: 0x8, addend: 0x0, symName: __ZN3std3env7vars_os17h493612a5ff62cce5E, symObjAddr: 0xCE7C, symBinAddr: 0x1004EBFE4, symSize: 0x3CC }
  - { offset: 0xCEFC0, size: 0x8, addend: 0x0, symName: __ZN3std3env8home_dir17hb458ee4f6aa9020cE, symObjAddr: 0xD248, symBinAddr: 0x1004EC3B0, symSize: 0x1A8 }
  - { offset: 0xCF496, size: 0x8, addend: 0x0, symName: __ZN3std3env8temp_dir17hf1047b8afb01785fE, symObjAddr: 0xD3F0, symBinAddr: 0x1004EC558, symSize: 0x1CC }
  - { offset: 0xCF908, size: 0x8, addend: 0x0, symName: '__ZN75_$LT$std..env..VarsOs$u20$as$u20$core..iter..traits..iterator..Iterator$GT$4next17ha248a94ccdc4b74dE', symObjAddr: 0x48110, symBinAddr: 0x100521B54, symSize: 0x38 }
  - { offset: 0xCF98F, size: 0x8, addend: 0x0, symName: '__ZN75_$LT$std..env..VarsOs$u20$as$u20$core..iter..traits..iterator..Iterator$GT$9size_hint17h9e2e99a37e1846ddE', symObjAddr: 0x48148, symBinAddr: 0x100521B8C, symSize: 0x2C }
  - { offset: 0xCF9A7, size: 0x8, addend: 0x0, symName: '__ZN75_$LT$std..env..VarsOs$u20$as$u20$core..iter..traits..iterator..Iterator$GT$9size_hint17h9e2e99a37e1846ddE', symObjAddr: 0x48148, symBinAddr: 0x100521B8C, symSize: 0x2C }
  - { offset: 0xCF9BC, size: 0x8, addend: 0x0, symName: '__ZN75_$LT$std..env..VarsOs$u20$as$u20$core..iter..traits..iterator..Iterator$GT$9size_hint17h9e2e99a37e1846ddE', symObjAddr: 0x48148, symBinAddr: 0x100521B8C, symSize: 0x2C }
  - { offset: 0xCFA34, size: 0x8, addend: 0x0, symName: '__ZN51_$LT$std..env..Args$u20$as$u20$core..fmt..Debug$GT$3fmt17hb4e5c483ff5a60e2E', symObjAddr: 0x3273C, symBinAddr: 0x10050C7F4, symSize: 0x64 }
  - { offset: 0xCFA56, size: 0x8, addend: 0x0, symName: '__ZN51_$LT$std..env..Vars$u20$as$u20$core..fmt..Debug$GT$3fmt17h76b7fe6b18dc566eE', symObjAddr: 0x327A0, symBinAddr: 0x10050C858, symSize: 0x84 }
  - { offset: 0xCFB13, size: 0x8, addend: 0x0, symName: '__ZN53_$LT$std..env..ArgsOs$u20$as$u20$core..fmt..Debug$GT$3fmt17h104ee83e8ef833e9E', symObjAddr: 0x32970, symBinAddr: 0x10050CA28, symSize: 0x64 }
  - { offset: 0xCFB35, size: 0x8, addend: 0x0, symName: '__ZN53_$LT$std..env..VarsOs$u20$as$u20$core..fmt..Debug$GT$3fmt17ha5be93111c5a4e6cE', symObjAddr: 0x329D4, symBinAddr: 0x10050CA8C, symSize: 0x64 }
  - { offset: 0xCFB56, size: 0x8, addend: 0x0, symName: '__ZN57_$LT$std..env..SplitPaths$u20$as$u20$core..fmt..Debug$GT$3fmt17hb002ca686bed3246E', symObjAddr: 0x33B6C, symBinAddr: 0x10050DC24, symSize: 0x38 }
  - { offset: 0xCFB78, size: 0x8, addend: 0x0, symName: '__ZN57_$LT$std..env..VarError$u20$as$u20$core..fmt..Display$GT$3fmt17h2ea29232025ec0afE', symObjAddr: 0x33BA4, symBinAddr: 0x10050DC5C, symSize: 0x78 }
  - { offset: 0xCFBD6, size: 0x8, addend: 0x0, symName: '__ZN63_$LT$std..env..JoinPathsError$u20$as$u20$core..fmt..Display$GT$3fmt17h718b4a88730ae038E', symObjAddr: 0x45068, symBinAddr: 0x10051EAF0, symSize: 0x5C }
  - { offset: 0xCFC7A, size: 0x8, addend: 0x0, symName: '__ZN73_$LT$std..env..Args$u20$as$u20$core..iter..traits..iterator..Iterator$GT$4next17hd04b9e081ef6526aE', symObjAddr: 0x47C54, symBinAddr: 0x100521698, symSize: 0xE8 }
  - { offset: 0xCFEE7, size: 0x8, addend: 0x0, symName: '__ZN73_$LT$std..env..Vars$u20$as$u20$core..iter..traits..iterator..Iterator$GT$4next17h7e1d61752f6c139dE', symObjAddr: 0x47D3C, symBinAddr: 0x100521780, symSize: 0x1B8 }
  - { offset: 0xD0418, size: 0x8, addend: 0x0, symName: '__ZN73_$LT$std..env..Vars$u20$as$u20$core..iter..traits..iterator..Iterator$GT$9size_hint17h51fb3de2a38715cdE', symObjAddr: 0x47EF4, symBinAddr: 0x100521938, symSize: 0x2C }
  - { offset: 0xD0436, size: 0x8, addend: 0x0, symName: '__ZN73_$LT$std..env..Vars$u20$as$u20$core..iter..traits..iterator..Iterator$GT$9size_hint17h51fb3de2a38715cdE', symObjAddr: 0x47EF4, symBinAddr: 0x100521938, symSize: 0x2C }
  - { offset: 0xD044B, size: 0x8, addend: 0x0, symName: '__ZN73_$LT$std..env..Vars$u20$as$u20$core..iter..traits..iterator..Iterator$GT$9size_hint17h51fb3de2a38715cdE', symObjAddr: 0x47EF4, symBinAddr: 0x100521938, symSize: 0x2C }
  - { offset: 0xD0460, size: 0x8, addend: 0x0, symName: '__ZN73_$LT$std..env..Vars$u20$as$u20$core..iter..traits..iterator..Iterator$GT$9size_hint17h51fb3de2a38715cdE', symObjAddr: 0x47EF4, symBinAddr: 0x100521938, symSize: 0x2C }
  - { offset: 0xD04BF, size: 0x8, addend: 0x0, symName: '__ZN79_$LT$std..env..SplitPaths$u20$as$u20$core..iter..traits..iterator..Iterator$GT$4next17h7614aab6845f0436E', symObjAddr: 0x49918, symBinAddr: 0x10052335C, symSize: 0xDC }
  - { offset: 0xD0742, size: 0x8, addend: 0x0, symName: '__ZN88_$LT$std..env..Args$u20$as$u20$core..iter..traits..double_ended..DoubleEndedIterator$GT$9next_back17hbf2b70e9989adf14E', symObjAddr: 0x4B81C, symBinAddr: 0x10052521C, symSize: 0xE4 }
  - { offset: 0xD0978, size: 0x8, addend: 0x0, symName: __ZN3std3net11socket_addr11lookup_host17h9e4c583fce5b4f4aE, symObjAddr: 0xD98C, symBinAddr: 0x1004ECAF4, symSize: 0x3D8 }
  - { offset: 0xD0F31, size: 0x8, addend: 0x0, symName: '__ZN60_$LT$str$u20$as$u20$std..net..socket_addr..ToSocketAddrs$GT$15to_socket_addrs17h7f2a430b1badebccE', symObjAddr: 0x428C0, symBinAddr: 0x10051C348, symSize: 0x19C }
  - { offset: 0xD1205, size: 0x8, addend: 0x0, symName: '__ZN78_$LT$$LP$$RF$str$C$u16$RP$$u20$as$u20$std..net..socket_addr..ToSocketAddrs$GT$15to_socket_addrs17h640fbebf4ee46045E', symObjAddr: 0x4953C, symBinAddr: 0x100522F80, symSize: 0xF4 }
  - { offset: 0xD12CD, size: 0x8, addend: 0x0, symName: '__ZN78_$LT$alloc..string..String$u20$as$u20$std..net..socket_addr..ToSocketAddrs$GT$15to_socket_addrs17hbc92f4c767b0c726E', symObjAddr: 0x49630, symBinAddr: 0x100523074, symSize: 0xC }
  - { offset: 0xD12EC, size: 0x8, addend: 0x0, symName: '__ZN78_$LT$alloc..string..String$u20$as$u20$std..net..socket_addr..ToSocketAddrs$GT$15to_socket_addrs17hbc92f4c767b0c726E', symObjAddr: 0x49630, symBinAddr: 0x100523074, symSize: 0xC }
  - { offset: 0xD1302, size: 0x8, addend: 0x0, symName: '__ZN78_$LT$alloc..string..String$u20$as$u20$std..net..socket_addr..ToSocketAddrs$GT$15to_socket_addrs17hbc92f4c767b0c726E', symObjAddr: 0x49630, symBinAddr: 0x100523074, symSize: 0xC }
  - { offset: 0xD1318, size: 0x8, addend: 0x0, symName: '__ZN78_$LT$alloc..string..String$u20$as$u20$std..net..socket_addr..ToSocketAddrs$GT$15to_socket_addrs17hbc92f4c767b0c726E', symObjAddr: 0x49630, symBinAddr: 0x100523074, symSize: 0xC }
  - { offset: 0xD132E, size: 0x8, addend: 0x0, symName: '__ZN78_$LT$alloc..string..String$u20$as$u20$std..net..socket_addr..ToSocketAddrs$GT$15to_socket_addrs17hbc92f4c767b0c726E', symObjAddr: 0x49630, symBinAddr: 0x100523074, symSize: 0xC }
  - { offset: 0xD1344, size: 0x8, addend: 0x0, symName: '__ZN78_$LT$alloc..string..String$u20$as$u20$std..net..socket_addr..ToSocketAddrs$GT$15to_socket_addrs17hbc92f4c767b0c726E', symObjAddr: 0x49630, symBinAddr: 0x100523074, symSize: 0xC }
  - { offset: 0xD135A, size: 0x8, addend: 0x0, symName: '__ZN78_$LT$alloc..string..String$u20$as$u20$std..net..socket_addr..ToSocketAddrs$GT$15to_socket_addrs17hbc92f4c767b0c726E', symObjAddr: 0x49630, symBinAddr: 0x100523074, symSize: 0xC }
  - { offset: 0xD1370, size: 0x8, addend: 0x0, symName: '__ZN78_$LT$alloc..string..String$u20$as$u20$std..net..socket_addr..ToSocketAddrs$GT$15to_socket_addrs17hbc92f4c767b0c726E', symObjAddr: 0x49630, symBinAddr: 0x100523074, symSize: 0xC }
  - { offset: 0xD1390, size: 0x8, addend: 0x0, symName: '__ZN92_$LT$$LP$alloc..string..String$C$u16$RP$$u20$as$u20$std..net..socket_addr..ToSocketAddrs$GT$15to_socket_addrs17h80d154e886e67e5cE', symObjAddr: 0x4BBF0, symBinAddr: 0x1005255F0, symSize: 0x30 }
  - { offset: 0xD1458, size: 0x8, addend: 0x0, symName: __ZN3std3net3tcp11TcpListener10local_addr17h6dc6015e1522849aE, symObjAddr: 0xDD64, symBinAddr: 0x1004ECECC, symSize: 0xC }
  - { offset: 0xD1473, size: 0x8, addend: 0x0, symName: __ZN3std3net3tcp11TcpListener11set_only_v617h058c64c3d05b2390E, symObjAddr: 0xDD70, symBinAddr: 0x1004ECED8, symSize: 0x54 }
  - { offset: 0xD152D, size: 0x8, addend: 0x0, symName: __ZN3std3net3tcp11TcpListener3ttl17h3a46e306b651cbccE, symObjAddr: 0xDDC4, symBinAddr: 0x1004ECF2C, symSize: 0x78 }
  - { offset: 0xD1603, size: 0x8, addend: 0x0, symName: __ZN3std3net3tcp11TcpListener6accept17h38a019b9a0e3a9b3E, symObjAddr: 0xDE3C, symBinAddr: 0x1004ECFA4, symSize: 0x188 }
  - { offset: 0xD1890, size: 0x8, addend: 0x0, symName: __ZN3std3net3tcp11TcpListener7only_v617h77f3e1fad1173259E, symObjAddr: 0xDFC4, symBinAddr: 0x1004ED12C, symSize: 0x80 }
  - { offset: 0xD1966, size: 0x8, addend: 0x0, symName: __ZN3std3net3tcp11TcpListener7set_ttl17h341ec497d4759b69E, symObjAddr: 0xE044, symBinAddr: 0x1004ED1AC, symSize: 0x54 }
  - { offset: 0xD1A20, size: 0x8, addend: 0x0, symName: __ZN3std3net3tcp11TcpListener9try_clone17hbe5e4db2088945fbE, symObjAddr: 0xE098, symBinAddr: 0x1004ED200, symSize: 0x68 }
  - { offset: 0xD1AFF, size: 0x8, addend: 0x0, symName: __ZN3std3net3tcp9TcpStream10set_linger17hd40918f88b5da57eE, symObjAddr: 0xE100, symBinAddr: 0x1004ED268, symSize: 0x68 }
  - { offset: 0xD1BF4, size: 0x8, addend: 0x0, symName: __ZN3std3net3tcp9TcpStream11set_nodelay17ha48055be7ee730bfE, symObjAddr: 0xE168, symBinAddr: 0x1004ED2D0, symSize: 0x54 }
  - { offset: 0xD1CC5, size: 0x8, addend: 0x0, symName: __ZN3std3net3tcp9TcpStream12read_timeout17h3cb6eddd13c612a8E, symObjAddr: 0xE1BC, symBinAddr: 0x1004ED324, symSize: 0xE0 }
  - { offset: 0xD1DEF, size: 0x8, addend: 0x0, symName: __ZN3std3net3tcp9TcpStream13write_timeout17h1612c439685d759aE, symObjAddr: 0xE29C, symBinAddr: 0x1004ED404, symSize: 0xE0 }
  - { offset: 0xD1F19, size: 0x8, addend: 0x0, symName: __ZN3std3net3tcp9TcpStream15connect_timeout17hab44dc69f93d9b8dE, symObjAddr: 0xE37C, symBinAddr: 0x1004ED4E4, symSize: 0x4A0 }
  - { offset: 0xD2761, size: 0x8, addend: 0x0, symName: __ZN3std3net3tcp9TcpStream6linger17h6056ee6dfb3a9c41E, symObjAddr: 0xE81C, symBinAddr: 0x1004ED984, symSize: 0x88 }
  - { offset: 0xD284D, size: 0x8, addend: 0x0, symName: __ZN3std3net3tcp9TcpStream7nodelay17h0d9120b7c023f549E, symObjAddr: 0xE8A4, symBinAddr: 0x1004EDA0C, symSize: 0x80 }
  - { offset: 0xD293A, size: 0x8, addend: 0x0, symName: __ZN3std3net3tcp9TcpStream9peer_addr17hc65f385db0d39c3dE, symObjAddr: 0xE924, symBinAddr: 0x1004EDA8C, symSize: 0xC }
  - { offset: 0xD295B, size: 0x8, addend: 0x0, symName: '__ZN58_$LT$std..net..tcp..TcpStream$u20$as$u20$std..io..Read$GT$13read_vectored17ha594971d1ca51b78E', symObjAddr: 0x348C8, symBinAddr: 0x10050E980, symSize: 0x54 }
  - { offset: 0xD2A6E, size: 0x8, addend: 0x0, symName: '__ZN58_$LT$std..net..tcp..TcpStream$u20$as$u20$std..io..Read$GT$8read_buf17h368abbc1b23d5f00E', symObjAddr: 0x3491C, symBinAddr: 0x10050E9D4, symSize: 0x70 }
  - { offset: 0xD2C01, size: 0x8, addend: 0x0, symName: '__ZN59_$LT$std..net..tcp..TcpStream$u20$as$u20$std..io..Write$GT$14write_vectored17h5983913ba40d5612E', symObjAddr: 0x35CA0, symBinAddr: 0x10050FD58, symSize: 0x54 }
  - { offset: 0xD2D1D, size: 0x8, addend: 0x0, symName: '__ZN61_$LT$std..net..tcp..TcpStream$u20$as$u20$core..fmt..Debug$GT$3fmt17h8cddaf7c8006e44dE', symObjAddr: 0x44118, symBinAddr: 0x10051DBA0, symSize: 0x4 }
  - { offset: 0xD2D3F, size: 0x8, addend: 0x0, symName: '__ZN62_$LT$$RF$std..net..tcp..TcpStream$u20$as$u20$std..io..Read$GT$13read_vectored17h379930ad7d9ddaa6E', symObjAddr: 0x447F4, symBinAddr: 0x10051E27C, symSize: 0x58 }
  - { offset: 0xD2E52, size: 0x8, addend: 0x0, symName: '__ZN62_$LT$$RF$std..net..tcp..TcpStream$u20$as$u20$std..io..Read$GT$4read17h1ff538db7edd747bE', symObjAddr: 0x4484C, symBinAddr: 0x10051E2D4, symSize: 0x48 }
  - { offset: 0xD2F24, size: 0x8, addend: 0x0, symName: '__ZN62_$LT$$RF$std..net..tcp..TcpStream$u20$as$u20$std..io..Read$GT$8read_buf17hb294a8cb20e81f3eE', symObjAddr: 0x44894, symBinAddr: 0x10051E31C, symSize: 0x74 }
  - { offset: 0xD30B7, size: 0x8, addend: 0x0, symName: '__ZN63_$LT$$RF$std..net..tcp..TcpStream$u20$as$u20$std..io..Write$GT$5write17h20a632146068eeaaE', symObjAddr: 0x45018, symBinAddr: 0x10051EAA0, symSize: 0x50 }
  - { offset: 0xD3178, size: 0x8, addend: 0x0, symName: '__ZN63_$LT$std..net..tcp..TcpListener$u20$as$u20$core..fmt..Debug$GT$3fmt17hd3346690639d5f37E', symObjAddr: 0x451B4, symBinAddr: 0x10051EC3C, symSize: 0x4 }
  - { offset: 0xD319A, size: 0x8, addend: 0x0, symName: '__ZN82_$LT$std..net..tcp..Incoming$u20$as$u20$core..iter..traits..iterator..Iterator$GT$4next17h868235c9682ad32eE', symObjAddr: 0x4B0F0, symBinAddr: 0x100524B34, symSize: 0x40 }
  - { offset: 0xD31D3, size: 0x8, addend: 0x0, symName: '__ZN86_$LT$std..net..tcp..IntoIncoming$u20$as$u20$core..iter..traits..iterator..Iterator$GT$4next17h04bbd0a4c397082aE', symObjAddr: 0x4B5E4, symBinAddr: 0x100524FE4, symSize: 0x3C }
  - { offset: 0xD3213, size: 0x8, addend: 0x0, symName: __ZN3std3net3udp9UdpSocket13set_broadcast17h07d860f588d74604E, symObjAddr: 0xE930, symBinAddr: 0x1004EDA98, symSize: 0x54 }
  - { offset: 0xD32CD, size: 0x8, addend: 0x0, symName: __ZN3std3net3udp9UdpSocket16multicast_ttl_v417h4df4086df7f43aadE, symObjAddr: 0xE984, symBinAddr: 0x1004EDAEC, symSize: 0x78 }
  - { offset: 0xD33A3, size: 0x8, addend: 0x0, symName: __ZN3std3net3udp9UdpSocket17join_multicast_v417h5bfcb1515beede80E, symObjAddr: 0xE9FC, symBinAddr: 0x1004EDB64, symSize: 0x60 }
  - { offset: 0xD345D, size: 0x8, addend: 0x0, symName: __ZN3std3net3udp9UdpSocket17join_multicast_v617h64a4519222f15eeaE, symObjAddr: 0xEA5C, symBinAddr: 0x1004EDBC4, symSize: 0x5C }
  - { offset: 0xD352D, size: 0x8, addend: 0x0, symName: __ZN3std3net3udp9UdpSocket17multicast_loop_v417h2ed83c13d6f039ddE, symObjAddr: 0xEAB8, symBinAddr: 0x1004EDC20, symSize: 0x80 }
  - { offset: 0xD3603, size: 0x8, addend: 0x0, symName: __ZN3std3net3udp9UdpSocket17multicast_loop_v617hc6370489adf2c7b0E, symObjAddr: 0xEB38, symBinAddr: 0x1004EDCA0, symSize: 0x80 }
  - { offset: 0xD36D9, size: 0x8, addend: 0x0, symName: __ZN3std3net3udp9UdpSocket18leave_multicast_v417hb6f8931e6e77069aE, symObjAddr: 0xEBB8, symBinAddr: 0x1004EDD20, symSize: 0x60 }
  - { offset: 0xD3793, size: 0x8, addend: 0x0, symName: __ZN3std3net3udp9UdpSocket18leave_multicast_v617h6e9fc9cbb1fda039E, symObjAddr: 0xEC18, symBinAddr: 0x1004EDD80, symSize: 0x5C }
  - { offset: 0xD3863, size: 0x8, addend: 0x0, symName: __ZN3std3net3udp9UdpSocket20set_multicast_ttl_v417hec4bfc12ea4fe710E, symObjAddr: 0xEC74, symBinAddr: 0x1004EDDDC, symSize: 0x54 }
  - { offset: 0xD391D, size: 0x8, addend: 0x0, symName: __ZN3std3net3udp9UdpSocket21set_multicast_loop_v417hddd86b95ca9f9630E, symObjAddr: 0xECC8, symBinAddr: 0x1004EDE30, symSize: 0x54 }
  - { offset: 0xD39D7, size: 0x8, addend: 0x0, symName: __ZN3std3net3udp9UdpSocket21set_multicast_loop_v617h831407965ac46cd1E, symObjAddr: 0xED1C, symBinAddr: 0x1004EDE84, symSize: 0x54 }
  - { offset: 0xD3A91, size: 0x8, addend: 0x0, symName: __ZN3std3net3udp9UdpSocket4send17h930b9702ea650b1fE, symObjAddr: 0xED70, symBinAddr: 0x1004EDED8, symSize: 0x4C }
  - { offset: 0xD3B4B, size: 0x8, addend: 0x0, symName: __ZN3std3net3udp9UdpSocket9broadcast17hbce41b0b799cee87E, symObjAddr: 0xEDBC, symBinAddr: 0x1004EDF24, symSize: 0x80 }
  - { offset: 0xD3C21, size: 0x8, addend: 0x0, symName: __ZN3std3net3udp9UdpSocket9peek_from17h2348aa1f6006f1b4E, symObjAddr: 0xEE3C, symBinAddr: 0x1004EDFA4, symSize: 0x18 }
  - { offset: 0xD3C68, size: 0x8, addend: 0x0, symName: __ZN3std3net3udp9UdpSocket9peer_addr17h5990d8a007de82abE, symObjAddr: 0xEE54, symBinAddr: 0x1004EDFBC, symSize: 0x144 }
  - { offset: 0xD3E0B, size: 0x8, addend: 0x0, symName: __ZN3std3net3udp9UdpSocket9recv_from17h180a68300592df8fE, symObjAddr: 0xEF98, symBinAddr: 0x1004EE100, symSize: 0x18 }
  - { offset: 0xD3E59, size: 0x8, addend: 0x0, symName: '__ZN61_$LT$std..net..udp..UdpSocket$u20$as$u20$core..fmt..Debug$GT$3fmt17h4ac398431b43665eE', symObjAddr: 0x4411C, symBinAddr: 0x10051DBA4, symSize: 0x4 }
  - { offset: 0xD3E7C, size: 0x8, addend: 0x0, symName: __ZN3std3net8hostname8hostname17h86cb606600db8488E, symObjAddr: 0xEFB0, symBinAddr: 0x1004EE118, symSize: 0x14C }
  - { offset: 0xD41B1, size: 0x8, addend: 0x0, symName: __ZN3std4time7Instant14duration_since17hd8ae76b216db33efE, symObjAddr: 0x1F720, symBinAddr: 0x1004FCA10, symSize: 0x4C }
  - { offset: 0xD4220, size: 0x8, addend: 0x0, symName: __ZN3std4time7Instant22checked_duration_since17h8e714f6ebebcf524E, symObjAddr: 0x1F76C, symBinAddr: 0x1004FCA5C, symSize: 0x50 }
  - { offset: 0xD4262, size: 0x8, addend: 0x0, symName: __ZN3std4time7Instant3now17h08b843682fb1c5c5E, symObjAddr: 0x1F7BC, symBinAddr: 0x1004FCAAC, symSize: 0x8 }
  - { offset: 0xD427A, size: 0x8, addend: 0x0, symName: __ZN3std4time7Instant3now17h08b843682fb1c5c5E, symObjAddr: 0x1F7BC, symBinAddr: 0x1004FCAAC, symSize: 0x8 }
  - { offset: 0xD428D, size: 0x8, addend: 0x0, symName: __ZN3std4time7Instant7elapsed17he0e842acfbb92ff7E, symObjAddr: 0x1F7C4, symBinAddr: 0x1004FCAB4, symSize: 0x6C }
  - { offset: 0xD4388, size: 0x8, addend: 0x0, symName: '__ZN60_$LT$std..time..Instant$u20$as$u20$core..ops..arith..Sub$GT$3sub17hfa42327d934c30aaE', symObjAddr: 0x42870, symBinAddr: 0x10051C2F8, symSize: 0x50 }
  - { offset: 0xD4415, size: 0x8, addend: 0x0, symName: __ZN3std4time10SystemTime11checked_add17h6d8bcaaa7e879268E, symObjAddr: 0x1F590, symBinAddr: 0x1004FC880, symSize: 0x70 }
  - { offset: 0xD44D9, size: 0x8, addend: 0x0, symName: __ZN3std4time10SystemTime11checked_sub17hfaa669f69382c46bE, symObjAddr: 0x1F600, symBinAddr: 0x1004FC8F0, symSize: 0x60 }
  - { offset: 0xD459D, size: 0x8, addend: 0x0, symName: __ZN3std4time10SystemTime14duration_since17he33fca0c9b573416E, symObjAddr: 0x1F660, symBinAddr: 0x1004FC950, symSize: 0x50 }
  - { offset: 0xD45DE, size: 0x8, addend: 0x0, symName: __ZN3std4time10SystemTime3now17h05301f37885def99E, symObjAddr: 0x1F6B0, symBinAddr: 0x1004FC9A0, symSize: 0x8 }
  - { offset: 0xD45F6, size: 0x8, addend: 0x0, symName: __ZN3std4time10SystemTime3now17h05301f37885def99E, symObjAddr: 0x1F6B0, symBinAddr: 0x1004FC9A0, symSize: 0x8 }
  - { offset: 0xD4625, size: 0x8, addend: 0x0, symName: __ZN3std4time10SystemTime7elapsed17hd7b8580a91c42480E, symObjAddr: 0x1F6B8, symBinAddr: 0x1004FC9A8, symSize: 0x68 }
  - { offset: 0xD46D4, size: 0x8, addend: 0x0, symName: '__ZN55_$LT$std..time..Instant$u20$as$u20$core..fmt..Debug$GT$3fmt17h7520f20ddd93c905E', symObjAddr: 0x33940, symBinAddr: 0x10050D9F8, symSize: 0x80 }
  - { offset: 0xD470D, size: 0x8, addend: 0x0, symName: '__ZN58_$LT$std..time..SystemTime$u20$as$u20$core..fmt..Debug$GT$3fmt17hab0c0ff24004f1d0E', symObjAddr: 0x34A6C, symBinAddr: 0x10050EB24, symSize: 0x80 }
  - { offset: 0xD4746, size: 0x8, addend: 0x0, symName: '__ZN65_$LT$std..time..SystemTimeError$u20$as$u20$core..fmt..Display$GT$3fmt17h507a74c2c57026c1E', symObjAddr: 0x46140, symBinAddr: 0x10051FB84, symSize: 0x18 }
  - { offset: 0xD477F, size: 0x8, addend: 0x0, symName: '__ZN88_$LT$std..time..Instant$u20$as$u20$core..ops..arith..Add$LT$core..time..Duration$GT$$GT$3add17h7327d91fd5193a85E', symObjAddr: 0x4B908, symBinAddr: 0x100525308, symSize: 0x64 }
  - { offset: 0xD4797, size: 0x8, addend: 0x0, symName: '__ZN88_$LT$std..time..Instant$u20$as$u20$core..ops..arith..Add$LT$core..time..Duration$GT$$GT$3add17h7327d91fd5193a85E', symObjAddr: 0x4B908, symBinAddr: 0x100525308, symSize: 0x64 }
  - { offset: 0xD47AD, size: 0x8, addend: 0x0, symName: '__ZN88_$LT$std..time..Instant$u20$as$u20$core..ops..arith..Add$LT$core..time..Duration$GT$$GT$3add17h7327d91fd5193a85E', symObjAddr: 0x4B908, symBinAddr: 0x100525308, symSize: 0x64 }
  - { offset: 0xD47C3, size: 0x8, addend: 0x0, symName: '__ZN88_$LT$std..time..Instant$u20$as$u20$core..ops..arith..Add$LT$core..time..Duration$GT$$GT$3add17h7327d91fd5193a85E', symObjAddr: 0x4B908, symBinAddr: 0x100525308, symSize: 0x64 }
  - { offset: 0xD47D9, size: 0x8, addend: 0x0, symName: '__ZN88_$LT$std..time..Instant$u20$as$u20$core..ops..arith..Add$LT$core..time..Duration$GT$$GT$3add17h7327d91fd5193a85E', symObjAddr: 0x4B908, symBinAddr: 0x100525308, symSize: 0x64 }
  - { offset: 0xD47EE, size: 0x8, addend: 0x0, symName: '__ZN88_$LT$std..time..Instant$u20$as$u20$core..ops..arith..Add$LT$core..time..Duration$GT$$GT$3add17h7327d91fd5193a85E', symObjAddr: 0x4B908, symBinAddr: 0x100525308, symSize: 0x64 }
  - { offset: 0xD4804, size: 0x8, addend: 0x0, symName: '__ZN88_$LT$std..time..Instant$u20$as$u20$core..ops..arith..Add$LT$core..time..Duration$GT$$GT$3add17h7327d91fd5193a85E', symObjAddr: 0x4B908, symBinAddr: 0x100525308, symSize: 0x64 }
  - { offset: 0xD489F, size: 0x8, addend: 0x0, symName: '__ZN88_$LT$std..time..Instant$u20$as$u20$core..ops..arith..Sub$LT$core..time..Duration$GT$$GT$3sub17hf6e43b8df29ed818E', symObjAddr: 0x4B96C, symBinAddr: 0x10052536C, symSize: 0x5C }
  - { offset: 0xD48DE, size: 0x8, addend: 0x0, symName: '__ZN88_$LT$std..time..Instant$u20$as$u20$core..ops..arith..Sub$LT$core..time..Duration$GT$$GT$3sub17hf6e43b8df29ed818E', symObjAddr: 0x4B96C, symBinAddr: 0x10052536C, symSize: 0x5C }
  - { offset: 0xD48F3, size: 0x8, addend: 0x0, symName: '__ZN88_$LT$std..time..Instant$u20$as$u20$core..ops..arith..Sub$LT$core..time..Duration$GT$$GT$3sub17hf6e43b8df29ed818E', symObjAddr: 0x4B96C, symBinAddr: 0x10052536C, symSize: 0x5C }
  - { offset: 0xD4909, size: 0x8, addend: 0x0, symName: '__ZN88_$LT$std..time..Instant$u20$as$u20$core..ops..arith..Sub$LT$core..time..Duration$GT$$GT$3sub17hf6e43b8df29ed818E', symObjAddr: 0x4B96C, symBinAddr: 0x10052536C, symSize: 0x5C }
  - { offset: 0xD49A4, size: 0x8, addend: 0x0, symName: '__ZN91_$LT$std..time..SystemTime$u20$as$u20$core..ops..arith..Add$LT$core..time..Duration$GT$$GT$3add17hed8fb8b08ad6acdaE', symObjAddr: 0x4BB30, symBinAddr: 0x100525530, symSize: 0x64 }
  - { offset: 0xD49BC, size: 0x8, addend: 0x0, symName: '__ZN91_$LT$std..time..SystemTime$u20$as$u20$core..ops..arith..Add$LT$core..time..Duration$GT$$GT$3add17hed8fb8b08ad6acdaE', symObjAddr: 0x4BB30, symBinAddr: 0x100525530, symSize: 0x64 }
  - { offset: 0xD49D2, size: 0x8, addend: 0x0, symName: '__ZN91_$LT$std..time..SystemTime$u20$as$u20$core..ops..arith..Add$LT$core..time..Duration$GT$$GT$3add17hed8fb8b08ad6acdaE', symObjAddr: 0x4BB30, symBinAddr: 0x100525530, symSize: 0x64 }
  - { offset: 0xD49E8, size: 0x8, addend: 0x0, symName: '__ZN91_$LT$std..time..SystemTime$u20$as$u20$core..ops..arith..Add$LT$core..time..Duration$GT$$GT$3add17hed8fb8b08ad6acdaE', symObjAddr: 0x4BB30, symBinAddr: 0x100525530, symSize: 0x64 }
  - { offset: 0xD49FD, size: 0x8, addend: 0x0, symName: '__ZN91_$LT$std..time..SystemTime$u20$as$u20$core..ops..arith..Add$LT$core..time..Duration$GT$$GT$3add17hed8fb8b08ad6acdaE', symObjAddr: 0x4BB30, symBinAddr: 0x100525530, symSize: 0x64 }
  - { offset: 0xD4A12, size: 0x8, addend: 0x0, symName: '__ZN91_$LT$std..time..SystemTime$u20$as$u20$core..ops..arith..Add$LT$core..time..Duration$GT$$GT$3add17hed8fb8b08ad6acdaE', symObjAddr: 0x4BB30, symBinAddr: 0x100525530, symSize: 0x64 }
  - { offset: 0xD4A28, size: 0x8, addend: 0x0, symName: '__ZN91_$LT$std..time..SystemTime$u20$as$u20$core..ops..arith..Add$LT$core..time..Duration$GT$$GT$3add17hed8fb8b08ad6acdaE', symObjAddr: 0x4BB30, symBinAddr: 0x100525530, symSize: 0x64 }
  - { offset: 0xD4AC3, size: 0x8, addend: 0x0, symName: '__ZN91_$LT$std..time..SystemTime$u20$as$u20$core..ops..arith..Sub$LT$core..time..Duration$GT$$GT$3sub17h24be5d7ab3ba0a41E', symObjAddr: 0x4BB94, symBinAddr: 0x100525594, symSize: 0x5C }
  - { offset: 0xD4B02, size: 0x8, addend: 0x0, symName: '__ZN91_$LT$std..time..SystemTime$u20$as$u20$core..ops..arith..Sub$LT$core..time..Duration$GT$$GT$3sub17h24be5d7ab3ba0a41E', symObjAddr: 0x4BB94, symBinAddr: 0x100525594, symSize: 0x5C }
  - { offset: 0xD4B17, size: 0x8, addend: 0x0, symName: '__ZN91_$LT$std..time..SystemTime$u20$as$u20$core..ops..arith..Sub$LT$core..time..Duration$GT$$GT$3sub17h24be5d7ab3ba0a41E', symObjAddr: 0x4BB94, symBinAddr: 0x100525594, symSize: 0x5C }
  - { offset: 0xD4B2D, size: 0x8, addend: 0x0, symName: '__ZN91_$LT$std..time..SystemTime$u20$as$u20$core..ops..arith..Sub$LT$core..time..Duration$GT$$GT$3sub17h24be5d7ab3ba0a41E', symObjAddr: 0x4BB94, symBinAddr: 0x100525594, symSize: 0x5C }
  - { offset: 0xD4BC8, size: 0x8, addend: 0x0, symName: '__ZN94_$LT$std..time..Instant$u20$as$u20$core..ops..arith..AddAssign$LT$core..time..Duration$GT$$GT$10add_assign17h50f7a52a2648e3d4E', symObjAddr: 0x4C22C, symBinAddr: 0x100525C2C, symSize: 0x74 }
  - { offset: 0xD4CD4, size: 0x8, addend: 0x0, symName: '__ZN94_$LT$std..time..Instant$u20$as$u20$core..ops..arith..SubAssign$LT$core..time..Duration$GT$$GT$10sub_assign17h8170ba93b2997aa4E', symObjAddr: 0x4C2A0, symBinAddr: 0x100525CA0, symSize: 0x74 }
  - { offset: 0xD4DE0, size: 0x8, addend: 0x0, symName: '__ZN97_$LT$std..time..SystemTime$u20$as$u20$core..ops..arith..AddAssign$LT$core..time..Duration$GT$$GT$10add_assign17hc7d65839d8b569bcE', symObjAddr: 0x4C940, symBinAddr: 0x100526340, symSize: 0x74 }
  - { offset: 0xD4EEC, size: 0x8, addend: 0x0, symName: '__ZN97_$LT$std..time..SystemTime$u20$as$u20$core..ops..arith..SubAssign$LT$core..time..Duration$GT$$GT$10sub_assign17h206275d79abf4359E', symObjAddr: 0x4C9B4, symBinAddr: 0x1005263B4, symSize: 0x74 }
  - { offset: 0xD5027, size: 0x8, addend: 0x0, symName: '__ZN91_$LT$std..sys_common..wstr..WStrUnits$u20$as$u20$core..iter..traits..iterator..Iterator$GT$4next17hd60f3a621a6fd27cE', symObjAddr: 0x4BB18, symBinAddr: 0x100525518, symSize: 0x18 }
  - { offset: 0xD50BB, size: 0x8, addend: 0x0, symName: '__ZN3std9backtrace6helper12lazy_resolve28_$u7b$$u7b$closure$u7d$$u7d$28_$u7b$$u7b$closure$u7d$$u7d$17hbd5f23ae265981e0E', symObjAddr: 0x21850, symBinAddr: 0x1004FE8DC, symSize: 0x1EC }
  - { offset: 0xD55BF, size: 0x8, addend: 0x0, symName: __ZN3std9backtrace9Backtrace13force_capture17h603c3a7aeda927f7E, symObjAddr: 0x21A3C, symBinAddr: 0x1004FEAC8, symSize: 0x10 }
  - { offset: 0xD55DA, size: 0x8, addend: 0x0, symName: __ZN3std9backtrace9Backtrace6create17h356c76f902c74f3cE, symObjAddr: 0x21A4C, symBinAddr: 0x1004FEAD8, symSize: 0x16C }
  - { offset: 0xD597F, size: 0x8, addend: 0x0, symName: __ZN3std9backtrace9Backtrace6frames17h8bae20242b3e9d60E, symObjAddr: 0x21CFC, symBinAddr: 0x1004FED88, symSize: 0x84 }
  - { offset: 0xD5A68, size: 0x8, addend: 0x0, symName: __ZN3std9backtrace9Backtrace7capture17h254f474da8c09fbaE, symObjAddr: 0x21D80, symBinAddr: 0x1004FEE0C, symSize: 0x210 }
  - { offset: 0xD5F98, size: 0x8, addend: 0x0, symName: '__ZN3std9backtrace9Backtrace6create28_$u7b$$u7b$closure$u7d$$u7d$17h3a288684a172d979E', symObjAddr: 0x21BB8, symBinAddr: 0x1004FEC44, symSize: 0x144 }
  - { offset: 0xD619B, size: 0x8, addend: 0x0, symName: '__ZN64_$LT$std..backtrace..Backtrace$u20$as$u20$core..fmt..Display$GT$3fmt17h50c4002e6c7d517dE', symObjAddr: 0x4548C, symBinAddr: 0x10051EF14, symSize: 0x454 }
  - { offset: 0xD6B47, size: 0x8, addend: 0x0, symName: '__ZN62_$LT$std..backtrace..Backtrace$u20$as$u20$core..fmt..Debug$GT$3fmt17h88e1b85ea35f898bE', symObjAddr: 0x44908, symBinAddr: 0x10051E390, symSize: 0x1BC }
  - { offset: 0xD6D67, size: 0x8, addend: 0x0, symName: '__ZN64_$LT$std..backtrace..BytesOrWide$u20$as$u20$core..fmt..Debug$GT$3fmt17h7d882970403f746cE', symObjAddr: 0x458E0, symBinAddr: 0x10051F368, symSize: 0x120 }
  - { offset: 0xD7057, size: 0x8, addend: 0x0, symName: '__ZN67_$LT$std..backtrace..BacktraceFrame$u20$as$u20$core..fmt..Debug$GT$3fmt17hadca9ef653e0f61aE', symObjAddr: 0x464D8, symBinAddr: 0x10051FF1C, symSize: 0x80 }
  - { offset: 0xD70DB, size: 0x8, addend: 0x0, symName: '__ZN68_$LT$std..backtrace..BacktraceSymbol$u20$as$u20$core..fmt..Debug$GT$3fmt17h96a371a668182684E', symObjAddr: 0x4670C, symBinAddr: 0x100520150, symSize: 0x21C }
  - { offset: 0xD7300, size: 0x8, addend: 0x0, symName: '__ZN67_$LT$std..hash..random..RandomState$u20$as$u20$core..fmt..Debug$GT$3fmt17h7634e37d13f4f70dE', symObjAddr: 0x46558, symBinAddr: 0x10051FF9C, symSize: 0x38 }
  - { offset: 0xD732A, size: 0x8, addend: 0x0, symName: '__ZN79_$LT$std..random..DefaultRandomSource$u20$as$u20$core..random..RandomSource$GT$10fill_bytes17h505424124dcee628E', symObjAddr: 0x49F88, symBinAddr: 0x1005239CC, symSize: 0x68 }
  - { offset: 0xD751B, size: 0x8, addend: 0x0, symName: '__ZN72_$LT$alloc..boxed..Box$LT$T$C$A$GT$$u20$as$u20$core..ops..drop..Drop$GT$4drop17hf15b5e89aa0cb7c4E', symObjAddr: 0x477CC, symBinAddr: 0x100521210, symSize: 0xC }
  - { offset: 0xD7533, size: 0x8, addend: 0x0, symName: '__ZN72_$LT$alloc..boxed..Box$LT$T$C$A$GT$$u20$as$u20$core..ops..drop..Drop$GT$4drop17hf15b5e89aa0cb7c4E', symObjAddr: 0x477CC, symBinAddr: 0x100521210, symSize: 0xC }
  - { offset: 0xD7549, size: 0x8, addend: 0x0, symName: '__ZN72_$LT$alloc..boxed..Box$LT$T$C$A$GT$$u20$as$u20$core..ops..drop..Drop$GT$4drop17hf15b5e89aa0cb7c4E', symObjAddr: 0x477CC, symBinAddr: 0x100521210, symSize: 0xC }
  - { offset: 0xD78F3, size: 0x8, addend: 0x0, symName: __ZN5alloc5alloc15exchange_malloc17hca9577c5b3236b08E, symObjAddr: 0x3A468, symBinAddr: 0x100514520, symSize: 0x48 }
  - { offset: 0xD9714, size: 0x8, addend: 0x0, symName: '__ZN65_$LT$alloc..vec..Vec$LT$T$C$A$GT$$u20$as$u20$core..fmt..Debug$GT$3fmt17h003ab202865bceffE', symObjAddr: 0x45E8C, symBinAddr: 0x10051F914, symSize: 0x70 }
  - { offset: 0xD9A0E, size: 0x8, addend: 0x0, symName: '__ZN64_$LT$alloc..ffi..c_str..NulError$u20$as$u20$core..fmt..Debug$GT$3fmt17h60b9d38ef5b353a1E', symObjAddr: 0x45440, symBinAddr: 0x10051EEC8, symSize: 0x4C }
  - { offset: 0xDA119, size: 0x8, addend: 0x0, symName: '__ZN5alloc11collections5btree4node208Handle$LT$alloc..collections..btree..node..NodeRef$LT$alloc..collections..btree..node..marker..Mut$C$K$C$V$C$alloc..collections..btree..node..marker..Leaf$GT$$C$alloc..collections..btree..node..marker..KV$GT$5split17h257d739072f88a76E', symObjAddr: 0x377B4, symBinAddr: 0x10051186C, symSize: 0x19C }
  - { offset: 0xDA5A5, size: 0x8, addend: 0x0, symName: '__ZN5alloc11collections5btree4node208Handle$LT$alloc..collections..btree..node..NodeRef$LT$alloc..collections..btree..node..marker..Mut$C$K$C$V$C$alloc..collections..btree..node..marker..Leaf$GT$$C$alloc..collections..btree..node..marker..KV$GT$5split17h537ab2bf5b59d2c2E', symObjAddr: 0x37950, symBinAddr: 0x100511A08, symSize: 0x198 }
  - { offset: 0xDAA03, size: 0x8, addend: 0x0, symName: '__ZN5alloc11collections5btree4node208Handle$LT$alloc..collections..btree..node..NodeRef$LT$alloc..collections..btree..node..marker..Mut$C$K$C$V$C$alloc..collections..btree..node..marker..Leaf$GT$$C$alloc..collections..btree..node..marker..KV$GT$5split17h764b3538a1edca33E', symObjAddr: 0x37AE8, symBinAddr: 0x100511BA0, symSize: 0x140 }
  - { offset: 0xDADFC, size: 0x8, addend: 0x0, symName: '__ZN5alloc11collections5btree4node212Handle$LT$alloc..collections..btree..node..NodeRef$LT$alloc..collections..btree..node..marker..Mut$C$K$C$V$C$alloc..collections..btree..node..marker..Internal$GT$$C$alloc..collections..btree..node..marker..KV$GT$5split17h3b9d677d72242022E', symObjAddr: 0x37C28, symBinAddr: 0x100511CE0, symSize: 0x274 }
  - { offset: 0xDB46E, size: 0x8, addend: 0x0, symName: '__ZN5alloc11collections5btree4node212Handle$LT$alloc..collections..btree..node..NodeRef$LT$alloc..collections..btree..node..marker..Mut$C$K$C$V$C$alloc..collections..btree..node..marker..Internal$GT$$C$alloc..collections..btree..node..marker..KV$GT$5split17h88507521ccd23d03E', symObjAddr: 0x37E9C, symBinAddr: 0x100511F54, symSize: 0x278 }
  - { offset: 0xDBB0E, size: 0x8, addend: 0x0, symName: '__ZN5alloc11collections5btree4node212Handle$LT$alloc..collections..btree..node..NodeRef$LT$alloc..collections..btree..node..marker..Mut$C$K$C$V$C$alloc..collections..btree..node..marker..Internal$GT$$C$alloc..collections..btree..node..marker..KV$GT$5split17he05b85f0be602821E', symObjAddr: 0x38114, symBinAddr: 0x1005121CC, symSize: 0x1FC }
  - { offset: 0xDC173, size: 0x8, addend: 0x0, symName: '__ZN5alloc11collections5btree6remove259_$LT$impl$u20$alloc..collections..btree..node..Handle$LT$alloc..collections..btree..node..NodeRef$LT$alloc..collections..btree..node..marker..Mut$C$K$C$V$C$alloc..collections..btree..node..marker..Leaf$GT$$C$alloc..collections..btree..node..marker..KV$GT$$GT$14remove_leaf_kv17h10ad620ba7749474E', symObjAddr: 0x390D0, symBinAddr: 0x100513188, symSize: 0x54C }
  - { offset: 0xDCE31, size: 0x8, addend: 0x0, symName: '__ZN5alloc11collections5btree6remove259_$LT$impl$u20$alloc..collections..btree..node..Handle$LT$alloc..collections..btree..node..NodeRef$LT$alloc..collections..btree..node..marker..Mut$C$K$C$V$C$alloc..collections..btree..node..marker..Leaf$GT$$C$alloc..collections..btree..node..marker..KV$GT$$GT$14remove_leaf_kv17h14f77890c0ea077dE', symObjAddr: 0x3961C, symBinAddr: 0x1005136D4, symSize: 0x4F4 }
  - { offset: 0xDDB9A, size: 0x8, addend: 0x0, symName: '__ZN5alloc11collections5btree6remove259_$LT$impl$u20$alloc..collections..btree..node..Handle$LT$alloc..collections..btree..node..NodeRef$LT$alloc..collections..btree..node..marker..Mut$C$K$C$V$C$alloc..collections..btree..node..marker..Leaf$GT$$C$alloc..collections..btree..node..marker..KV$GT$$GT$14remove_leaf_kv17h84494927b393d726E', symObjAddr: 0x39B10, symBinAddr: 0x100513BC8, symSize: 0x54C }
  - { offset: 0xDFCAC, size: 0x8, addend: 0x0, symName: '__ZN5alloc11collections5btree4node29BalancingContext$LT$K$C$V$GT$15bulk_steal_left17h4507239e997f6a8fE', symObjAddr: 0x38310, symBinAddr: 0x1005123C8, symSize: 0x1F0 }
  - { offset: 0xE0211, size: 0x8, addend: 0x0, symName: '__ZN5alloc11collections5btree4node29BalancingContext$LT$K$C$V$GT$15bulk_steal_left17h944c857f2ac05c74E', symObjAddr: 0x38500, symBinAddr: 0x1005125B8, symSize: 0x280 }
  - { offset: 0xE07B0, size: 0x8, addend: 0x0, symName: '__ZN5alloc11collections5btree4node29BalancingContext$LT$K$C$V$GT$16bulk_steal_right17h17e08d4a89cfb142E', symObjAddr: 0x38780, symBinAddr: 0x100512838, symSize: 0x2C8 }
  - { offset: 0xE0E08, size: 0x8, addend: 0x0, symName: '__ZN5alloc11collections5btree4node29BalancingContext$LT$K$C$V$GT$16bulk_steal_right17ha34cbc9d97161a20E', symObjAddr: 0x38A48, symBinAddr: 0x100512B00, symSize: 0x23C }
  - { offset: 0xE1493, size: 0x8, addend: 0x0, symName: '__ZN5alloc11collections5btree4node29BalancingContext$LT$K$C$V$GT$8do_merge17h0d337481eab76de9E', symObjAddr: 0x38C84, symBinAddr: 0x100512D3C, symSize: 0x1F4 }
  - { offset: 0xE1AE5, size: 0x8, addend: 0x0, symName: '__ZN5alloc11collections5btree4node29BalancingContext$LT$K$C$V$GT$8do_merge17h4ebcdff0ab056c55E', symObjAddr: 0x38E78, symBinAddr: 0x100512F30, symSize: 0x258 }
  - { offset: 0xE238C, size: 0x8, addend: 0x0, symName: '__ZN108_$LT$alloc..collections..btree..map..Iter$LT$K$C$V$GT$$u20$as$u20$core..iter..traits..iterator..Iterator$GT$4next17h7425d91eba25728dE', symObjAddr: 0x724, symBinAddr: 0x1004DFAE0, symSize: 0x114 }
  - { offset: 0xE2723, size: 0x8, addend: 0x0, symName: '__ZN5alloc11collections5btree3map25BTreeMap$LT$K$C$V$C$A$GT$6insert17h1e88ed3191e29e0eE', symObjAddr: 0x35DC0, symBinAddr: 0x10050FE78, symSize: 0x9E4 }
  - { offset: 0xE409A, size: 0x8, addend: 0x0, symName: '__ZN5alloc11collections5btree3map25BTreeMap$LT$K$C$V$C$A$GT$6insert17h997aeb8647a20626E', symObjAddr: 0x367A4, symBinAddr: 0x10051085C, symSize: 0x9F8 }
  - { offset: 0xE5D22, size: 0x8, addend: 0x0, symName: '__ZN5alloc11collections5btree3map25IntoIter$LT$K$C$V$C$A$GT$10dying_next17h620f4f5c81456072E', symObjAddr: 0x3719C, symBinAddr: 0x100511254, symSize: 0x208 }
  - { offset: 0xE60FF, size: 0x8, addend: 0x0, symName: '__ZN5alloc11collections5btree3map25IntoIter$LT$K$C$V$C$A$GT$10dying_next17h76d644959ccd0093E', symObjAddr: 0x373A4, symBinAddr: 0x10051145C, symSize: 0x208 }
  - { offset: 0xE64DC, size: 0x8, addend: 0x0, symName: '__ZN5alloc11collections5btree3map25IntoIter$LT$K$C$V$C$A$GT$10dying_next17hb01a24d5edfe1dbcE', symObjAddr: 0x375AC, symBinAddr: 0x100511664, symSize: 0x208 }
  - { offset: 0xE68C0, size: 0x8, addend: 0x0, symName: '__ZN94_$LT$alloc..collections..btree..map..BTreeMap$LT$K$C$V$C$A$GT$$u20$as$u20$core..fmt..Debug$GT$3fmt17h2b7061efe1d585caE', symObjAddr: 0x4C090, symBinAddr: 0x100525A90, symSize: 0x14C }
  - { offset: 0xE770A, size: 0x8, addend: 0x0, symName: '__ZN5alloc7raw_vec20RawVecInner$LT$A$GT$11finish_grow17hfa7f4a7b71603dfdE', symObjAddr: 0x3A990, symBinAddr: 0x10059B3A4, symSize: 0xC4 }
  - { offset: 0xE83DA, size: 0x8, addend: 0x0, symName: '__ZN5alloc7raw_vec19RawVec$LT$T$C$A$GT$8grow_one17h14e39ddeac70f605E', symObjAddr: 0x3A4B0, symBinAddr: 0x10059AEC4, symSize: 0x68 }
  - { offset: 0xE8463, size: 0x8, addend: 0x0, symName: '__ZN5alloc7raw_vec19RawVec$LT$T$C$A$GT$8grow_one17h1f3325eae33b3f48E', symObjAddr: 0x3A518, symBinAddr: 0x10059AF2C, symSize: 0x68 }
  - { offset: 0xE84EC, size: 0x8, addend: 0x0, symName: '__ZN5alloc7raw_vec19RawVec$LT$T$C$A$GT$8grow_one17h2e5b01c4db10a43dE', symObjAddr: 0x3A580, symBinAddr: 0x10059AF94, symSize: 0x68 }
  - { offset: 0xE8575, size: 0x8, addend: 0x0, symName: '__ZN5alloc7raw_vec19RawVec$LT$T$C$A$GT$8grow_one17h36de9ae9087f572aE', symObjAddr: 0x3A5E8, symBinAddr: 0x10059AFFC, symSize: 0x68 }
  - { offset: 0xE85FE, size: 0x8, addend: 0x0, symName: '__ZN5alloc7raw_vec19RawVec$LT$T$C$A$GT$8grow_one17h436a1555292ba7aeE', symObjAddr: 0x3A650, symBinAddr: 0x10059B064, symSize: 0x68 }
  - { offset: 0xE8687, size: 0x8, addend: 0x0, symName: '__ZN5alloc7raw_vec19RawVec$LT$T$C$A$GT$8grow_one17h57b4b82045926dc6E', symObjAddr: 0x3A6B8, symBinAddr: 0x10059B0CC, symSize: 0x68 }
  - { offset: 0xE8710, size: 0x8, addend: 0x0, symName: '__ZN5alloc7raw_vec19RawVec$LT$T$C$A$GT$8grow_one17h5cbec80a57cb38d4E', symObjAddr: 0x3A720, symBinAddr: 0x10059B134, symSize: 0x68 }
  - { offset: 0xE8799, size: 0x8, addend: 0x0, symName: '__ZN5alloc7raw_vec19RawVec$LT$T$C$A$GT$8grow_one17h62ad64572d34a00aE', symObjAddr: 0x3A788, symBinAddr: 0x10059B19C, symSize: 0x68 }
  - { offset: 0xE8822, size: 0x8, addend: 0x0, symName: '__ZN5alloc7raw_vec19RawVec$LT$T$C$A$GT$8grow_one17h77cabc5d159d5db5E', symObjAddr: 0x3A7F0, symBinAddr: 0x10059B204, symSize: 0x68 }
  - { offset: 0xE88AB, size: 0x8, addend: 0x0, symName: '__ZN5alloc7raw_vec19RawVec$LT$T$C$A$GT$8grow_one17h827fde3f2a3fdfb1E', symObjAddr: 0x3A858, symBinAddr: 0x10059B26C, symSize: 0x68 }
  - { offset: 0xE8934, size: 0x8, addend: 0x0, symName: '__ZN5alloc7raw_vec19RawVec$LT$T$C$A$GT$8grow_one17hba97415fed83c48cE', symObjAddr: 0x3A8C0, symBinAddr: 0x10059B2D4, symSize: 0x68 }
  - { offset: 0xE89BD, size: 0x8, addend: 0x0, symName: '__ZN5alloc7raw_vec19RawVec$LT$T$C$A$GT$8grow_one17he7dbcbebf4205e97E', symObjAddr: 0x3A928, symBinAddr: 0x10059B33C, symSize: 0x68 }
  - { offset: 0xE8E7E, size: 0x8, addend: 0x0, symName: '__ZN5alloc7raw_vec20RawVecInner$LT$A$GT$7reserve21do_reserve_and_handle17hfd5856cbb8ec7a9dE', symObjAddr: 0x3AA54, symBinAddr: 0x10059B468, symSize: 0x8C }
  - { offset: 0xE914D, size: 0x8, addend: 0x0, symName: '__ZN58_$LT$alloc..string..String$u20$as$u20$core..fmt..Debug$GT$3fmt17he442896a209e382eE', symObjAddr: 0x34230, symBinAddr: 0x10050E2E8, symSize: 0x10 }
  - { offset: 0xE9210, size: 0x8, addend: 0x0, symName: '__ZN58_$LT$alloc..string..String$u20$as$u20$core..fmt..Write$GT$10write_char17he5512f41f38db629E', symObjAddr: 0x34240, symBinAddr: 0x10050E2F8, symSize: 0x120 }
  - { offset: 0xE93BE, size: 0x8, addend: 0x0, symName: '__ZN58_$LT$alloc..string..String$u20$as$u20$core..fmt..Write$GT$9write_str17h07f07e45209a5724E', symObjAddr: 0x34360, symBinAddr: 0x10050E418, symSize: 0x80 }
  - { offset: 0xE9538, size: 0x8, addend: 0x0, symName: '__ZN60_$LT$alloc..string..String$u20$as$u20$core..fmt..Display$GT$3fmt17hf8ec49c9d33485eeE', symObjAddr: 0x419F4, symBinAddr: 0x10051B47C, symSize: 0x10 }
  - { offset: 0xE9C55, size: 0x8, addend: 0x0, symName: '__ZN5alloc4sync16Arc$LT$T$C$A$GT$9drop_slow17h06cd8d00647c23c4E', symObjAddr: 0x3A05C, symBinAddr: 0x100514114, symSize: 0xC0 }
  - { offset: 0xE9F99, size: 0x8, addend: 0x0, symName: '__ZN5alloc4sync16Arc$LT$T$C$A$GT$9drop_slow17h089dde6fc281d4c5E', symObjAddr: 0x3A11C, symBinAddr: 0x1005141D4, symSize: 0x98 }
  - { offset: 0xEA14B, size: 0x8, addend: 0x0, symName: '__ZN5alloc4sync16Arc$LT$T$C$A$GT$9drop_slow17h35a69f13ca8bcd4cE', symObjAddr: 0x3A1B4, symBinAddr: 0x10051426C, symSize: 0x34 }
  - { offset: 0xEA232, size: 0x8, addend: 0x0, symName: '__ZN5alloc4sync16Arc$LT$T$C$A$GT$9drop_slow17h7ba8e7954a3b18e5E', symObjAddr: 0x3A1E8, symBinAddr: 0x1005142A0, symSize: 0x78 }
  - { offset: 0xEA413, size: 0x8, addend: 0x0, symName: '__ZN5alloc4sync16Arc$LT$T$C$A$GT$9drop_slow17ha627554df6ed0ee7E', symObjAddr: 0x3A260, symBinAddr: 0x100514318, symSize: 0xA0 }
  - { offset: 0xEA72B, size: 0x8, addend: 0x0, symName: '__ZN5alloc4sync16Arc$LT$T$C$A$GT$9drop_slow17hbfeeb83e9423b388E', symObjAddr: 0x3A300, symBinAddr: 0x1005143B8, symSize: 0xD0 }
  - { offset: 0xEA957, size: 0x8, addend: 0x0, symName: '__ZN5alloc4sync16Arc$LT$T$C$A$GT$9drop_slow17hcf7e01a44cca2204E', symObjAddr: 0x3A3D0, symBinAddr: 0x100514488, symSize: 0x98 }
  - { offset: 0xEAFC2, size: 0x8, addend: 0x0, symName: '__ZN64_$LT$alloc..borrow..Cow$LT$B$GT$$u20$as$u20$core..fmt..Debug$GT$3fmt17h105d9b29ff4ace4bE', symObjAddr: 0x4540C, symBinAddr: 0x10051EE94, symSize: 0x34 }
  - { offset: 0xEAFE5, size: 0x8, addend: 0x0, symName: '__ZN66_$LT$alloc..borrow..Cow$LT$B$GT$$u20$as$u20$core..fmt..Display$GT$3fmt17h3b9aa4db006aefa2E', symObjAddr: 0x46158, symBinAddr: 0x10051FB9C, symSize: 0x10 }
  - { offset: 0xEB50B, size: 0x8, addend: 0x0, symName: __ZN6object4read7archive13ArchiveMember12parse_aixbig17h975528452b3a6416E, symObjAddr: 0x46E64, symBinAddr: 0x1005208A8, symSize: 0x140 }
  - { offset: 0xEB7CD, size: 0x8, addend: 0x0, symName: __ZN6object4read7archive13ArchiveMember5parse17hbae04718359e23beE, symObjAddr: 0x46FA4, symBinAddr: 0x1005209E8, symSize: 0x308 }
  - { offset: 0xEBED7, size: 0x8, addend: 0x0, symName: __ZN6object4read7archive23parse_bsd_extended_name17h6480961873be5175E, symObjAddr: 0x472AC, symBinAddr: 0x100520CF0, symSize: 0x2D0 }
  - { offset: 0xEC8D1, size: 0x8, addend: 0x0, symName: '__ZN6memchr6memchr6memchr28_$u7b$$u7b$closure$u7d$$u7d$17hcce066780c3bbd34E', symObjAddr: 0x46C08, symBinAddr: 0x10052064C, symSize: 0x25C }
  - { offset: 0xED0F5, size: 0x8, addend: 0x0, symName: '__ZN9addr2line4unit16ResUnit$LT$R$GT$25find_function_or_location28_$u7b$$u7b$closure$u7d$$u7d$17hcfb7aa5406a16f8aE', symObjAddr: 0x4D588, symBinAddr: 0x100526F88, symSize: 0x30C }
  - { offset: 0xED4AE, size: 0x8, addend: 0x0, symName: '__ZN9addr2line4unit16ResUnit$LT$R$GT$25find_function_or_location17hda45c0d024e7bfebE', symObjAddr: 0x4D21C, symBinAddr: 0x100526C1C, symSize: 0x36C }
  - { offset: 0xED9DD, size: 0x8, addend: 0x0, symName: '__ZN9addr2line16Context$LT$R$GT$9find_unit17h2a1571f4eaf8f110E', symObjAddr: 0x4CC38, symBinAddr: 0x100526638, symSize: 0x15C }
  - { offset: 0xEDB6A, size: 0x8, addend: 0x0, symName: '__ZN9addr2line6lookup30LoopingLookup$LT$T$C$L$C$F$GT$10new_lookup17h2409e3e489e4aee5E', symObjAddr: 0x4DB54, symBinAddr: 0x100527554, symSize: 0x430 }
  - { offset: 0xEE0D7, size: 0x8, addend: 0x0, symName: __ZN9addr2line4line11render_file17h49c0df62f2185788E, symObjAddr: 0x4CD94, symBinAddr: 0x100526794, symSize: 0x488 }
  - { offset: 0xEEB58, size: 0x8, addend: 0x0, symName: '__ZN9addr2line8function17Function$LT$R$GT$14parse_children17hd7e51ee0ecdb8ba7E', symObjAddr: 0x4E2F0, symBinAddr: 0x100527CF0, symSize: 0xE28 }
  - { offset: 0xF03CF, size: 0x8, addend: 0x0, symName: __ZN9addr2line8function10name_entry17h70fbcb4b118df0f0E, symObjAddr: 0x4DF84, symBinAddr: 0x100527984, symSize: 0x36C }
  - { offset: 0xF08DA, size: 0x8, addend: 0x0, symName: __ZN9addr2line8function9name_attr17h6590a8af40cdd48cE, symObjAddr: 0x4F118, symBinAddr: 0x100528B18, symSize: 0x1C0 }
  - { offset: 0xF0AD4, size: 0x8, addend: 0x0, symName: '__ZN9addr2line5frame18FrameIter$LT$R$GT$4next17hb7fb9bb214bdcbffE', symObjAddr: 0x4D894, symBinAddr: 0x100527294, symSize: 0x2C0 }
  - { offset: 0xF138A, size: 0x8, addend: 0x0, symName: '__ZN5gimli4read5dwarf14Dwarf$LT$R$GT$11attr_string17hed11f7616b9a8e5cE', symObjAddr: 0x3FBD8, symBinAddr: 0x100519660, symSize: 0x220 }
  - { offset: 0xF1A52, size: 0x8, addend: 0x0, symName: '__ZN5gimli4read5dwarf13Unit$LT$R$GT$3new17h2c150575641d7766E', symObjAddr: 0x3DF5C, symBinAddr: 0x1005179E4, symSize: 0x1C7C }
  - { offset: 0xF4EA1, size: 0x8, addend: 0x0, symName: '__ZN5gimli4read7aranges30ArangeHeader$LT$R$C$Offset$GT$5parse17hecbceb510aca047dE', symObjAddr: 0x40A58, symBinAddr: 0x10051A4E0, symSize: 0x2A8 }
  - { offset: 0xF585D, size: 0x8, addend: 0x0, symName: '__ZN5gimli4read4unit18Attribute$LT$R$GT$5value17h515d90e808fac9c1E', symObjAddr: 0x3D010, symBinAddr: 0x100516A98, symSize: 0x654 }
  - { offset: 0xF5BD5, size: 0x8, addend: 0x0, symName: '__ZN90_$LT$gimli..read..unit..AttributeValue$LT$R$C$Offset$GT$$u20$as$u20$core..clone..Clone$GT$5clone17h4076205ee15892ecE', symObjAddr: 0x4BA30, symBinAddr: 0x100525430, symSize: 0x68 }
  - { offset: 0xF5C36, size: 0x8, addend: 0x0, symName: '__ZN5gimli4read4unit32AttributeValue$LT$R$C$Offset$GT$8u8_value17hf05e2ce9bd02abd8E', symObjAddr: 0x3D91C, symBinAddr: 0x1005173A4, symSize: 0x94 }
  - { offset: 0xF5C6E, size: 0x8, addend: 0x0, symName: '__ZN5gimli4read4unit32AttributeValue$LT$R$C$Offset$GT$9u16_value17h05ce106a921fd92cE', symObjAddr: 0x3D9B0, symBinAddr: 0x100517438, symSize: 0x94 }
  - { offset: 0xF5CED, size: 0x8, addend: 0x0, symName: __ZN5gimli4read4unit15parse_attribute17h11bfb9a2717af796E, symObjAddr: 0x3BC30, symBinAddr: 0x1005156B8, symSize: 0xF74 }
  - { offset: 0xF82EC, size: 0x8, addend: 0x0, symName: __ZN5gimli4read4unit15skip_attributes17h11f3d19d3be70b03E, symObjAddr: 0x3CBA4, symBinAddr: 0x10051662C, symSize: 0x46C }
  - { offset: 0xF8B75, size: 0x8, addend: 0x0, symName: '__ZN5gimli4read4unit22EntriesCursor$LT$R$GT$10next_entry17hb5a3988eeaa4b077E', symObjAddr: 0x3D664, symBinAddr: 0x1005170EC, symSize: 0x2B8 }
  - { offset: 0xF9141, size: 0x8, addend: 0x0, symName: '__ZN5gimli4read4unit33DebugInfoUnitHeadersIter$LT$R$GT$4next17h25cb3446a6565611E', symObjAddr: 0x3DA44, symBinAddr: 0x1005174CC, symSize: 0x518 }
  - { offset: 0xFA252, size: 0x8, addend: 0x0, symName: __ZN5gimli4read6reader6Reader11read_offset17h65b156bfec649392E, symObjAddr: 0x405A4, symBinAddr: 0x10051A02C, symSize: 0xB4 }
  - { offset: 0xFA42C, size: 0x8, addend: 0x0, symName: __ZN5gimli4read6reader6Reader12read_sleb12817hef251d9d3c22e29dE, symObjAddr: 0x40658, symBinAddr: 0x10051A0E0, symSize: 0x23C }
  - { offset: 0xFA4F0, size: 0x8, addend: 0x0, symName: __ZN5gimli4read6reader6Reader12read_uleb12817hd98b651613f83752E, symObjAddr: 0x40894, symBinAddr: 0x10051A31C, symSize: 0xB8 }
  - { offset: 0xFA59B, size: 0x8, addend: 0x0, symName: __ZN5gimli4read6reader6Reader17read_sized_offset17h4c7c53b352947ca4E, symObjAddr: 0x4094C, symBinAddr: 0x10051A3D4, symSize: 0x10C }
  - { offset: 0xFAB96, size: 0x8, addend: 0x0, symName: '__ZN5gimli4read8rnglists20RngListIter$LT$R$GT$4next17h2213fd2658c6bd38E', symObjAddr: 0x40D00, symBinAddr: 0x10051A788, symSize: 0xCF4 }
  - { offset: 0xFD136, size: 0x8, addend: 0x0, symName: '__ZN5gimli4read5index18UnitIndex$LT$R$GT$5parse17hc38e646df4e70316E', symObjAddr: 0x3FDF8, symBinAddr: 0x100519880, symSize: 0x7AC }
  - { offset: 0xFD7DC, size: 0x8, addend: 0x0, symName: '__ZN5gimli4read4line27FileEntry$LT$R$C$Offset$GT$5parse17h75e106f13a65b014E', symObjAddr: 0x3BA14, symBinAddr: 0x10051549C, symSize: 0x21C }
  - { offset: 0xFDA51, size: 0x8, addend: 0x0, symName: __ZN5gimli4read4line13parse_file_v517hc918d04120799614E, symObjAddr: 0x3AAE0, symBinAddr: 0x100514568, symSize: 0x28C }
  - { offset: 0xFDBD5, size: 0x8, addend: 0x0, symName: __ZN5gimli4read4line15FileEntryFormat5parse17ha8815ada5fc662fdE, symObjAddr: 0x3AD6C, symBinAddr: 0x1005147F4, symSize: 0x350 }
  - { offset: 0xFE35F, size: 0x8, addend: 0x0, symName: __ZN5gimli4read4line15parse_attribute17h8232dad5e091871cE, symObjAddr: 0x3B0BC, symBinAddr: 0x100514B44, symSize: 0x874 }
  - { offset: 0xFF7D8, size: 0x8, addend: 0x0, symName: __ZN5gimli4read4line18parse_directory_v517hf2031e8cbba02c9cE, symObjAddr: 0x3B930, symBinAddr: 0x1005153B8, symSize: 0xE4 }
  - { offset: 0xFFAF4, size: 0x8, addend: 0x0, symName: _OUTLINED_FUNCTION_0, symObjAddr: 0x4F75C, symBinAddr: 0x10052915C, symSize: 0x8 }
  - { offset: 0xFFB0C, size: 0x8, addend: 0x0, symName: _OUTLINED_FUNCTION_1, symObjAddr: 0x4F764, symBinAddr: 0x100529164, symSize: 0xC }
  - { offset: 0xFFB24, size: 0x8, addend: 0x0, symName: _OUTLINED_FUNCTION_2, symObjAddr: 0x4F770, symBinAddr: 0x100529170, symSize: 0xC }
  - { offset: 0xFFB3C, size: 0x8, addend: 0x0, symName: _OUTLINED_FUNCTION_3, symObjAddr: 0x4F77C, symBinAddr: 0x10052917C, symSize: 0xC }
  - { offset: 0xFFB54, size: 0x8, addend: 0x0, symName: _OUTLINED_FUNCTION_4, symObjAddr: 0x4F788, symBinAddr: 0x100529188, symSize: 0x10 }
  - { offset: 0xFFB6C, size: 0x8, addend: 0x0, symName: _OUTLINED_FUNCTION_5, symObjAddr: 0x4F798, symBinAddr: 0x100529198, symSize: 0x10 }
  - { offset: 0xFFB84, size: 0x8, addend: 0x0, symName: _OUTLINED_FUNCTION_6, symObjAddr: 0x4F7A8, symBinAddr: 0x1005291A8, symSize: 0xC }
  - { offset: 0xFFB9C, size: 0x8, addend: 0x0, symName: _OUTLINED_FUNCTION_7, symObjAddr: 0x4F7B4, symBinAddr: 0x1005291B4, symSize: 0x8 }
  - { offset: 0xFFBB4, size: 0x8, addend: 0x0, symName: _OUTLINED_FUNCTION_8, symObjAddr: 0x4F7BC, symBinAddr: 0x1005291BC, symSize: 0x24 }
  - { offset: 0xFFBCC, size: 0x8, addend: 0x0, symName: _OUTLINED_FUNCTION_9, symObjAddr: 0x4F7E0, symBinAddr: 0x1005291E0, symSize: 0x10 }
  - { offset: 0xFFBE4, size: 0x8, addend: 0x0, symName: _OUTLINED_FUNCTION_10, symObjAddr: 0x4F7F0, symBinAddr: 0x1005291F0, symSize: 0x8 }
  - { offset: 0xFFBFC, size: 0x8, addend: 0x0, symName: _OUTLINED_FUNCTION_11, symObjAddr: 0x4F7F8, symBinAddr: 0x1005291F8, symSize: 0x8 }
  - { offset: 0xFFC14, size: 0x8, addend: 0x0, symName: _OUTLINED_FUNCTION_12, symObjAddr: 0x4F800, symBinAddr: 0x100529200, symSize: 0x24 }
  - { offset: 0xFFC2C, size: 0x8, addend: 0x0, symName: _OUTLINED_FUNCTION_13, symObjAddr: 0x4F824, symBinAddr: 0x100529224, symSize: 0x24 }
  - { offset: 0xFFC44, size: 0x8, addend: 0x0, symName: _OUTLINED_FUNCTION_14, symObjAddr: 0x4F848, symBinAddr: 0x100529248, symSize: 0x8 }
  - { offset: 0xFFC5C, size: 0x8, addend: 0x0, symName: _OUTLINED_FUNCTION_15, symObjAddr: 0x4F850, symBinAddr: 0x100529250, symSize: 0xC }
  - { offset: 0xFFC74, size: 0x8, addend: 0x0, symName: _OUTLINED_FUNCTION_16, symObjAddr: 0x4F85C, symBinAddr: 0x10052925C, symSize: 0x10 }
  - { offset: 0xFFC8C, size: 0x8, addend: 0x0, symName: _OUTLINED_FUNCTION_17, symObjAddr: 0x4F86C, symBinAddr: 0x10052926C, symSize: 0x10 }
  - { offset: 0xFFCA4, size: 0x8, addend: 0x0, symName: _OUTLINED_FUNCTION_18, symObjAddr: 0x4F87C, symBinAddr: 0x10052927C, symSize: 0x10 }
  - { offset: 0xFFCBC, size: 0x8, addend: 0x0, symName: _OUTLINED_FUNCTION_19, symObjAddr: 0x4F88C, symBinAddr: 0x10052928C, symSize: 0x10 }
  - { offset: 0xFFCD4, size: 0x8, addend: 0x0, symName: _OUTLINED_FUNCTION_20, symObjAddr: 0x4F89C, symBinAddr: 0x10052929C, symSize: 0x8 }
  - { offset: 0xFFCEC, size: 0x8, addend: 0x0, symName: _OUTLINED_FUNCTION_21, symObjAddr: 0x4F8A4, symBinAddr: 0x1005292A4, symSize: 0x8 }
  - { offset: 0xFFD04, size: 0x8, addend: 0x0, symName: _OUTLINED_FUNCTION_22, symObjAddr: 0x4F8AC, symBinAddr: 0x1005292AC, symSize: 0x8 }
  - { offset: 0xFFD1C, size: 0x8, addend: 0x0, symName: _OUTLINED_FUNCTION_23, symObjAddr: 0x4F8B4, symBinAddr: 0x1005292B4, symSize: 0x10 }
  - { offset: 0xFFD34, size: 0x8, addend: 0x0, symName: _OUTLINED_FUNCTION_24, symObjAddr: 0x4F8C4, symBinAddr: 0x1005292C4, symSize: 0x10 }
  - { offset: 0xFFD4C, size: 0x8, addend: 0x0, symName: _OUTLINED_FUNCTION_25, symObjAddr: 0x4F8D4, symBinAddr: 0x1005292D4, symSize: 0x18 }
  - { offset: 0xFFD64, size: 0x8, addend: 0x0, symName: _OUTLINED_FUNCTION_26, symObjAddr: 0x4F8EC, symBinAddr: 0x1005292EC, symSize: 0xC }
  - { offset: 0xFFD7C, size: 0x8, addend: 0x0, symName: _OUTLINED_FUNCTION_27, symObjAddr: 0x4F8F8, symBinAddr: 0x1005292F8, symSize: 0x8 }
  - { offset: 0xFFD94, size: 0x8, addend: 0x0, symName: _OUTLINED_FUNCTION_28, symObjAddr: 0x4F900, symBinAddr: 0x100529300, symSize: 0x8 }
  - { offset: 0xFFDAC, size: 0x8, addend: 0x0, symName: _OUTLINED_FUNCTION_29, symObjAddr: 0x4F908, symBinAddr: 0x100529308, symSize: 0xC }
  - { offset: 0xFFDC4, size: 0x8, addend: 0x0, symName: _OUTLINED_FUNCTION_30, symObjAddr: 0x4F914, symBinAddr: 0x100529314, symSize: 0xC }
  - { offset: 0xFFDDC, size: 0x8, addend: 0x0, symName: _OUTLINED_FUNCTION_31, symObjAddr: 0x4F920, symBinAddr: 0x100529320, symSize: 0xC }
  - { offset: 0xFFDF4, size: 0x8, addend: 0x0, symName: _OUTLINED_FUNCTION_32, symObjAddr: 0x4F92C, symBinAddr: 0x10052932C, symSize: 0x8 }
  - { offset: 0xFFE0C, size: 0x8, addend: 0x0, symName: _OUTLINED_FUNCTION_33, symObjAddr: 0x4F934, symBinAddr: 0x100529334, symSize: 0x8 }
  - { offset: 0xFFE24, size: 0x8, addend: 0x0, symName: _OUTLINED_FUNCTION_34, symObjAddr: 0x4F93C, symBinAddr: 0x10052933C, symSize: 0x10 }
  - { offset: 0xFFE3C, size: 0x8, addend: 0x0, symName: _OUTLINED_FUNCTION_35, symObjAddr: 0x4F94C, symBinAddr: 0x10052934C, symSize: 0x14 }
  - { offset: 0xFFE54, size: 0x8, addend: 0x0, symName: _OUTLINED_FUNCTION_36, symObjAddr: 0x4F960, symBinAddr: 0x100529360, symSize: 0x14 }
  - { offset: 0xFFE8A, size: 0x8, addend: 0x0, symName: __RNvCsiGVaDesi5rv_7___rustc18___rust_start_panic, symObjAddr: 0x0, symBinAddr: 0x100529374, symSize: 0xA0 }
  - { offset: 0xFFF6F, size: 0x8, addend: 0x0, symName: __ZN12panic_unwind3imp5panic17exception_cleanup17h899ef725bb5b1c6eE, symObjAddr: 0x108, symBinAddr: 0x10052947C, symSize: 0x18 }
  - { offset: 0xFFF8B, size: 0x8, addend: 0x0, symName: __RNvCsiGVaDesi5rv_7___rustc18___rust_start_panic, symObjAddr: 0x0, symBinAddr: 0x100529374, symSize: 0xA0 }
  - { offset: 0x10001A, size: 0x8, addend: 0x0, symName: __RNvCsiGVaDesi5rv_7___rustc20___rust_panic_cleanup, symObjAddr: 0xA0, symBinAddr: 0x100529414, symSize: 0x68 }
  - { offset: 0x10011A, size: 0x8, addend: 0x0, symName: '__ZN4core3ptr49drop_in_place$LT$panic_unwind..imp..Exception$GT$17h7f767adf3d756084E', symObjAddr: 0x120, symBinAddr: 0x100529494, symSize: 0x78 }
  - { offset: 0x10022B, size: 0x8, addend: 0x0, symName: '__ZN4core3ptr74drop_in_place$LT$alloc..boxed..Box$LT$panic_unwind..imp..Exception$GT$$GT$17hfaf9d05ffb215939E', symObjAddr: 0x198, symBinAddr: 0x10052950C, symSize: 0x8C }
  - { offset: 0x100422, size: 0x8, addend: 0x0, symName: '__ZN4core3fmt3num49_$LT$impl$u20$core..fmt..Debug$u20$for$u20$u8$GT$3fmt17h9694a00f1a59b5dfE', symObjAddr: 0x0, symBinAddr: 0x1005427C4, symSize: 0x18 }
  - { offset: 0x10045D, size: 0x8, addend: 0x0, symName: '__ZN4core3fmt3num49_$LT$impl$u20$core..fmt..Debug$u20$for$u20$u8$GT$3fmt17h9694a00f1a59b5dfE', symObjAddr: 0x0, symBinAddr: 0x1005427C4, symSize: 0x18 }
  - { offset: 0x10047B, size: 0x8, addend: 0x0, symName: '__ZN4core3fmt3num49_$LT$impl$u20$core..fmt..Debug$u20$for$u20$u8$GT$3fmt17h9694a00f1a59b5dfE', symObjAddr: 0x0, symBinAddr: 0x1005427C4, symSize: 0x18 }
  - { offset: 0x1005A3, size: 0x8, addend: 0x0, symName: '__ZN65_$LT$hashbrown..control..tag..Tag$u20$as$u20$core..fmt..Debug$GT$3fmt17h0d672a14156edff8E', symObjAddr: 0x18, symBinAddr: 0x1005427DC, symSize: 0x9C }
  - { offset: 0x10069A, size: 0x8, addend: 0x0, symName: '__ZN91_$LT$hashbrown..raw..RawIterHashInner$u20$as$u20$core..iter..traits..iterator..Iterator$GT$4next17h4816a8ca4d54e11cE', symObjAddr: 0xB4, symBinAddr: 0x100542878, symSize: 0x94 }
  - { offset: 0x10080D, size: 0x8, addend: 0x0, symName: __ZN9hashbrown3raw11Fallibility17capacity_overflow17he23f9fe273b27342E, symObjAddr: 0x148, symBinAddr: 0x10054290C, symSize: 0x44 }
  - { offset: 0x10083D, size: 0x8, addend: 0x0, symName: __ZN9hashbrown3raw11Fallibility9alloc_err17h77589919793742a4E, symObjAddr: 0x18C, symBinAddr: 0x100542950, symSize: 0x24 }
  - { offset: 0x100873, size: 0x8, addend: 0x0, symName: __ZN9hashbrown3raw16RawIterHashInner3new17h916f800442074f25E, symObjAddr: 0x1B0, symBinAddr: 0x100542974, symSize: 0x38 }
  - { offset: 0x100892, size: 0x8, addend: 0x0, symName: __ZN9hashbrown3raw16RawIterHashInner3new17h916f800442074f25E, symObjAddr: 0x1B0, symBinAddr: 0x100542974, symSize: 0x38 }
  - { offset: 0x1009B9, size: 0x8, addend: 0x0, symName: __RNvCsiGVaDesi5rv_7___rustc25___rdl_alloc_error_handler, symObjAddr: 0x0, symBinAddr: 0x10059B858, symSize: 0x94 }
  - { offset: 0x100A63, size: 0x8, addend: 0x0, symName: '__ZN42_$LT$$RF$T$u20$as$u20$core..fmt..Debug$GT$3fmt17h58fbc703a21222a4E', symObjAddr: 0x12C, symBinAddr: 0x100542A44, symSize: 0x10 }
  - { offset: 0x100AA0, size: 0x8, addend: 0x0, symName: __ZN4core3fmt5Write9write_fmt17h6b23df44e0c37717E, symObjAddr: 0x13C, symBinAddr: 0x100542A54, symSize: 0x10 }
  - { offset: 0x100AE4, size: 0x8, addend: 0x0, symName: '__ZN53_$LT$core..fmt..Error$u20$as$u20$core..fmt..Debug$GT$3fmt17hdaf7e34180b4a8deE', symObjAddr: 0x1AC, symBinAddr: 0x100542AC4, symSize: 0x14 }
  - { offset: 0x100D63, size: 0x8, addend: 0x0, symName: '__ZN69_$LT$core..alloc..layout..LayoutError$u20$as$u20$core..fmt..Debug$GT$3fmt17h9902189354e2963bE', symObjAddr: 0x4BFC, symBinAddr: 0x100547260, symSize: 0x14 }
  - { offset: 0x100DE9, size: 0x8, addend: 0x0, symName: '__ZN4core3ptr238drop_in_place$LT$alloc..boxed..convert..$LT$impl$u20$core..convert..From$LT$alloc..string..String$GT$$u20$for$u20$alloc..boxed..Box$LT$dyn$u20$core..error..Error$u2b$core..marker..Sync$u2b$core..marker..Send$GT$$GT$..from..StringError$GT$17h4e858775b1fc9576E', symObjAddr: 0x14C, symBinAddr: 0x100542A64, symSize: 0x18 }
  - { offset: 0x100E01, size: 0x8, addend: 0x0, symName: '__ZN4core3ptr238drop_in_place$LT$alloc..boxed..convert..$LT$impl$u20$core..convert..From$LT$alloc..string..String$GT$$u20$for$u20$alloc..boxed..Box$LT$dyn$u20$core..error..Error$u2b$core..marker..Sync$u2b$core..marker..Send$GT$$GT$..from..StringError$GT$17h4e858775b1fc9576E', symObjAddr: 0x14C, symBinAddr: 0x100542A64, symSize: 0x18 }
  - { offset: 0x100E90, size: 0x8, addend: 0x0, symName: '__ZN4core3ptr42drop_in_place$LT$alloc..string..String$GT$17hca3b3c575537557cE', symObjAddr: 0x164, symBinAddr: 0x100542A7C, symSize: 0x18 }
  - { offset: 0x101171, size: 0x8, addend: 0x0, symName: __ZN4core5error5Error11description17h05ae0d4f973f9925E, symObjAddr: 0x17C, symBinAddr: 0x100542A94, symSize: 0x10 }
  - { offset: 0x10118B, size: 0x8, addend: 0x0, symName: __ZN4core5error5Error5cause17hfa0ae9313d0863d3E, symObjAddr: 0x18C, symBinAddr: 0x100542AA4, symSize: 0x8 }
  - { offset: 0x1011A5, size: 0x8, addend: 0x0, symName: __ZN4core5error5Error7provide17h0b1ecaf66bfb8bb7E, symObjAddr: 0x194, symBinAddr: 0x100542AAC, symSize: 0x4 }
  - { offset: 0x1011BF, size: 0x8, addend: 0x0, symName: __ZN4core5error5Error7type_id17h46a927ba60b4f11bE, symObjAddr: 0x198, symBinAddr: 0x100542AB0, symSize: 0x14 }
  - { offset: 0x1011DD, size: 0x8, addend: 0x0, symName: __ZN4core5error5Error7type_id17h46a927ba60b4f11bE, symObjAddr: 0x198, symBinAddr: 0x100542AB0, symSize: 0x14 }
  - { offset: 0x10197E, size: 0x8, addend: 0x0, symName: '__ZN5alloc3ffi5c_str40_$LT$impl$u20$core..ffi..c_str..CStr$GT$13into_c_string17h5dd583c421824252E', symObjAddr: 0x48C, symBinAddr: 0x100542DA4, symSize: 0x4 }
  - { offset: 0x1019A7, size: 0x8, addend: 0x0, symName: '__ZN5alloc3ffi5c_str40_$LT$impl$u20$core..ffi..c_str..CStr$GT$15to_string_lossy17hcc4ddaacddae66efE', symObjAddr: 0x490, symBinAddr: 0x100542DA8, symSize: 0x8 }
  - { offset: 0x1019C6, size: 0x8, addend: 0x0, symName: '__ZN5alloc3ffi5c_str40_$LT$impl$u20$core..ffi..c_str..CStr$GT$15to_string_lossy17hcc4ddaacddae66efE', symObjAddr: 0x490, symBinAddr: 0x100542DA8, symSize: 0x8 }
  - { offset: 0x101EAE, size: 0x8, addend: 0x0, symName: '__ZN5alloc4wtf834_$LT$impl$u20$core..wtf8..Wtf8$GT$10clone_into17hb93821b7959c1f58E', symObjAddr: 0x1FE4, symBinAddr: 0x100544848, symSize: 0x78 }
  - { offset: 0x102036, size: 0x8, addend: 0x0, symName: '__ZN5alloc4wtf834_$LT$impl$u20$core..wtf8..Wtf8$GT$15to_string_lossy17h366f1a83425e849cE', symObjAddr: 0x205C, symBinAddr: 0x1005448C0, symSize: 0x3F0 }
  - { offset: 0x10294C, size: 0x8, addend: 0x0, symName: '__ZN5alloc4wtf834_$LT$impl$u20$core..wtf8..Wtf8$GT$7into_rc17hd2002b33c121fba0E', symObjAddr: 0x244C, symBinAddr: 0x100544CB0, symSize: 0xDC }
  - { offset: 0x102B02, size: 0x8, addend: 0x0, symName: '__ZN5alloc4wtf834_$LT$impl$u20$core..wtf8..Wtf8$GT$8into_arc17h567b592e9ad7217bE', symObjAddr: 0x2528, symBinAddr: 0x100544D8C, symSize: 0xDC }
  - { offset: 0x102C94, size: 0x8, addend: 0x0, symName: '__ZN5alloc4wtf834_$LT$impl$u20$core..wtf8..Wtf8$GT$8to_owned17h231f89947675b717E', symObjAddr: 0x2604, symBinAddr: 0x100544E68, symSize: 0x8C }
  - { offset: 0x102F11, size: 0x8, addend: 0x0, symName: __RNvCsiGVaDesi5rv_7___rustc25___rdl_alloc_error_handler, symObjAddr: 0x0, symBinAddr: 0x10059B858, symSize: 0x94 }
  - { offset: 0x10301D, size: 0x8, addend: 0x0, symName: __ZN5alloc5alloc18handle_alloc_error8ct_error17h2be7e1a2be010f8aE, symObjAddr: 0x2E48, symBinAddr: 0x10059B9B8, symSize: 0x38 }
  - { offset: 0x103050, size: 0x8, addend: 0x0, symName: __ZN5alloc5alloc18handle_alloc_error17h9ce39ee6bd740d4aE, symObjAddr: 0x2E30, symBinAddr: 0x10059B9A0, symSize: 0x18 }
  - { offset: 0x10331F, size: 0x8, addend: 0x0, symName: '__ZN5alloc7raw_vec20RawVecInner$LT$A$GT$11finish_grow17h5779540bd9d0a3cdE', symObjAddr: 0x4814, symBinAddr: 0x10059BA9C, symSize: 0x8C }
  - { offset: 0x103607, size: 0x8, addend: 0x0, symName: '__ZN5alloc7raw_vec19RawVec$LT$T$C$A$GT$8grow_one17h42ee3004339b0233E', symObjAddr: 0x47B4, symBinAddr: 0x10059BA3C, symSize: 0x60 }
  - { offset: 0x1036F7, size: 0x8, addend: 0x0, symName: __ZN5alloc7raw_vec12handle_error17ha045b2c2db1a4ffeE, symObjAddr: 0x4768, symBinAddr: 0x10059B9F0, symSize: 0x14 }
  - { offset: 0x10373F, size: 0x8, addend: 0x0, symName: __ZN5alloc7raw_vec17capacity_overflow17hbcb772577d0bb908E, symObjAddr: 0x477C, symBinAddr: 0x10059BA04, symSize: 0x38 }
  - { offset: 0x103789, size: 0x8, addend: 0x0, symName: '__ZN5alloc7raw_vec20RawVecInner$LT$A$GT$7reserve21do_reserve_and_handle17h076dffaa2fb6fbdcE', symObjAddr: 0x48A0, symBinAddr: 0x10059BB28, symSize: 0x78 }
  - { offset: 0x1038C2, size: 0x8, addend: 0x0, symName: '__ZN254_$LT$alloc..boxed..convert..$LT$impl$u20$core..convert..From$LT$alloc..string..String$GT$$u20$for$u20$alloc..boxed..Box$LT$dyn$u20$core..error..Error$u2b$core..marker..Sync$u2b$core..marker..Send$GT$$GT$..from..StringError$u20$as$u20$core..fmt..Debug$GT$3fmt17h9e1a6928f85da48bE', symObjAddr: 0x10C, symBinAddr: 0x100542A24, symSize: 0x10 }
  - { offset: 0x10399C, size: 0x8, addend: 0x0, symName: '__ZN256_$LT$alloc..boxed..convert..$LT$impl$u20$core..convert..From$LT$alloc..string..String$GT$$u20$for$u20$alloc..boxed..Box$LT$dyn$u20$core..error..Error$u2b$core..marker..Sync$u2b$core..marker..Send$GT$$GT$..from..StringError$u20$as$u20$core..fmt..Display$GT$3fmt17h50a60514c697e315E', symObjAddr: 0x11C, symBinAddr: 0x100542A34, symSize: 0x10 }
  - { offset: 0x103A94, size: 0x8, addend: 0x0, symName: '__ZN5alloc5boxed7convert130_$LT$impl$u20$core..convert..From$LT$alloc..string..String$GT$$u20$for$u20$alloc..boxed..Box$LT$dyn$u20$core..error..Error$GT$$GT$4from17h09bf24d55398dff1E', symObjAddr: 0x2F48, symBinAddr: 0x10054575C, symSize: 0x7C }
  - { offset: 0x103BE9, size: 0x8, addend: 0x0, symName: '__ZN5alloc5boxed7convert116_$LT$impl$u20$core..convert..From$LT$$RF$str$GT$$u20$for$u20$alloc..boxed..Box$LT$dyn$u20$core..error..Error$GT$$GT$4from17h3b4cf071edd6549fE', symObjAddr: 0x2E80, symBinAddr: 0x100545694, symSize: 0xC8 }
  - { offset: 0x103F0F, size: 0x8, addend: 0x0, symName: '__ZN5alloc5boxed7convert138_$LT$impl$u20$core..convert..From$LT$alloc..borrow..Cow$LT$str$GT$$GT$$u20$for$u20$alloc..boxed..Box$LT$dyn$u20$core..error..Error$GT$$GT$4from17hb5c2edbb2aa2bc04E', symObjAddr: 0x2FC4, symBinAddr: 0x1005457D8, symSize: 0xDC }
  - { offset: 0x104262, size: 0x8, addend: 0x0, symName: '__ZN67_$LT$alloc..boxed..Box$LT$str$GT$$u20$as$u20$core..clone..Clone$GT$5clone17h32dd46fc4b83efbaE', symObjAddr: 0x4B68, symBinAddr: 0x1005471CC, symSize: 0x78 }
  - { offset: 0x1043E7, size: 0x8, addend: 0x0, symName: '__ZN5alloc3ffi5c_str75_$LT$impl$u20$alloc..borrow..ToOwned$u20$for$u20$core..ffi..c_str..CStr$GT$10clone_into17h7d7da4848cfa7163E', symObjAddr: 0x498, symBinAddr: 0x100542DB0, symSize: 0x114 }
  - { offset: 0x1046F4, size: 0x8, addend: 0x0, symName: '__ZN100_$LT$alloc..ffi..c_str..CString$u20$as$u20$core..convert..From$LT$$RF$core..ffi..c_str..CStr$GT$$GT$4from17h62c6b54910d821bfE', symObjAddr: 0x94, symBinAddr: 0x1005429AC, symSize: 0x78 }
  - { offset: 0x10488A, size: 0x8, addend: 0x0, symName: '__ZN5alloc3ffi5c_str100_$LT$impl$u20$core..default..Default$u20$for$u20$alloc..boxed..Box$LT$core..ffi..c_str..CStr$GT$$GT$7default17h07606755cfb68bdeE', symObjAddr: 0x448, symBinAddr: 0x100542D60, symSize: 0x38 }
  - { offset: 0x104960, size: 0x8, addend: 0x0, symName: __ZN5alloc3ffi5c_str19FromVecWithNulError8as_bytes17hae4085fd8d266f1bE, symObjAddr: 0x480, symBinAddr: 0x100542D98, symSize: 0xC }
  - { offset: 0x10497E, size: 0x8, addend: 0x0, symName: __ZN5alloc3ffi5c_str19FromVecWithNulError8as_bytes17hae4085fd8d266f1bE, symObjAddr: 0x480, symBinAddr: 0x100542D98, symSize: 0xC }
  - { offset: 0x104993, size: 0x8, addend: 0x0, symName: __ZN5alloc3ffi5c_str19FromVecWithNulError8as_bytes17hae4085fd8d266f1bE, symObjAddr: 0x480, symBinAddr: 0x100542D98, symSize: 0xC }
  - { offset: 0x1049A9, size: 0x8, addend: 0x0, symName: __ZN5alloc3ffi5c_str19FromVecWithNulError8as_bytes17hae4085fd8d266f1bE, symObjAddr: 0x480, symBinAddr: 0x100542D98, symSize: 0xC }
  - { offset: 0x1049BF, size: 0x8, addend: 0x0, symName: __ZN5alloc3ffi5c_str19FromVecWithNulError8as_bytes17hae4085fd8d266f1bE, symObjAddr: 0x480, symBinAddr: 0x100542D98, symSize: 0xC }
  - { offset: 0x1049D5, size: 0x8, addend: 0x0, symName: __ZN5alloc3ffi5c_str19FromVecWithNulError8as_bytes17hae4085fd8d266f1bE, symObjAddr: 0x480, symBinAddr: 0x100542D98, symSize: 0xC }
  - { offset: 0x1049EB, size: 0x8, addend: 0x0, symName: __ZN5alloc3ffi5c_str19FromVecWithNulError8as_bytes17hae4085fd8d266f1bE, symObjAddr: 0x480, symBinAddr: 0x100542D98, symSize: 0xC }
  - { offset: 0x104A01, size: 0x8, addend: 0x0, symName: __ZN5alloc3ffi5c_str19FromVecWithNulError8as_bytes17hae4085fd8d266f1bE, symObjAddr: 0x480, symBinAddr: 0x100542D98, symSize: 0xC }
  - { offset: 0x104A21, size: 0x8, addend: 0x0, symName: __ZN5alloc3ffi5c_str7CString10into_bytes17hf55f28d018701efdE, symObjAddr: 0x5AC, symBinAddr: 0x100542EC4, symSize: 0x14 }
  - { offset: 0x104A39, size: 0x8, addend: 0x0, symName: __ZN5alloc3ffi5c_str7CString10into_bytes17hf55f28d018701efdE, symObjAddr: 0x5AC, symBinAddr: 0x100542EC4, symSize: 0x14 }
  - { offset: 0x104A4F, size: 0x8, addend: 0x0, symName: __ZN5alloc3ffi5c_str7CString10into_bytes17hf55f28d018701efdE, symObjAddr: 0x5AC, symBinAddr: 0x100542EC4, symSize: 0x14 }
  - { offset: 0x104A87, size: 0x8, addend: 0x0, symName: __ZN5alloc3ffi5c_str7CString11into_string17h5e357d53f8a16922E, symObjAddr: 0x5C0, symBinAddr: 0x100542ED8, symSize: 0xF8 }
  - { offset: 0x104BAF, size: 0x8, addend: 0x0, symName: __ZN5alloc3ffi5c_str7CString17from_vec_with_nul17hc58fbde59e7c6602E, symObjAddr: 0x6B8, symBinAddr: 0x100542FD0, symSize: 0x148 }
  - { offset: 0x104DBB, size: 0x8, addend: 0x0, symName: __ZN5alloc3ffi5c_str7CString18from_vec_unchecked17h540c2d1d5439ebe2E, symObjAddr: 0x800, symBinAddr: 0x100543118, symSize: 0x4 }
  - { offset: 0x104DD6, size: 0x8, addend: 0x0, symName: __ZN5alloc3ffi5c_str7CString19_from_vec_unchecked17haaf0346e8c7731fdE, symObjAddr: 0x804, symBinAddr: 0x10054311C, symSize: 0x118 }
  - { offset: 0x1050D2, size: 0x8, addend: 0x0, symName: __ZN5alloc3ffi5c_str7CString19into_bytes_with_nul17hbf3fbe1205e13152E, symObjAddr: 0x91C, symBinAddr: 0x100543234, symSize: 0xC }
  - { offset: 0x1050F1, size: 0x8, addend: 0x0, symName: __ZN5alloc3ffi5c_str7CString19into_bytes_with_nul17hbf3fbe1205e13152E, symObjAddr: 0x91C, symBinAddr: 0x100543234, symSize: 0xC }
  - { offset: 0x105107, size: 0x8, addend: 0x0, symName: __ZN5alloc3ffi5c_str7CString19into_bytes_with_nul17hbf3fbe1205e13152E, symObjAddr: 0x91C, symBinAddr: 0x100543234, symSize: 0xC }
  - { offset: 0x10511B, size: 0x8, addend: 0x0, symName: __ZN5alloc3ffi5c_str7CString27from_vec_with_nul_unchecked17hb6139628e8dc9d50E, symObjAddr: 0x928, symBinAddr: 0x100543240, symSize: 0x9C }
  - { offset: 0x1052D6, size: 0x8, addend: 0x0, symName: __ZN5alloc3ffi5c_str7CString8from_raw17hf303eed547b92c05E, symObjAddr: 0x9C4, symBinAddr: 0x1005432DC, symSize: 0x28 }
  - { offset: 0x105343, size: 0x8, addend: 0x0, symName: '__ZN72_$LT$$RF$str$u20$as$u20$alloc..ffi..c_str..CString..new..SpecNewImpl$GT$13spec_new_impl17h47b23a973e43cdbcE', symObjAddr: 0x4C10, symBinAddr: 0x100547274, symSize: 0x124 }
  - { offset: 0x1055DA, size: 0x8, addend: 0x0, symName: '__ZN89_$LT$$RF$mut$u20$$u5b$u8$u5d$$u20$as$u20$alloc..ffi..c_str..CString..new..SpecNewImpl$GT$13spec_new_impl17hd16eabd8e5ac03a3E', symObjAddr: 0x5168, symBinAddr: 0x1005477CC, symSize: 0x124 }
  - { offset: 0x105873, size: 0x8, addend: 0x0, symName: '__ZN63_$LT$alloc..ffi..c_str..CString$u20$as$u20$core..fmt..Debug$GT$3fmt17h29cc9549d22a6106E', symObjAddr: 0x4AFC, symBinAddr: 0x100547160, symSize: 0x10 }
  - { offset: 0x1058C3, size: 0x8, addend: 0x0, symName: '__ZN66_$LT$alloc..ffi..c_str..NulError$u20$as$u20$core..fmt..Display$GT$3fmt17h6179e7d89ceca196E', symObjAddr: 0x4B18, symBinAddr: 0x10054717C, symSize: 0x50 }
  - { offset: 0x105913, size: 0x8, addend: 0x0, symName: '__ZN73_$LT$alloc..ffi..c_str..IntoStringError$u20$as$u20$core..fmt..Display$GT$3fmt17h1e1eb3d2ea0691abE', symObjAddr: 0x4D58, symBinAddr: 0x1005473BC, symSize: 0x14 }
  - { offset: 0x105935, size: 0x8, addend: 0x0, symName: '__ZN77_$LT$alloc..ffi..c_str..FromVecWithNulError$u20$as$u20$core..fmt..Display$GT$3fmt17h2006ff6a7b0e5cd5E', symObjAddr: 0x5024, symBinAddr: 0x100547688, symSize: 0x7C }
  - { offset: 0x105E9B, size: 0x8, addend: 0x0, symName: '__ZN5alloc3vec16Vec$LT$T$C$A$GT$10insert_mut13assert_failed17h9d2194f79e08e55dE', symObjAddr: 0x1EBC, symBinAddr: 0x10059B8EC, symSize: 0x24 }
  - { offset: 0x105ED5, size: 0x8, addend: 0x0, symName: '__ZN5alloc3vec16Vec$LT$T$C$A$GT$11swap_remove13assert_failed17h67bef705037e10a7E', symObjAddr: 0x1EE0, symBinAddr: 0x10059B910, symSize: 0x48 }
  - { offset: 0x105F0F, size: 0x8, addend: 0x0, symName: '__ZN5alloc3vec16Vec$LT$T$C$A$GT$6remove13assert_failed17h61b3357402aee7beE', symObjAddr: 0x1F28, symBinAddr: 0x10059B958, symSize: 0x24 }
  - { offset: 0x105F49, size: 0x8, addend: 0x0, symName: '__ZN5alloc3vec16Vec$LT$T$C$A$GT$9split_off13assert_failed17hbd6da1b5949544a4E', symObjAddr: 0x1F4C, symBinAddr: 0x10059B97C, symSize: 0x24 }
  - { offset: 0x10604B, size: 0x8, addend: 0x0, symName: '__ZN80_$LT$alloc..vec..Vec$LT$u8$GT$$u20$as$u20$core..convert..From$LT$$RF$str$GT$$GT$4from17had31f1280edece98E', symObjAddr: 0x50C4, symBinAddr: 0x100547728, symSize: 0x78 }
  - { offset: 0x1062D0, size: 0x8, addend: 0x0, symName: __ZN5alloc6string6String10from_utf1617h7581823ba33ae643E, symObjAddr: 0x3348, symBinAddr: 0x100545B5C, symSize: 0x270 }
  - { offset: 0x10672E, size: 0x8, addend: 0x0, symName: __ZN5alloc6string6String11try_reserve17h0030e45069993bfbE, symObjAddr: 0x35B8, symBinAddr: 0x100545DCC, symSize: 0x9C }
  - { offset: 0x10687E, size: 0x8, addend: 0x0, symName: __ZN5alloc6string6String12from_utf16be17h446cc7ee98f7c651E, symObjAddr: 0x3654, symBinAddr: 0x100545E68, symSize: 0x394 }
  - { offset: 0x106C9D, size: 0x8, addend: 0x0, symName: __ZN5alloc6string6String12from_utf16le17hbe43c0c441110d40E, symObjAddr: 0x39E8, symBinAddr: 0x1005461FC, symSize: 0x3C0 }
  - { offset: 0x1070C0, size: 0x8, addend: 0x0, symName: __ZN5alloc6string6String15from_utf8_lossy17h0796934cbf8c4e0cE, symObjAddr: 0x3DA8, symBinAddr: 0x1005465BC, symSize: 0x234 }
  - { offset: 0x10763D, size: 0x8, addend: 0x0, symName: __ZN5alloc6string6String17try_reserve_exact17hc45c7749ae87d458E, symObjAddr: 0x3FDC, symBinAddr: 0x1005467F0, symSize: 0x84 }
  - { offset: 0x10774F, size: 0x8, addend: 0x0, symName: __ZN5alloc6string6String18from_utf16be_lossy17h81cfde05b1c59021E, symObjAddr: 0x4060, symBinAddr: 0x100546874, symSize: 0x2C8 }
  - { offset: 0x107D32, size: 0x8, addend: 0x0, symName: __ZN5alloc6string6String18from_utf16le_lossy17h442761122a9799a6E, symObjAddr: 0x4328, symBinAddr: 0x100546B3C, symSize: 0x388 }
  - { offset: 0x1086BA, size: 0x8, addend: 0x0, symName: __ZN5alloc6string6String21from_utf8_lossy_owned17he9c95048a414d731E, symObjAddr: 0x46B0, symBinAddr: 0x100546EC4, symSize: 0xB8 }
  - { offset: 0x108985, size: 0x8, addend: 0x0, symName: __ZN5alloc6string5Drain6as_str17h3fad3730c7777d78E, symObjAddr: 0x3338, symBinAddr: 0x100545B4C, symSize: 0x10 }
  - { offset: 0x10899D, size: 0x8, addend: 0x0, symName: __ZN5alloc6string5Drain6as_str17h3fad3730c7777d78E, symObjAddr: 0x3338, symBinAddr: 0x100545B4C, symSize: 0x10 }
  - { offset: 0x1089B3, size: 0x8, addend: 0x0, symName: __ZN5alloc6string5Drain6as_str17h3fad3730c7777d78E, symObjAddr: 0x3338, symBinAddr: 0x100545B4C, symSize: 0x10 }
  - { offset: 0x1089C8, size: 0x8, addend: 0x0, symName: __ZN5alloc6string5Drain6as_str17h3fad3730c7777d78E, symObjAddr: 0x3338, symBinAddr: 0x100545B4C, symSize: 0x10 }
  - { offset: 0x108A27, size: 0x8, addend: 0x0, symName: '__ZN57_$LT$alloc..string..Drain$u20$as$u20$core..fmt..Debug$GT$3fmt17h6bb24e2037628b65E', symObjAddr: 0x1C0, symBinAddr: 0x100542AD8, symSize: 0x64 }
  - { offset: 0x108AE7, size: 0x8, addend: 0x0, symName: '__ZN58_$LT$alloc..string..String$u20$as$u20$core..fmt..Write$GT$10write_char17he5512f41f38db629E', symObjAddr: 0x224, symBinAddr: 0x100542B3C, symSize: 0x118 }
  - { offset: 0x108C95, size: 0x8, addend: 0x0, symName: '__ZN58_$LT$alloc..string..String$u20$as$u20$core..fmt..Write$GT$9write_str17h07f07e45209a5724E', symObjAddr: 0x33C, symBinAddr: 0x100542C54, symSize: 0x78 }
  - { offset: 0x108E1D, size: 0x8, addend: 0x0, symName: '__ZN98_$LT$alloc..string..String$u20$as$u20$core..convert..From$LT$alloc..borrow..Cow$LT$str$GT$$GT$$GT$4from17h1d6de96ddce5f39fE', symObjAddr: 0x5778, symBinAddr: 0x100547DDC, symSize: 0xAC }
  - { offset: 0x108FC4, size: 0x8, addend: 0x0, symName: '__ZN5alloc6string107_$LT$impl$u20$core..convert..From$LT$alloc..string..String$GT$$u20$for$u20$alloc..boxed..Box$LT$str$GT$$GT$4from17h213937dad5606687E', symObjAddr: 0x30A0, symBinAddr: 0x1005458B4, symSize: 0x98 }
  - { offset: 0x10914B, size: 0x8, addend: 0x0, symName: __ZN5alloc6string13FromUtf8Error15into_utf8_lossy17h84b016a34199e6ecE, symObjAddr: 0x3138, symBinAddr: 0x10054594C, symSize: 0x1F4 }
  - { offset: 0x109839, size: 0x8, addend: 0x0, symName: __ZN5alloc6string13FromUtf8Error8as_bytes17h6e4dd7a135398a41E, symObjAddr: 0x332C, symBinAddr: 0x100545B40, symSize: 0xC }
  - { offset: 0x109858, size: 0x8, addend: 0x0, symName: __ZN5alloc6string13FromUtf8Error8as_bytes17h6e4dd7a135398a41E, symObjAddr: 0x332C, symBinAddr: 0x100545B40, symSize: 0xC }
  - { offset: 0x10986E, size: 0x8, addend: 0x0, symName: __ZN5alloc6string13FromUtf8Error8as_bytes17h6e4dd7a135398a41E, symObjAddr: 0x332C, symBinAddr: 0x100545B40, symSize: 0xC }
  - { offset: 0x109884, size: 0x8, addend: 0x0, symName: __ZN5alloc6string13FromUtf8Error8as_bytes17h6e4dd7a135398a41E, symObjAddr: 0x332C, symBinAddr: 0x100545B40, symSize: 0xC }
  - { offset: 0x10989A, size: 0x8, addend: 0x0, symName: __ZN5alloc6string13FromUtf8Error8as_bytes17h6e4dd7a135398a41E, symObjAddr: 0x332C, symBinAddr: 0x100545B40, symSize: 0xC }
  - { offset: 0x1098B0, size: 0x8, addend: 0x0, symName: __ZN5alloc6string13FromUtf8Error8as_bytes17h6e4dd7a135398a41E, symObjAddr: 0x332C, symBinAddr: 0x100545B40, symSize: 0xC }
  - { offset: 0x1098C6, size: 0x8, addend: 0x0, symName: __ZN5alloc6string13FromUtf8Error8as_bytes17h6e4dd7a135398a41E, symObjAddr: 0x332C, symBinAddr: 0x100545B40, symSize: 0xC }
  - { offset: 0x1098DC, size: 0x8, addend: 0x0, symName: __ZN5alloc6string13FromUtf8Error8as_bytes17h6e4dd7a135398a41E, symObjAddr: 0x332C, symBinAddr: 0x100545B40, symSize: 0xC }
  - { offset: 0x109934, size: 0x8, addend: 0x0, symName: '__ZN95_$LT$alloc..string..String$u20$as$u20$core..iter..traits..collect..FromIterator$LT$char$GT$$GT$9from_iter17ha958f3179a74db4fE', symObjAddr: 0x5474, symBinAddr: 0x100547AD8, symSize: 0x258 }
  - { offset: 0x109E52, size: 0x8, addend: 0x0, symName: '__ZN85_$LT$alloc..string..String..retain..SetLenOnDrop$u20$as$u20$core..ops..drop..Drop$GT$4drop17hf16da6c8c8a98e1aE', symObjAddr: 0x513C, symBinAddr: 0x1005477A0, symSize: 0x14 }
  - { offset: 0x109EB7, size: 0x8, addend: 0x0, symName: '__ZN60_$LT$alloc..string..String$u20$as$u20$core..clone..Clone$GT$10clone_from17h93fc58bd6ea09116E', symObjAddr: 0x4918, symBinAddr: 0x100546F7C, symSize: 0x7C }
  - { offset: 0x10A023, size: 0x8, addend: 0x0, symName: '__ZN60_$LT$alloc..string..String$u20$as$u20$core..clone..Clone$GT$5clone17h1f8881cf73048a3eE', symObjAddr: 0x4994, symBinAddr: 0x100546FF8, symSize: 0x88 }
  - { offset: 0x10A1D3, size: 0x8, addend: 0x0, symName: '__ZN61_$LT$alloc..string..IntoChars$u20$as$u20$core..fmt..Debug$GT$3fmt17hb9368074d673e11fE', symObjAddr: 0x4A1C, symBinAddr: 0x100547080, symSize: 0x68 }
  - { offset: 0x10A2A9, size: 0x8, addend: 0x0, symName: '__ZN62_$LT$alloc..string..Drain$u20$as$u20$core..ops..drop..Drop$GT$4drop17h3fef744f730af50cE', symObjAddr: 0x4A84, symBinAddr: 0x1005470E8, symSize: 0x78 }
  - { offset: 0x10A41A, size: 0x8, addend: 0x0, symName: '__ZN67_$LT$alloc..string..FromUtf8Error$u20$as$u20$core..fmt..Display$GT$3fmt17hcfdc7d193f65a0acE', symObjAddr: 0x4BE0, symBinAddr: 0x100547244, symSize: 0x8 }
  - { offset: 0x10A43C, size: 0x8, addend: 0x0, symName: '__ZN68_$LT$alloc..string..FromUtf16Error$u20$as$u20$core..fmt..Display$GT$3fmt17h856ff09ba649b0adE', symObjAddr: 0x4BE8, symBinAddr: 0x10054724C, symSize: 0x14 }
  - { offset: 0x10A45E, size: 0x8, addend: 0x0, symName: '__ZN72_$LT$alloc..string..Drain$u20$as$u20$core..convert..AsRef$LT$str$GT$$GT$6as_ref17hcc1a5002112cbd46E', symObjAddr: 0x4D34, symBinAddr: 0x100547398, symSize: 0x10 }
  - { offset: 0x10A47D, size: 0x8, addend: 0x0, symName: '__ZN72_$LT$alloc..string..Drain$u20$as$u20$core..convert..AsRef$LT$str$GT$$GT$6as_ref17hcc1a5002112cbd46E', symObjAddr: 0x4D34, symBinAddr: 0x100547398, symSize: 0x10 }
  - { offset: 0x10A493, size: 0x8, addend: 0x0, symName: '__ZN72_$LT$alloc..string..Drain$u20$as$u20$core..convert..AsRef$LT$str$GT$$GT$6as_ref17hcc1a5002112cbd46E', symObjAddr: 0x4D34, symBinAddr: 0x100547398, symSize: 0x10 }
  - { offset: 0x10A4A9, size: 0x8, addend: 0x0, symName: '__ZN72_$LT$alloc..string..Drain$u20$as$u20$core..convert..AsRef$LT$str$GT$$GT$6as_ref17hcc1a5002112cbd46E', symObjAddr: 0x4D34, symBinAddr: 0x100547398, symSize: 0x10 }
  - { offset: 0x10A4BE, size: 0x8, addend: 0x0, symName: '__ZN72_$LT$alloc..string..Drain$u20$as$u20$core..convert..AsRef$LT$str$GT$$GT$6as_ref17hcc1a5002112cbd46E', symObjAddr: 0x4D34, symBinAddr: 0x100547398, symSize: 0x10 }
  - { offset: 0x10A533, size: 0x8, addend: 0x0, symName: '__ZN73_$LT$$RF$alloc..string..String$u20$as$u20$core..str..pattern..Pattern$GT$13into_searcher17hb03e07a408306b34E', symObjAddr: 0x4D44, symBinAddr: 0x1005473A8, symSize: 0x14 }
  - { offset: 0x10A60C, size: 0x8, addend: 0x0, symName: '__ZN79_$LT$alloc..string..Drain$u20$as$u20$core..iter..traits..iterator..Iterator$GT$9size_hint17hb6bf33066c1952ccE', symObjAddr: 0x50A0, symBinAddr: 0x100547704, symSize: 0x24 }
  - { offset: 0x10A62B, size: 0x8, addend: 0x0, symName: '__ZN79_$LT$alloc..string..Drain$u20$as$u20$core..iter..traits..iterator..Iterator$GT$9size_hint17hb6bf33066c1952ccE', symObjAddr: 0x50A0, symBinAddr: 0x100547704, symSize: 0x24 }
  - { offset: 0x10A641, size: 0x8, addend: 0x0, symName: '__ZN79_$LT$alloc..string..Drain$u20$as$u20$core..iter..traits..iterator..Iterator$GT$9size_hint17hb6bf33066c1952ccE', symObjAddr: 0x50A0, symBinAddr: 0x100547704, symSize: 0x24 }
  - { offset: 0x10A6B4, size: 0x8, addend: 0x0, symName: '__ZN97_$LT$alloc..string..String$u20$as$u20$core..convert..TryFrom$LT$alloc..vec..Vec$LT$u8$GT$$GT$$GT$8try_from17h41039afa672c27fdE', symObjAddr: 0x56CC, symBinAddr: 0x100547D30, symSize: 0xAC }
  - { offset: 0x10A82E, size: 0x8, addend: 0x0, symName: __ZN5alloc4wtf87Wtf8Buf11into_string17h51b8067aaf272b58E, symObjAddr: 0x2690, symBinAddr: 0x100544EF4, symSize: 0xD8 }
  - { offset: 0x10A9A2, size: 0x8, addend: 0x0, symName: __ZN5alloc4wtf87Wtf8Buf17into_string_lossy17h6b64dde9f9eb6e88E, symObjAddr: 0x2768, symBinAddr: 0x100544FCC, symSize: 0x16C }
  - { offset: 0x10AC5C, size: 0x8, addend: 0x0, symName: __ZN5alloc4wtf87Wtf8Buf25push_code_point_unchecked17he1013de1544bbc4fE, symObjAddr: 0x28D4, symBinAddr: 0x100545138, symSize: 0x104 }
  - { offset: 0x10ADE7, size: 0x8, addend: 0x0, symName: __ZN5alloc4wtf87Wtf8Buf5clear17h415ecc7abb1d2f77E, symObjAddr: 0x29D8, symBinAddr: 0x10054523C, symSize: 0x10 }
  - { offset: 0x10AE05, size: 0x8, addend: 0x0, symName: __ZN5alloc4wtf87Wtf8Buf5clear17h415ecc7abb1d2f77E, symObjAddr: 0x29D8, symBinAddr: 0x10054523C, symSize: 0x10 }
  - { offset: 0x10AE17, size: 0x8, addend: 0x0, symName: __ZN5alloc4wtf87Wtf8Buf8from_box17he7675ccaf9a5ed9fE, symObjAddr: 0x29E8, symBinAddr: 0x10054524C, symSize: 0x10 }
  - { offset: 0x10AE5A, size: 0x8, addend: 0x0, symName: __ZN5alloc4wtf87Wtf8Buf9from_wide17h7037b079713a7efbE, symObjAddr: 0x29F8, symBinAddr: 0x10054525C, symSize: 0x438 }
  - { offset: 0x10B34A, size: 0x8, addend: 0x0, symName: '__ZN59_$LT$alloc..wtf8..Wtf8Buf$u20$as$u20$core..fmt..Display$GT$3fmt17hc0a99299ca5efbffE', symObjAddr: 0x3B4, symBinAddr: 0x100542CCC, symSize: 0x20 }
  - { offset: 0x10B3B0, size: 0x8, addend: 0x0, symName: '__ZN64_$LT$alloc..wtf8..Wtf8Buf$u20$as$u20$core..ops..deref..Deref$GT$5deref17h4a42044d7b56a5e3E', symObjAddr: 0x4B0C, symBinAddr: 0x100547170, symSize: 0xC }
  - { offset: 0x10B3C8, size: 0x8, addend: 0x0, symName: '__ZN64_$LT$alloc..wtf8..Wtf8Buf$u20$as$u20$core..ops..deref..Deref$GT$5deref17h4a42044d7b56a5e3E', symObjAddr: 0x4B0C, symBinAddr: 0x100547170, symSize: 0xC }
  - { offset: 0x10B3DD, size: 0x8, addend: 0x0, symName: '__ZN64_$LT$alloc..wtf8..Wtf8Buf$u20$as$u20$core..ops..deref..Deref$GT$5deref17h4a42044d7b56a5e3E', symObjAddr: 0x4B0C, symBinAddr: 0x100547170, symSize: 0xC }
  - { offset: 0x10B3F2, size: 0x8, addend: 0x0, symName: '__ZN64_$LT$alloc..wtf8..Wtf8Buf$u20$as$u20$core..ops..deref..Deref$GT$5deref17h4a42044d7b56a5e3E', symObjAddr: 0x4B0C, symBinAddr: 0x100547170, symSize: 0xC }
  - { offset: 0x10B408, size: 0x8, addend: 0x0, symName: '__ZN64_$LT$alloc..wtf8..Wtf8Buf$u20$as$u20$core..ops..deref..Deref$GT$5deref17h4a42044d7b56a5e3E', symObjAddr: 0x4B0C, symBinAddr: 0x100547170, symSize: 0xC }
  - { offset: 0x10B41E, size: 0x8, addend: 0x0, symName: '__ZN64_$LT$alloc..wtf8..Wtf8Buf$u20$as$u20$core..ops..deref..Deref$GT$5deref17h4a42044d7b56a5e3E', symObjAddr: 0x4B0C, symBinAddr: 0x100547170, symSize: 0xC }
  - { offset: 0x10B434, size: 0x8, addend: 0x0, symName: '__ZN64_$LT$alloc..wtf8..Wtf8Buf$u20$as$u20$core..ops..deref..Deref$GT$5deref17h4a42044d7b56a5e3E', symObjAddr: 0x4B0C, symBinAddr: 0x100547170, symSize: 0xC }
  - { offset: 0x10B44A, size: 0x8, addend: 0x0, symName: '__ZN64_$LT$alloc..wtf8..Wtf8Buf$u20$as$u20$core..ops..deref..Deref$GT$5deref17h4a42044d7b56a5e3E', symObjAddr: 0x4B0C, symBinAddr: 0x100547170, symSize: 0xC }
  - { offset: 0x10B46B, size: 0x8, addend: 0x0, symName: __ZN5alloc2rc32rc_inner_layout_for_value_layout17h5c5c20142d3322b7E, symObjAddr: 0x3D4, symBinAddr: 0x100542CEC, symSize: 0x74 }
  - { offset: 0x10B73E, size: 0x8, addend: 0x0, symName: __ZN5alloc3fmt6format12format_inner17hfba7744daf75a2c1E, symObjAddr: 0x9EC, symBinAddr: 0x100543304, symSize: 0x1C4 }
  - { offset: 0x10BA61, size: 0x8, addend: 0x0, symName: '__ZN5alloc3str21_$LT$impl$u20$str$GT$12to_lowercase17h5a66f5cba8e2f530E', symObjAddr: 0xBB0, symBinAddr: 0x1005434C8, symSize: 0xBC8 }
  - { offset: 0x10C9C9, size: 0x8, addend: 0x0, symName: '__ZN5alloc3str21_$LT$impl$u20$str$GT$12to_uppercase17hf1ecff2abd335c6dE', symObjAddr: 0x1778, symBinAddr: 0x100544090, symSize: 0x744 }
  - { offset: 0x10D4CB, size: 0x8, addend: 0x0, symName: __ZN5alloc4sync32arcinner_layout_for_value_layout17he425d1548cf056f2E, symObjAddr: 0x1F70, symBinAddr: 0x1005447D4, symSize: 0x74 }
  - { offset: 0x10D694, size: 0x8, addend: 0x0, symName: '__ZN77_$LT$alloc..borrow..Cow$LT$str$GT$$u20$as$u20$core..ops..arith..AddAssign$GT$10add_assign17h31c8c93502207d9eE', symObjAddr: 0x4DE0, symBinAddr: 0x100547444, symSize: 0x244 }
  - { offset: 0x10DDF7, size: 0x8, addend: 0x0, symName: '__ZN92_$LT$alloc..borrow..Cow$LT$str$GT$$u20$as$u20$core..ops..arith..AddAssign$LT$$RF$str$GT$$GT$10add_assign17h58e40cc090a0ac84E', symObjAddr: 0x528C, symBinAddr: 0x1005478F0, symSize: 0x1E8 }
  - { offset: 0x10E3E6, size: 0x8, addend: 0x0, symName: '__ZN74_$LT$alloc..collections..TryReserveError$u20$as$u20$core..fmt..Display$GT$3fmt17he08539a627369ad8E', symObjAddr: 0x4D6C, symBinAddr: 0x1005473D0, symSize: 0x74 }
  - { offset: 0x10E429, size: 0x8, addend: 0x0, symName: '__ZN88_$LT$alloc..collections..btree..map..UnorderedKeyError$u20$as$u20$core..fmt..Display$GT$3fmt17ha5d914a4cf09cef6E', symObjAddr: 0x5150, symBinAddr: 0x1005477B4, symSize: 0x18 }
  - { offset: 0x10E460, size: 0x8, addend: 0x0, symName: _OUTLINED_FUNCTION_0, symObjAddr: 0x5824, symBinAddr: 0x100547E88, symSize: 0x24 }
  - { offset: 0x10E478, size: 0x8, addend: 0x0, symName: _OUTLINED_FUNCTION_1, symObjAddr: 0x5848, symBinAddr: 0x100547EAC, symSize: 0x20 }
  - { offset: 0x10E4AE, size: 0x8, addend: 0x0, symName: '__ZN101_$LT$core..char..CaseMappingIter$u20$as$u20$core..iter..traits..double_ended..DoubleEndedIterator$GT$15advance_back_by17h36c33e800069da48E', symObjAddr: 0x0, symBinAddr: 0x100547ECC, symSize: 0x24 }
  - { offset: 0x10E7B2, size: 0x8, addend: 0x0, symName: '__ZN64_$LT$core..ops..range..RangeFull$u20$as$u20$core..fmt..Debug$GT$3fmt17h7a0a6f317c44d260E', symObjAddr: 0x1A634, symBinAddr: 0x1005613F8, symSize: 0x18 }
  - { offset: 0x10E7EA, size: 0x8, addend: 0x0, symName: '__ZN71_$LT$core..ops..range..Range$LT$Idx$GT$$u20$as$u20$core..fmt..Debug$GT$3fmt17h81c5689bd48f13c8E', symObjAddr: 0x1D238, symBinAddr: 0x100563FFC, symSize: 0x5C }
  - { offset: 0x10F869, size: 0x8, addend: 0x0, symName: '__ZN101_$LT$core..char..CaseMappingIter$u20$as$u20$core..iter..traits..double_ended..DoubleEndedIterator$GT$15advance_back_by17h36c33e800069da48E', symObjAddr: 0x0, symBinAddr: 0x100547ECC, symSize: 0x24 }
  - { offset: 0x10F881, size: 0x8, addend: 0x0, symName: '__ZN101_$LT$core..char..CaseMappingIter$u20$as$u20$core..iter..traits..double_ended..DoubleEndedIterator$GT$15advance_back_by17h36c33e800069da48E', symObjAddr: 0x0, symBinAddr: 0x100547ECC, symSize: 0x24 }
  - { offset: 0x10F897, size: 0x8, addend: 0x0, symName: '__ZN101_$LT$core..char..CaseMappingIter$u20$as$u20$core..iter..traits..double_ended..DoubleEndedIterator$GT$15advance_back_by17h36c33e800069da48E', symObjAddr: 0x0, symBinAddr: 0x100547ECC, symSize: 0x24 }
  - { offset: 0x10F8AD, size: 0x8, addend: 0x0, symName: '__ZN101_$LT$core..char..CaseMappingIter$u20$as$u20$core..iter..traits..double_ended..DoubleEndedIterator$GT$15advance_back_by17h36c33e800069da48E', symObjAddr: 0x0, symBinAddr: 0x100547ECC, symSize: 0x24 }
  - { offset: 0x10F900, size: 0x8, addend: 0x0, symName: '__ZN101_$LT$core..char..CaseMappingIter$u20$as$u20$core..iter..traits..double_ended..DoubleEndedIterator$GT$9next_back17hca402148ba9fdcfbE', symObjAddr: 0x24, symBinAddr: 0x100547EF0, symSize: 0x28 }
  - { offset: 0x10F93F, size: 0x8, addend: 0x0, symName: '__ZN101_$LT$core..char..CaseMappingIter$u20$as$u20$core..iter..traits..double_ended..DoubleEndedIterator$GT$9next_back17hca402148ba9fdcfbE', symObjAddr: 0x24, symBinAddr: 0x100547EF0, symSize: 0x28 }
  - { offset: 0x10F954, size: 0x8, addend: 0x0, symName: '__ZN101_$LT$core..char..CaseMappingIter$u20$as$u20$core..iter..traits..double_ended..DoubleEndedIterator$GT$9next_back17hca402148ba9fdcfbE', symObjAddr: 0x24, symBinAddr: 0x100547EF0, symSize: 0x28 }
  - { offset: 0x10F969, size: 0x8, addend: 0x0, symName: '__ZN101_$LT$core..char..CaseMappingIter$u20$as$u20$core..iter..traits..double_ended..DoubleEndedIterator$GT$9next_back17hca402148ba9fdcfbE', symObjAddr: 0x24, symBinAddr: 0x100547EF0, symSize: 0x28 }
  - { offset: 0x10FAAC, size: 0x8, addend: 0x0, symName: '__ZN74_$LT$core..char..convert..ParseCharError$u20$as$u20$core..fmt..Display$GT$3fmt17h1fc9ebbc7855c4f0E', symObjAddr: 0x1D834, symBinAddr: 0x1005645F8, symSize: 0x38 }
  - { offset: 0x10FAF8, size: 0x8, addend: 0x0, symName: '__ZN76_$LT$core..char..convert..CharTryFromError$u20$as$u20$core..fmt..Display$GT$3fmt17h8ef4626f1a7315f7E', symObjAddr: 0x1E264, symBinAddr: 0x100565028, symSize: 0x14 }
  - { offset: 0x10FBD0, size: 0x8, addend: 0x0, symName: '__ZN4core4char7methods22_$LT$impl$u20$char$GT$16escape_debug_ext17h7fd3d5a0914badefE', symObjAddr: 0x159CC, symBinAddr: 0x10055D330, symSize: 0x284 }
  - { offset: 0x10FE2C, size: 0x8, addend: 0x0, symName: __ZN4core4char7methods15encode_utf8_raw8do_panic7runtime17h2a988d13cf07b3caE, symObjAddr: 0x158F4, symBinAddr: 0x10059C030, symSize: 0x6C }
  - { offset: 0x10FE6C, size: 0x8, addend: 0x0, symName: __ZN4core4char7methods16encode_utf16_raw8do_panic7runtime17hf66a56fc5e1a8ae7E, symObjAddr: 0x15960, symBinAddr: 0x10059C09C, symSize: 0x6C }
  - { offset: 0x10FF10, size: 0x8, addend: 0x0, symName: '__ZN62_$LT$core..char..EscapeDebug$u20$as$u20$core..fmt..Display$GT$3fmt17h349380a3c388e91cE', symObjAddr: 0x1A1A4, symBinAddr: 0x100560F68, symSize: 0x34 }
  - { offset: 0x110018, size: 0x8, addend: 0x0, symName: '__ZN64_$LT$core..char..EscapeUnicode$u20$as$u20$core..fmt..Display$GT$3fmt17h83168ad752ee8d2dE', symObjAddr: 0x1A4C8, symBinAddr: 0x10056128C, symSize: 0x20 }
  - { offset: 0x11009E, size: 0x8, addend: 0x0, symName: '__ZN67_$LT$core..char..TryFromCharError$u20$as$u20$core..fmt..Display$GT$3fmt17hc7eefcb4788b7d22E', symObjAddr: 0x1ACC8, symBinAddr: 0x100561A8C, symSize: 0x14 }
  - { offset: 0x110177, size: 0x8, addend: 0x0, symName: '__ZN75_$LT$core..char..decode..DecodeUtf16Error$u20$as$u20$core..fmt..Display$GT$3fmt17h05b9067ebbd97be1E', symObjAddr: 0x1DCCC, symBinAddr: 0x100564A90, symSize: 0x4C }
  - { offset: 0x11020D, size: 0x8, addend: 0x0, symName: '__ZN86_$LT$core..char..CaseMappingIter$u20$as$u20$core..iter..traits..iterator..Iterator$GT$10advance_by17he374869c0c80af08E', symObjAddr: 0x1F5AC, symBinAddr: 0x100566370, symSize: 0x20 }
  - { offset: 0x110225, size: 0x8, addend: 0x0, symName: '__ZN86_$LT$core..char..CaseMappingIter$u20$as$u20$core..iter..traits..iterator..Iterator$GT$10advance_by17he374869c0c80af08E', symObjAddr: 0x1F5AC, symBinAddr: 0x100566370, symSize: 0x20 }
  - { offset: 0x11023B, size: 0x8, addend: 0x0, symName: '__ZN86_$LT$core..char..CaseMappingIter$u20$as$u20$core..iter..traits..iterator..Iterator$GT$10advance_by17he374869c0c80af08E', symObjAddr: 0x1F5AC, symBinAddr: 0x100566370, symSize: 0x20 }
  - { offset: 0x110251, size: 0x8, addend: 0x0, symName: '__ZN86_$LT$core..char..CaseMappingIter$u20$as$u20$core..iter..traits..iterator..Iterator$GT$10advance_by17he374869c0c80af08E', symObjAddr: 0x1F5AC, symBinAddr: 0x100566370, symSize: 0x20 }
  - { offset: 0x11028F, size: 0x8, addend: 0x0, symName: '__ZN86_$LT$core..char..CaseMappingIter$u20$as$u20$core..iter..traits..iterator..Iterator$GT$24__iterator_get_unchecked17h2d8da57ebfb596d9E', symObjAddr: 0x1F5CC, symBinAddr: 0x100566390, symSize: 0x14 }
  - { offset: 0x1102A7, size: 0x8, addend: 0x0, symName: '__ZN86_$LT$core..char..CaseMappingIter$u20$as$u20$core..iter..traits..iterator..Iterator$GT$24__iterator_get_unchecked17h2d8da57ebfb596d9E', symObjAddr: 0x1F5CC, symBinAddr: 0x100566390, symSize: 0x14 }
  - { offset: 0x1102BD, size: 0x8, addend: 0x0, symName: '__ZN86_$LT$core..char..CaseMappingIter$u20$as$u20$core..iter..traits..iterator..Iterator$GT$24__iterator_get_unchecked17h2d8da57ebfb596d9E', symObjAddr: 0x1F5CC, symBinAddr: 0x100566390, symSize: 0x14 }
  - { offset: 0x1102D3, size: 0x8, addend: 0x0, symName: '__ZN86_$LT$core..char..CaseMappingIter$u20$as$u20$core..iter..traits..iterator..Iterator$GT$24__iterator_get_unchecked17h2d8da57ebfb596d9E', symObjAddr: 0x1F5CC, symBinAddr: 0x100566390, symSize: 0x14 }
  - { offset: 0x1102E8, size: 0x8, addend: 0x0, symName: '__ZN86_$LT$core..char..CaseMappingIter$u20$as$u20$core..iter..traits..iterator..Iterator$GT$24__iterator_get_unchecked17h2d8da57ebfb596d9E', symObjAddr: 0x1F5CC, symBinAddr: 0x100566390, symSize: 0x14 }
  - { offset: 0x110356, size: 0x8, addend: 0x0, symName: '__ZN86_$LT$core..char..CaseMappingIter$u20$as$u20$core..iter..traits..iterator..Iterator$GT$4last17hd862851ad33c5d44E', symObjAddr: 0x1F5E0, symBinAddr: 0x1005663A4, symSize: 0x38 }
  - { offset: 0x1104A2, size: 0x8, addend: 0x0, symName: '__ZN86_$LT$core..char..CaseMappingIter$u20$as$u20$core..iter..traits..iterator..Iterator$GT$4next17h5938c539dbeaf0adE', symObjAddr: 0x1F618, symBinAddr: 0x1005663DC, symSize: 0x28 }
  - { offset: 0x1104E1, size: 0x8, addend: 0x0, symName: '__ZN86_$LT$core..char..CaseMappingIter$u20$as$u20$core..iter..traits..iterator..Iterator$GT$4next17h5938c539dbeaf0adE', symObjAddr: 0x1F618, symBinAddr: 0x1005663DC, symSize: 0x28 }
  - { offset: 0x1104F6, size: 0x8, addend: 0x0, symName: '__ZN86_$LT$core..char..CaseMappingIter$u20$as$u20$core..iter..traits..iterator..Iterator$GT$4next17h5938c539dbeaf0adE', symObjAddr: 0x1F618, symBinAddr: 0x1005663DC, symSize: 0x28 }
  - { offset: 0x11050B, size: 0x8, addend: 0x0, symName: '__ZN86_$LT$core..char..CaseMappingIter$u20$as$u20$core..iter..traits..iterator..Iterator$GT$4next17h5938c539dbeaf0adE', symObjAddr: 0x1F618, symBinAddr: 0x1005663DC, symSize: 0x28 }
  - { offset: 0x1105C4, size: 0x8, addend: 0x0, symName: '__ZN82_$LT$core..char..ToLowercase$u20$as$u20$core..iter..traits..iterator..Iterator$GT$10advance_by17h0c256539057683edE', symObjAddr: 0x1E84C, symBinAddr: 0x100565610, symSize: 0x20 }
  - { offset: 0x1105E3, size: 0x8, addend: 0x0, symName: '__ZN82_$LT$core..char..ToLowercase$u20$as$u20$core..iter..traits..iterator..Iterator$GT$10advance_by17h0c256539057683edE', symObjAddr: 0x1E84C, symBinAddr: 0x100565610, symSize: 0x20 }
  - { offset: 0x1105F9, size: 0x8, addend: 0x0, symName: '__ZN82_$LT$core..char..ToLowercase$u20$as$u20$core..iter..traits..iterator..Iterator$GT$10advance_by17h0c256539057683edE', symObjAddr: 0x1E84C, symBinAddr: 0x100565610, symSize: 0x20 }
  - { offset: 0x11060F, size: 0x8, addend: 0x0, symName: '__ZN82_$LT$core..char..ToLowercase$u20$as$u20$core..iter..traits..iterator..Iterator$GT$10advance_by17h0c256539057683edE', symObjAddr: 0x1E84C, symBinAddr: 0x100565610, symSize: 0x20 }
  - { offset: 0x110625, size: 0x8, addend: 0x0, symName: '__ZN82_$LT$core..char..ToLowercase$u20$as$u20$core..iter..traits..iterator..Iterator$GT$10advance_by17h0c256539057683edE', symObjAddr: 0x1E84C, symBinAddr: 0x100565610, symSize: 0x20 }
  - { offset: 0x110664, size: 0x8, addend: 0x0, symName: '__ZN82_$LT$core..char..ToLowercase$u20$as$u20$core..iter..traits..iterator..Iterator$GT$24__iterator_get_unchecked17h03cc16e108d4733dE', symObjAddr: 0x1E86C, symBinAddr: 0x100565630, symSize: 0x14 }
  - { offset: 0x110683, size: 0x8, addend: 0x0, symName: '__ZN82_$LT$core..char..ToLowercase$u20$as$u20$core..iter..traits..iterator..Iterator$GT$24__iterator_get_unchecked17h03cc16e108d4733dE', symObjAddr: 0x1E86C, symBinAddr: 0x100565630, symSize: 0x14 }
  - { offset: 0x110699, size: 0x8, addend: 0x0, symName: '__ZN82_$LT$core..char..ToLowercase$u20$as$u20$core..iter..traits..iterator..Iterator$GT$24__iterator_get_unchecked17h03cc16e108d4733dE', symObjAddr: 0x1E86C, symBinAddr: 0x100565630, symSize: 0x14 }
  - { offset: 0x1106AF, size: 0x8, addend: 0x0, symName: '__ZN82_$LT$core..char..ToLowercase$u20$as$u20$core..iter..traits..iterator..Iterator$GT$24__iterator_get_unchecked17h03cc16e108d4733dE', symObjAddr: 0x1E86C, symBinAddr: 0x100565630, symSize: 0x14 }
  - { offset: 0x1106C5, size: 0x8, addend: 0x0, symName: '__ZN82_$LT$core..char..ToLowercase$u20$as$u20$core..iter..traits..iterator..Iterator$GT$24__iterator_get_unchecked17h03cc16e108d4733dE', symObjAddr: 0x1E86C, symBinAddr: 0x100565630, symSize: 0x14 }
  - { offset: 0x1106DA, size: 0x8, addend: 0x0, symName: '__ZN82_$LT$core..char..ToLowercase$u20$as$u20$core..iter..traits..iterator..Iterator$GT$24__iterator_get_unchecked17h03cc16e108d4733dE', symObjAddr: 0x1E86C, symBinAddr: 0x100565630, symSize: 0x14 }
  - { offset: 0x110749, size: 0x8, addend: 0x0, symName: '__ZN82_$LT$core..char..ToLowercase$u20$as$u20$core..iter..traits..iterator..Iterator$GT$4last17ha687241c203a4c9aE', symObjAddr: 0x1E880, symBinAddr: 0x100565644, symSize: 0x38 }
  - { offset: 0x110768, size: 0x8, addend: 0x0, symName: '__ZN82_$LT$core..char..ToLowercase$u20$as$u20$core..iter..traits..iterator..Iterator$GT$4last17ha687241c203a4c9aE', symObjAddr: 0x1E880, symBinAddr: 0x100565644, symSize: 0x38 }
  - { offset: 0x1108B3, size: 0x8, addend: 0x0, symName: '__ZN82_$LT$core..char..ToLowercase$u20$as$u20$core..iter..traits..iterator..Iterator$GT$4next17h50c408dade3383cfE', symObjAddr: 0x1E8B8, symBinAddr: 0x10056567C, symSize: 0x28 }
  - { offset: 0x110906, size: 0x8, addend: 0x0, symName: '__ZN82_$LT$core..char..ToLowercase$u20$as$u20$core..iter..traits..iterator..Iterator$GT$4next17h50c408dade3383cfE', symObjAddr: 0x1E8B8, symBinAddr: 0x10056567C, symSize: 0x28 }
  - { offset: 0x11091B, size: 0x8, addend: 0x0, symName: '__ZN82_$LT$core..char..ToLowercase$u20$as$u20$core..iter..traits..iterator..Iterator$GT$4next17h50c408dade3383cfE', symObjAddr: 0x1E8B8, symBinAddr: 0x10056567C, symSize: 0x28 }
  - { offset: 0x110930, size: 0x8, addend: 0x0, symName: '__ZN82_$LT$core..char..ToLowercase$u20$as$u20$core..iter..traits..iterator..Iterator$GT$4next17h50c408dade3383cfE', symObjAddr: 0x1E8B8, symBinAddr: 0x10056567C, symSize: 0x28 }
  - { offset: 0x1109E3, size: 0x8, addend: 0x0, symName: '__ZN82_$LT$core..char..ToLowercase$u20$as$u20$core..iter..traits..iterator..Iterator$GT$5count17h7a6c17b223716940E', symObjAddr: 0x1E8E0, symBinAddr: 0x1005656A4, symSize: 0xC }
  - { offset: 0x110A77, size: 0x8, addend: 0x0, symName: '__ZN97_$LT$core..char..ToLowercase$u20$as$u20$core..iter..traits..double_ended..DoubleEndedIterator$GT$15advance_back_by17h25f1f0f62520882eE', symObjAddr: 0x1FCF4, symBinAddr: 0x100566AB8, symSize: 0x24 }
  - { offset: 0x110A96, size: 0x8, addend: 0x0, symName: '__ZN97_$LT$core..char..ToLowercase$u20$as$u20$core..iter..traits..double_ended..DoubleEndedIterator$GT$15advance_back_by17h25f1f0f62520882eE', symObjAddr: 0x1FCF4, symBinAddr: 0x100566AB8, symSize: 0x24 }
  - { offset: 0x110AAC, size: 0x8, addend: 0x0, symName: '__ZN97_$LT$core..char..ToLowercase$u20$as$u20$core..iter..traits..double_ended..DoubleEndedIterator$GT$15advance_back_by17h25f1f0f62520882eE', symObjAddr: 0x1FCF4, symBinAddr: 0x100566AB8, symSize: 0x24 }
  - { offset: 0x110AC2, size: 0x8, addend: 0x0, symName: '__ZN97_$LT$core..char..ToLowercase$u20$as$u20$core..iter..traits..double_ended..DoubleEndedIterator$GT$15advance_back_by17h25f1f0f62520882eE', symObjAddr: 0x1FCF4, symBinAddr: 0x100566AB8, symSize: 0x24 }
  - { offset: 0x110AD8, size: 0x8, addend: 0x0, symName: '__ZN97_$LT$core..char..ToLowercase$u20$as$u20$core..iter..traits..double_ended..DoubleEndedIterator$GT$15advance_back_by17h25f1f0f62520882eE', symObjAddr: 0x1FCF4, symBinAddr: 0x100566AB8, symSize: 0x24 }
  - { offset: 0x110B2C, size: 0x8, addend: 0x0, symName: '__ZN97_$LT$core..char..ToLowercase$u20$as$u20$core..iter..traits..double_ended..DoubleEndedIterator$GT$9next_back17h57c14eb570c9ea7dE', symObjAddr: 0x1FD18, symBinAddr: 0x100566ADC, symSize: 0x28 }
  - { offset: 0x110B7F, size: 0x8, addend: 0x0, symName: '__ZN97_$LT$core..char..ToLowercase$u20$as$u20$core..iter..traits..double_ended..DoubleEndedIterator$GT$9next_back17h57c14eb570c9ea7dE', symObjAddr: 0x1FD18, symBinAddr: 0x100566ADC, symSize: 0x28 }
  - { offset: 0x110B94, size: 0x8, addend: 0x0, symName: '__ZN97_$LT$core..char..ToLowercase$u20$as$u20$core..iter..traits..double_ended..DoubleEndedIterator$GT$9next_back17h57c14eb570c9ea7dE', symObjAddr: 0x1FD18, symBinAddr: 0x100566ADC, symSize: 0x28 }
  - { offset: 0x110BA9, size: 0x8, addend: 0x0, symName: '__ZN97_$LT$core..char..ToLowercase$u20$as$u20$core..iter..traits..double_ended..DoubleEndedIterator$GT$9next_back17h57c14eb570c9ea7dE', symObjAddr: 0x1FD18, symBinAddr: 0x100566ADC, symSize: 0x28 }
  - { offset: 0x111B09, size: 0x8, addend: 0x0, symName: '__ZN49_$LT$u8$u20$as$u20$core..num..bignum..FullOps$GT$12full_div_rem17h138457f219f82e79E', symObjAddr: 0xEE8, symBinAddr: 0x100548DB4, symSize: 0x38 }
  - { offset: 0x111B51, size: 0x8, addend: 0x0, symName: __ZN4core3num6bignum5tests6Big8x310bit_length17h97916080aa381761E, symObjAddr: 0xD80C, symBinAddr: 0x1005553FC, symSize: 0xC0 }
  - { offset: 0x111C6E, size: 0x8, addend: 0x0, symName: __ZN4core3num6bignum5tests6Big8x310mul_digits17hfecd6374b21d2b22E, symObjAddr: 0xD8CC, symBinAddr: 0x1005554BC, symSize: 0x370 }
  - { offset: 0x111F93, size: 0x8, addend: 0x0, symName: __ZN4core3num6bignum5tests6Big8x313div_rem_small17hdcfc6ba5844ecd55E, symObjAddr: 0xDC3C, symBinAddr: 0x10055582C, symSize: 0xC4 }
  - { offset: 0x112061, size: 0x8, addend: 0x0, symName: __ZN4core3num6bignum5tests6Big8x33add17hb51cb2b3dd396dc5E, symObjAddr: 0xDD00, symBinAddr: 0x1005558F0, symSize: 0xB4 }
  - { offset: 0x112154, size: 0x8, addend: 0x0, symName: __ZN4core3num6bignum5tests6Big8x33sub17hbe2436ff0b8f4903E, symObjAddr: 0xDDB4, symBinAddr: 0x1005559A4, symSize: 0xA8 }
  - { offset: 0x112247, size: 0x8, addend: 0x0, symName: __ZN4core3num6bignum5tests6Big8x36digits17h9d7fe39da2bc41d5E, symObjAddr: 0xDE5C, symBinAddr: 0x100555A4C, symSize: 0x2C }
  - { offset: 0x1122AA, size: 0x8, addend: 0x0, symName: __ZN4core3num6bignum5tests6Big8x37get_bit17h4cb4b434be43ddfeE, symObjAddr: 0xDE88, symBinAddr: 0x100555A78, symSize: 0x40 }
  - { offset: 0x1122C4, size: 0x8, addend: 0x0, symName: __ZN4core3num6bignum5tests6Big8x37is_zero17h3504eba22a1da992E, symObjAddr: 0xDEC8, symBinAddr: 0x100555AB8, symSize: 0x7C }
  - { offset: 0x112357, size: 0x8, addend: 0x0, symName: __ZN4core3num6bignum5tests6Big8x38from_u6417h143bbca3ee4f37f6E, symObjAddr: 0xDF44, symBinAddr: 0x100555B34, symSize: 0xB4 }
  - { offset: 0x112371, size: 0x8, addend: 0x0, symName: __ZN4core3num6bignum5tests6Big8x38mul_pow217hcacbed3f4408d67dE, symObjAddr: 0xDFF8, symBinAddr: 0x100555BE8, symSize: 0x26C }
  - { offset: 0x112438, size: 0x8, addend: 0x0, symName: __ZN4core3num6bignum5tests6Big8x38mul_pow517h58fab669c51015f4E, symObjAddr: 0xE264, symBinAddr: 0x100555E54, symSize: 0x1A8 }
  - { offset: 0x112585, size: 0x8, addend: 0x0, symName: __ZN4core3num6bignum5tests6Big8x39add_small17h6a843ad2892a8812E, symObjAddr: 0xE40C, symBinAddr: 0x100555FFC, symSize: 0x8C }
  - { offset: 0x1125E9, size: 0x8, addend: 0x0, symName: __ZN4core3num6bignum5tests6Big8x39mul_small17h178017fb0a75641bE, symObjAddr: 0xE498, symBinAddr: 0x100556088, symSize: 0xA8 }
  - { offset: 0x112699, size: 0x8, addend: 0x0, symName: '__ZN67_$LT$core..num..bignum..tests..Big8x3$u20$as$u20$core..cmp..Ord$GT$3cmp17h4057d4e98e020059E', symObjAddr: 0x1B694, symBinAddr: 0x100562458, symSize: 0xB4 }
  - { offset: 0x112863, size: 0x8, addend: 0x0, symName: '__ZN69_$LT$core..num..bignum..tests..Big8x3$u20$as$u20$core..fmt..Debug$GT$3fmt17h350ee3f156d9d269E', symObjAddr: 0x1C500, symBinAddr: 0x1005632C4, symSize: 0x13C }
  - { offset: 0x112923, size: 0x8, addend: 0x0, symName: '__ZN74_$LT$core..num..bignum..tests..Big8x3$u20$as$u20$core..cmp..PartialOrd$GT$11partial_cmp17h42567c667999b62bE', symObjAddr: 0x1D86C, symBinAddr: 0x100564630, symSize: 0xB4 }
  - { offset: 0x112B02, size: 0x8, addend: 0x0, symName: __ZN4core3num6bignum8Big32x4010bit_length17h890dbb615b0ace86E, symObjAddr: 0xE540, symBinAddr: 0x100556130, symSize: 0x80 }
  - { offset: 0x112C39, size: 0x8, addend: 0x0, symName: __ZN4core3num6bignum8Big32x4010mul_digits17h67f6e8dbae34aa8aE, symObjAddr: 0xE5C0, symBinAddr: 0x1005561B0, symSize: 0x2F0 }
  - { offset: 0x112F9B, size: 0x8, addend: 0x0, symName: __ZN4core3num6bignum8Big32x4013div_rem_small17hda2731d71e34d671E, symObjAddr: 0xE8B0, symBinAddr: 0x1005564A0, symSize: 0x8C }
  - { offset: 0x11308A, size: 0x8, addend: 0x0, symName: __ZN4core3num6bignum8Big32x403add17he41b058a4911520cE, symObjAddr: 0xE93C, symBinAddr: 0x10055652C, symSize: 0xA0 }
  - { offset: 0x11314A, size: 0x8, addend: 0x0, symName: __ZN4core3num6bignum8Big32x403sub17hb95ab334aa2eb9ebE, symObjAddr: 0xE9DC, symBinAddr: 0x1005565CC, symSize: 0x98 }
  - { offset: 0x11320A, size: 0x8, addend: 0x0, symName: __ZN4core3num6bignum8Big32x406digits17ha105785c3fbfe916E, symObjAddr: 0xEA74, symBinAddr: 0x100556664, symSize: 0x2C }
  - { offset: 0x11326D, size: 0x8, addend: 0x0, symName: __ZN4core3num6bignum8Big32x407get_bit17hbc6d63159778712aE, symObjAddr: 0xEAA0, symBinAddr: 0x100556690, symSize: 0x38 }
  - { offset: 0x113287, size: 0x8, addend: 0x0, symName: __ZN4core3num6bignum8Big32x407is_zero17h8e1dc4a1f5b0b6d1E, symObjAddr: 0xEAD8, symBinAddr: 0x1005566C8, symSize: 0x50 }
  - { offset: 0x113331, size: 0x8, addend: 0x0, symName: __ZN4core3num6bignum8Big32x408from_u6417h02e5fd709c5b9808E, symObjAddr: 0xEB28, symBinAddr: 0x100556718, symSize: 0x5C }
  - { offset: 0x113345, size: 0x8, addend: 0x0, symName: __ZN4core3num6bignum8Big32x408mul_pow217h2c25e40166782b80E, symObjAddr: 0xEB84, symBinAddr: 0x100556774, symSize: 0x274 }
  - { offset: 0x1133F5, size: 0x8, addend: 0x0, symName: __ZN4core3num6bignum8Big32x408mul_pow517hd60a6d1667c5d2d2E, symObjAddr: 0xEDF8, symBinAddr: 0x1005569E8, symSize: 0x1B4 }
  - { offset: 0x113592, size: 0x8, addend: 0x0, symName: __ZN4core3num6bignum8Big32x409add_small17h7cb3848091bf9e37E, symObjAddr: 0xEFAC, symBinAddr: 0x100556B9C, symSize: 0x3EC }
  - { offset: 0x1135F6, size: 0x8, addend: 0x0, symName: __ZN4core3num6bignum8Big32x409mul_small17hcc3752b3704da9c8E, symObjAddr: 0xF398, symBinAddr: 0x100556F88, symSize: 0x88 }
  - { offset: 0x113732, size: 0x8, addend: 0x0, symName: '__ZN50_$LT$u32$u20$as$u20$core..num..bignum..FullOps$GT$12full_div_rem17h02abd466db653666E', symObjAddr: 0x178F8, symBinAddr: 0x10055E6BC, symSize: 0x34 }
  - { offset: 0x11377E, size: 0x8, addend: 0x0, symName: '__ZN62_$LT$core..num..bignum..Big32x40$u20$as$u20$core..cmp..Ord$GT$3cmp17h1c96ae727d527c93E', symObjAddr: 0x1A1D8, symBinAddr: 0x100560F9C, symSize: 0x74 }
  - { offset: 0x113989, size: 0x8, addend: 0x0, symName: '__ZN69_$LT$core..num..bignum..Big32x40$u20$as$u20$core..cmp..PartialOrd$GT$11partial_cmp17h13db2049b2021da0E', symObjAddr: 0x1C48C, symBinAddr: 0x100563250, symSize: 0x74 }
  - { offset: 0x113B94, size: 0x8, addend: 0x0, symName: '__ZN50_$LT$u16$u20$as$u20$core..num..bignum..FullOps$GT$12full_div_rem17h0c2b9d3b1543ae26E', symObjAddr: 0x178C4, symBinAddr: 0x10055E688, symSize: 0x34 }
  - { offset: 0x113BB5, size: 0x8, addend: 0x0, symName: '__ZN50_$LT$u64$u20$as$u20$core..num..bignum..FullOps$GT$12full_div_rem17h2a0f6763aa514689E', symObjAddr: 0x1792C, symBinAddr: 0x10055E6F0, symSize: 0x44 }
  - { offset: 0x113BD6, size: 0x8, addend: 0x0, symName: '__ZN64_$LT$core..num..bignum..Big32x40$u20$as$u20$core..fmt..Debug$GT$3fmt17hdcace93f9ff995d5E', symObjAddr: 0x1A4E8, symBinAddr: 0x1005612AC, symSize: 0x14C }
  - { offset: 0x113CF2, size: 0x8, addend: 0x0, symName: __ZN4core3num9int_log1030panic_for_nonpositive_argument17h7c916c6fcc48696eE, symObjAddr: 0x13C70, symBinAddr: 0x10059BEB0, symSize: 0x34 }
  - { offset: 0x113DEC, size: 0x8, addend: 0x0, symName: '__ZN73_$LT$core..num..nonzero..NonZero$LT$T$GT$$u20$as$u20$core..fmt..Debug$GT$3fmt17hc41b09fcc8e635b3E', symObjAddr: 0x1D674, symBinAddr: 0x100564438, symSize: 0x28 }
  - { offset: 0x113E23, size: 0x8, addend: 0x0, symName: '__ZN84_$LT$core..num..nonzero..NonZero$LT$i8$GT$$u20$as$u20$core..str..traits..FromStr$GT$8from_str17h042982edb657f7abE', symObjAddr: 0x1E8EC, symBinAddr: 0x1005656B0, symSize: 0x1F0 }
  - { offset: 0x113F94, size: 0x8, addend: 0x0, symName: '__ZN84_$LT$core..num..nonzero..NonZero$LT$u8$GT$$u20$as$u20$core..str..traits..FromStr$GT$8from_str17hcab913a80512e6ccE', symObjAddr: 0x1EADC, symBinAddr: 0x1005658A0, symSize: 0x114 }
  - { offset: 0x114066, size: 0x8, addend: 0x0, symName: '__ZN85_$LT$core..num..nonzero..NonZero$LT$i16$GT$$u20$as$u20$core..str..traits..FromStr$GT$8from_str17h0d72ae091e487ba1E', symObjAddr: 0x1EC34, symBinAddr: 0x1005659F8, symSize: 0x214 }
  - { offset: 0x1141DA, size: 0x8, addend: 0x0, symName: '__ZN85_$LT$core..num..nonzero..NonZero$LT$i32$GT$$u20$as$u20$core..str..traits..FromStr$GT$8from_str17hc6d5a93315cc41d2E', symObjAddr: 0x1EE48, symBinAddr: 0x100565C0C, symSize: 0x1F0 }
  - { offset: 0x11433F, size: 0x8, addend: 0x0, symName: '__ZN85_$LT$core..num..nonzero..NonZero$LT$i64$GT$$u20$as$u20$core..str..traits..FromStr$GT$8from_str17h9bb93a6651769de7E', symObjAddr: 0x1F038, symBinAddr: 0x100565DFC, symSize: 0x1C8 }
  - { offset: 0x1144AA, size: 0x8, addend: 0x0, symName: '__ZN85_$LT$core..num..nonzero..NonZero$LT$u16$GT$$u20$as$u20$core..str..traits..FromStr$GT$8from_str17h6aed8ea99d07557bE', symObjAddr: 0x1F200, symBinAddr: 0x100565FC4, symSize: 0x13C }
  - { offset: 0x11457C, size: 0x8, addend: 0x0, symName: '__ZN85_$LT$core..num..nonzero..NonZero$LT$u32$GT$$u20$as$u20$core..str..traits..FromStr$GT$8from_str17h4930289bfd98b389E', symObjAddr: 0x1F33C, symBinAddr: 0x100566100, symSize: 0x150 }
  - { offset: 0x11466D, size: 0x8, addend: 0x0, symName: '__ZN85_$LT$core..num..nonzero..NonZero$LT$u64$GT$$u20$as$u20$core..str..traits..FromStr$GT$8from_str17he74a6e6237092461E', symObjAddr: 0x1F48C, symBinAddr: 0x100566250, symSize: 0x120 }
  - { offset: 0x114722, size: 0x8, addend: 0x0, symName: '__ZN86_$LT$core..num..nonzero..NonZero$LT$i128$GT$$u20$as$u20$core..str..traits..FromStr$GT$8from_str17h457b0e23ff7a7c28E', symObjAddr: 0x1F780, symBinAddr: 0x100566544, symSize: 0x248 }
  - { offset: 0x11488D, size: 0x8, addend: 0x0, symName: '__ZN86_$LT$core..num..nonzero..NonZero$LT$u128$GT$$u20$as$u20$core..str..traits..FromStr$GT$8from_str17h6e5efc711fd23060E', symObjAddr: 0x1F9C8, symBinAddr: 0x10056678C, symSize: 0x154 }
  - { offset: 0x1149C3, size: 0x8, addend: 0x0, symName: '__ZN59_$LT$f32$u20$as$u20$core..num..dec2flt..float..RawFloat$GT$15pow10_fast_path17hd2497efcb5175106E', symObjAddr: 0x19D04, symBinAddr: 0x100560AC8, symSize: 0x14 }
  - { offset: 0x114A16, size: 0x8, addend: 0x0, symName: '__ZN59_$LT$f64$u20$as$u20$core..num..dec2flt..float..RawFloat$GT$15pow10_fast_path17hbf2b7cfd3605709cE', symObjAddr: 0x19D18, symBinAddr: 0x100560ADC, symSize: 0x14 }
  - { offset: 0x114A9D, size: 0x8, addend: 0x0, symName: __ZN4core3num7dec2flt11decimal_seq10DecimalSeq10left_shift17h3de49e607837d80aE, symObjAddr: 0xF420, symBinAddr: 0x100557010, symSize: 0x214 }
  - { offset: 0x114B47, size: 0x8, addend: 0x0, symName: __ZN4core3num7dec2flt11decimal_seq10DecimalSeq11right_shift17hf034f3958c6743f0E, symObjAddr: 0xF634, symBinAddr: 0x100557224, symSize: 0x1BC }
  - { offset: 0x114B6F, size: 0x8, addend: 0x0, symName: __ZN4core3num7dec2flt11decimal_seq10DecimalSeq4trim17hc60e5eb2029bcd29E, symObjAddr: 0xF7F0, symBinAddr: 0x1005573E0, symSize: 0x50 }
  - { offset: 0x114B83, size: 0x8, addend: 0x0, symName: __ZN4core3num7dec2flt11decimal_seq10DecimalSeq5round17h4e69160c7e927c28E, symObjAddr: 0xF840, symBinAddr: 0x100557430, symSize: 0xB4 }
  - { offset: 0x114C23, size: 0x8, addend: 0x0, symName: __ZN4core3num7dec2flt11decimal_seq17parse_decimal_seq17hbef94dd5f51dba05E, symObjAddr: 0xF8F4, symBinAddr: 0x1005574E4, symSize: 0x3CC }
  - { offset: 0x115019, size: 0x8, addend: 0x0, symName: __ZN4core3num7dec2flt5parse12parse_number17h0cdb0b4521f015f2E, symObjAddr: 0xFCC0, symBinAddr: 0x1005578B0, symSize: 0x438 }
  - { offset: 0x115627, size: 0x8, addend: 0x0, symName: '__ZN4core3num7dec2flt60_$LT$impl$u20$core..str..traits..FromStr$u20$for$u20$f16$GT$8from_str17hc79eff1ea61ac85eE', symObjAddr: 0x100F8, symBinAddr: 0x100557CE8, symSize: 0x47C }
  - { offset: 0x115652, size: 0x8, addend: 0x0, symName: '__ZN4core3num7dec2flt60_$LT$impl$u20$core..str..traits..FromStr$u20$for$u20$f16$GT$8from_str17hc79eff1ea61ac85eE', symObjAddr: 0x100F8, symBinAddr: 0x100557CE8, symSize: 0x47C }
  - { offset: 0x1158EA, size: 0x8, addend: 0x0, symName: '__ZN4core3num7dec2flt60_$LT$impl$u20$core..str..traits..FromStr$u20$for$u20$f32$GT$8from_str17h917ba9cff099e3bcE', symObjAddr: 0x10574, symBinAddr: 0x100558164, symSize: 0x49C }
  - { offset: 0x115915, size: 0x8, addend: 0x0, symName: '__ZN4core3num7dec2flt60_$LT$impl$u20$core..str..traits..FromStr$u20$for$u20$f32$GT$8from_str17h917ba9cff099e3bcE', symObjAddr: 0x10574, symBinAddr: 0x100558164, symSize: 0x49C }
  - { offset: 0x115BB6, size: 0x8, addend: 0x0, symName: '__ZN4core3num7dec2flt60_$LT$impl$u20$core..str..traits..FromStr$u20$for$u20$f64$GT$8from_str17hafe621d3833c96eaE', symObjAddr: 0x10A10, symBinAddr: 0x100558600, symSize: 0x484 }
  - { offset: 0x115E61, size: 0x8, addend: 0x0, symName: __ZN4core3num7dec2flt6lemire13compute_float17h37043806d57f062dE, symObjAddr: 0x10E94, symBinAddr: 0x100558A84, symSize: 0x12C }
  - { offset: 0x115F1E, size: 0x8, addend: 0x0, symName: __ZN4core3num7dec2flt6lemire13compute_float17h7775f5a0f2dc708eE, symObjAddr: 0x10FC0, symBinAddr: 0x100558BB0, symSize: 0x14C }
  - { offset: 0x115FDB, size: 0x8, addend: 0x0, symName: __ZN4core3num7dec2flt6lemire13compute_float17h79ca2c061a9792b5E, symObjAddr: 0x1110C, symBinAddr: 0x100558CFC, symSize: 0x150 }
  - { offset: 0x11608B, size: 0x8, addend: 0x0, symName: __ZN4core3num7dec2flt6lemire22compute_product_approx17h9e67543fcac78ed2E, symObjAddr: 0x1125C, symBinAddr: 0x100558E4C, symSize: 0x6C }
  - { offset: 0x1160E6, size: 0x8, addend: 0x0, symName: '__ZN74_$LT$core..num..dec2flt..ParseFloatError$u20$as$u20$core..fmt..Display$GT$3fmt17h4340c3b1b64219c9E', symObjAddr: 0x1D920, symBinAddr: 0x1005646E4, symSize: 0x38 }
  - { offset: 0x1161B3, size: 0x8, addend: 0x0, symName: __ZN4core3num7flt2dec8strategy5grisu12cached_power17h4345f24c4ac971b7E, symObjAddr: 0x11624, symBinAddr: 0x100559214, symSize: 0x74 }
  - { offset: 0x1161C7, size: 0x8, addend: 0x0, symName: __ZN4core3num7flt2dec8strategy5grisu12format_exact17hee8e425cc6c877c9E, symObjAddr: 0x11698, symBinAddr: 0x100559288, symSize: 0x90 }
  - { offset: 0x1161DB, size: 0x8, addend: 0x0, symName: __ZN4core3num7flt2dec8strategy5grisu15format_shortest17hc973c692de1948a7E, symObjAddr: 0x11728, symBinAddr: 0x100559318, symSize: 0x7C }
  - { offset: 0x1161F5, size: 0x8, addend: 0x0, symName: __ZN4core3num7flt2dec8strategy5grisu16format_exact_opt14possibly_round17hb6b166221dd652edE, symObjAddr: 0x117A4, symBinAddr: 0x100559394, symSize: 0x204 }
  - { offset: 0x1163CD, size: 0x8, addend: 0x0, symName: __ZN4core3num7flt2dec8strategy5grisu16format_exact_opt17hfeae5dfa1e4112a1E, symObjAddr: 0x119A8, symBinAddr: 0x100559598, symSize: 0x368 }
  - { offset: 0x116480, size: 0x8, addend: 0x0, symName: __ZN4core3num7flt2dec8strategy5grisu19format_shortest_opt17hd2176588811e89a7E, symObjAddr: 0x11D10, symBinAddr: 0x100559900, symSize: 0x5E0 }
  - { offset: 0x116639, size: 0x8, addend: 0x0, symName: __ZN4core3num7flt2dec8strategy6dragon12format_exact17h420d1b19b197ee3bE, symObjAddr: 0x122F0, symBinAddr: 0x100559EE0, symSize: 0xAB0 }
  - { offset: 0x117CA1, size: 0x8, addend: 0x0, symName: __ZN4core3num7flt2dec8strategy6dragon15format_shortest17ha75e20ffb3e62208E, symObjAddr: 0x12DA0, symBinAddr: 0x10055A990, symSize: 0xC3C }
  - { offset: 0x1195A1, size: 0x8, addend: 0x0, symName: __ZN4core3num7flt2dec8strategy6dragon9mul_pow1017h3a761cb4e09599d8E, symObjAddr: 0x139DC, symBinAddr: 0x10055B5CC, symSize: 0x1E0 }
  - { offset: 0x119A0D, size: 0x8, addend: 0x0, symName: __ZN4core3num7flt2dec17digits_to_dec_str17h07cef77e4c6b5334E, symObjAddr: 0x112C8, symBinAddr: 0x100558EB8, symSize: 0x148 }
  - { offset: 0x119A6B, size: 0x8, addend: 0x0, symName: __ZN4core3num7flt2dec17digits_to_exp_str17h9b5f7e3e822211c7E, symObjAddr: 0x11410, symBinAddr: 0x100559000, symSize: 0x168 }
  - { offset: 0x119AC4, size: 0x8, addend: 0x0, symName: __ZN4core3num7flt2dec8round_up17h578fe23bddbf3179E, symObjAddr: 0x11578, symBinAddr: 0x100559168, symSize: 0xAC }
  - { offset: 0x119C2A, size: 0x8, addend: 0x0, symName: __ZN4core3num3fmt9Formatted3len17h21a3b54abe74428aE, symObjAddr: 0xD6A0, symBinAddr: 0x100555290, symSize: 0xAC }
  - { offset: 0x119D07, size: 0x8, addend: 0x0, symName: __ZN4core3num3fmt9Formatted5write17h8af9fe891c0cbcb2E, symObjAddr: 0xD74C, symBinAddr: 0x10055533C, symSize: 0xC0 }
  - { offset: 0x119E27, size: 0x8, addend: 0x0, symName: __ZN4core3num3fmt4Part5write17haf395f51cfc2cad8E, symObjAddr: 0xD538, symBinAddr: 0x100555128, symSize: 0x168 }
  - { offset: 0x119FE9, size: 0x8, addend: 0x0, symName: __ZN4core3num14overflow_panic3add17h958efbd57329b991E, symObjAddr: 0xD348, symBinAddr: 0x10059BC8C, symSize: 0x34 }
  - { offset: 0x11A019, size: 0x8, addend: 0x0, symName: __ZN4core3num14overflow_panic3div17hf9b07ac9daa0d6f4E, symObjAddr: 0xD37C, symBinAddr: 0x10059BCC0, symSize: 0x34 }
  - { offset: 0x11A049, size: 0x8, addend: 0x0, symName: __ZN4core3num14overflow_panic3mul17h2a38a5d39d451dc9E, symObjAddr: 0xD3B0, symBinAddr: 0x10059BCF4, symSize: 0x34 }
  - { offset: 0x11A079, size: 0x8, addend: 0x0, symName: __ZN4core3num14overflow_panic3neg17hd3c84349a3a31307E, symObjAddr: 0xD3E4, symBinAddr: 0x10059BD28, symSize: 0x34 }
  - { offset: 0x11A0A9, size: 0x8, addend: 0x0, symName: __ZN4core3num14overflow_panic3rem17h6988e276f0bfbc26E, symObjAddr: 0xD418, symBinAddr: 0x10059BD5C, symSize: 0x34 }
  - { offset: 0x11A0D9, size: 0x8, addend: 0x0, symName: __ZN4core3num14overflow_panic3shl17h2d34a392a013c17cE, symObjAddr: 0xD44C, symBinAddr: 0x10059BD90, symSize: 0x34 }
  - { offset: 0x11A109, size: 0x8, addend: 0x0, symName: __ZN4core3num14overflow_panic3shr17h17a53656f90002b9E, symObjAddr: 0xD480, symBinAddr: 0x10059BDC4, symSize: 0x34 }
  - { offset: 0x11A139, size: 0x8, addend: 0x0, symName: __ZN4core3num14overflow_panic3sub17h28a8d0968bd6a1cfE, symObjAddr: 0xD4B4, symBinAddr: 0x10059BDF8, symSize: 0x34 }
  - { offset: 0x11A183, size: 0x8, addend: 0x0, symName: __ZN4core3num22from_ascii_radix_panic8do_panic7runtime17h4fa1118b9bd11987E, symObjAddr: 0xD4F4, symBinAddr: 0x10059BE38, symSize: 0x44 }
  - { offset: 0x11A1B7, size: 0x8, addend: 0x0, symName: __ZN4core3num22from_ascii_radix_panic17h8776c8e83075c7faE, symObjAddr: 0xD4E8, symBinAddr: 0x10059BE2C, symSize: 0xC }
  - { offset: 0x11A235, size: 0x8, addend: 0x0, symName: __ZN4core3num9diy_float2Fp12normalize_to17h6c8b792962e62c7dE, symObjAddr: 0x13BF0, symBinAddr: 0x10055B7AC, symSize: 0x80 }
  - { offset: 0x11A251, size: 0x8, addend: 0x0, symName: __ZN4core3num8int_sqrt27panic_for_negative_argument17hdd7158afae348f37E, symObjAddr: 0x13BBC, symBinAddr: 0x10059BE7C, symSize: 0x34 }
  - { offset: 0x11A2B3, size: 0x8, addend: 0x0, symName: '__ZN70_$LT$core..num..error..ParseIntError$u20$as$u20$core..fmt..Display$GT$3fmt17h5ead7e0c08bc1fcfE', symObjAddr: 0x1CE40, symBinAddr: 0x100563C04, symSize: 0x28 }
  - { offset: 0x11A2EA, size: 0x8, addend: 0x0, symName: '__ZN72_$LT$core..num..error..TryFromIntError$u20$as$u20$core..fmt..Display$GT$3fmt17h763405ddb052613bE', symObjAddr: 0x1D428, symBinAddr: 0x1005641EC, symSize: 0x14 }
  - { offset: 0x11A328, size: 0x8, addend: 0x0, symName: '__ZN72_$LT$core..num..niche_types..Nanoseconds$u20$as$u20$core..fmt..Debug$GT$3fmt17h97c185b26e54a58eE', symObjAddr: 0x1D43C, symBinAddr: 0x100564200, symSize: 0x1C8 }
  - { offset: 0x11A4C5, size: 0x8, addend: 0x0, symName: '__ZN74_$LT$core..num..niche_types..I32NotAllOnes$u20$as$u20$core..fmt..Debug$GT$3fmt17h6ca1163b2820146dE', symObjAddr: 0x1D958, symBinAddr: 0x10056471C, symSize: 0xC8 }
  - { offset: 0x11A5BD, size: 0x8, addend: 0x0, symName: '__ZN74_$LT$core..num..niche_types..I64NotAllOnes$u20$as$u20$core..fmt..Debug$GT$3fmt17h6df343106c8ef295E', symObjAddr: 0x1DA20, symBinAddr: 0x1005647E4, symSize: 0xC4 }
  - { offset: 0x11A6A1, size: 0x8, addend: 0x0, symName: '__ZN74_$LT$core..num..niche_types..U32NotAllOnes$u20$as$u20$core..fmt..Debug$GT$3fmt17he9c1d85012d83424E', symObjAddr: 0x1DAE4, symBinAddr: 0x1005648A8, symSize: 0x1C8 }
  - { offset: 0x11A82A, size: 0x8, addend: 0x0, symName: '__ZN74_$LT$core..num..niche_types..U64NotAllOnes$u20$as$u20$core..fmt..Debug$GT$3fmt17h60071987ccb8b6c8E', symObjAddr: 0x1DCAC, symBinAddr: 0x100564A70, symSize: 0x8 }
  - { offset: 0x11A84B, size: 0x8, addend: 0x0, symName: '__ZN75_$LT$core..num..niche_types..CodePointInner$u20$as$u20$core..fmt..Debug$GT$3fmt17h079e576ab4c61537E', symObjAddr: 0x1E08C, symBinAddr: 0x100564E50, symSize: 0x1A0 }
  - { offset: 0x11A9DC, size: 0x8, addend: 0x0, symName: '__ZN75_$LT$core..num..niche_types..NonZeroI8Inner$u20$as$u20$core..fmt..Debug$GT$3fmt17h266314a3c70ccef3E', symObjAddr: 0x1E22C, symBinAddr: 0x100564FF0, symSize: 0x8 }
  - { offset: 0x11A9FD, size: 0x8, addend: 0x0, symName: '__ZN75_$LT$core..num..niche_types..NonZeroU8Inner$u20$as$u20$core..fmt..Debug$GT$3fmt17h787e1f87879c062eE', symObjAddr: 0x1E234, symBinAddr: 0x100564FF8, symSize: 0x8 }
  - { offset: 0x11AA32, size: 0x8, addend: 0x0, symName: '__ZN75_$LT$core..num..niche_types..UsizeNoHighBit$u20$as$u20$core..fmt..Debug$GT$3fmt17h0dd6ccc6a3700971E', symObjAddr: 0x1E23C, symBinAddr: 0x100565000, symSize: 0x28 }
  - { offset: 0x11AA69, size: 0x8, addend: 0x0, symName: '__ZN76_$LT$core..num..niche_types..NonZeroI16Inner$u20$as$u20$core..fmt..Debug$GT$3fmt17h4617939d4146ad56E', symObjAddr: 0x1E2D0, symBinAddr: 0x100565094, symSize: 0x8 }
  - { offset: 0x11AA9E, size: 0x8, addend: 0x0, symName: '__ZN76_$LT$core..num..niche_types..NonZeroI32Inner$u20$as$u20$core..fmt..Debug$GT$3fmt17hfff7914260890f9eE', symObjAddr: 0x1E2D8, symBinAddr: 0x10056509C, symSize: 0xC8 }
  - { offset: 0x11AB96, size: 0x8, addend: 0x0, symName: '__ZN76_$LT$core..num..niche_types..NonZeroI64Inner$u20$as$u20$core..fmt..Debug$GT$3fmt17h607e5bc725281dfeE', symObjAddr: 0x1E3A0, symBinAddr: 0x100565164, symSize: 0xC4 }
  - { offset: 0x11AC7A, size: 0x8, addend: 0x0, symName: '__ZN76_$LT$core..num..niche_types..NonZeroU16Inner$u20$as$u20$core..fmt..Debug$GT$3fmt17hf51bfcd02aa22b81E', symObjAddr: 0x1E464, symBinAddr: 0x100565228, symSize: 0x8 }
  - { offset: 0x11AC9B, size: 0x8, addend: 0x0, symName: '__ZN76_$LT$core..num..niche_types..NonZeroU32Inner$u20$as$u20$core..fmt..Debug$GT$3fmt17h6f1e2516d9804f12E', symObjAddr: 0x1E46C, symBinAddr: 0x100565230, symSize: 0x1C0 }
  - { offset: 0x11AE24, size: 0x8, addend: 0x0, symName: '__ZN76_$LT$core..num..niche_types..NonZeroU64Inner$u20$as$u20$core..fmt..Debug$GT$3fmt17h9c44cd54c28160c2E', symObjAddr: 0x1E62C, symBinAddr: 0x1005653F0, symSize: 0x8 }
  - { offset: 0x11AE45, size: 0x8, addend: 0x0, symName: '__ZN77_$LT$core..num..niche_types..NonZeroCharInner$u20$as$u20$core..fmt..Debug$GT$3fmt17h06091077c8f9ce56E', symObjAddr: 0x1E680, symBinAddr: 0x100565444, symSize: 0xB0 }
  - { offset: 0x11AF64, size: 0x8, addend: 0x0, symName: '__ZN77_$LT$core..num..niche_types..NonZeroI128Inner$u20$as$u20$core..fmt..Debug$GT$3fmt17hc47cad6155ddea5fE', symObjAddr: 0x1E730, symBinAddr: 0x1005654F4, symSize: 0xC }
  - { offset: 0x11AF85, size: 0x8, addend: 0x0, symName: '__ZN77_$LT$core..num..niche_types..NonZeroU128Inner$u20$as$u20$core..fmt..Debug$GT$3fmt17h4ac7a4eacff031bfE', symObjAddr: 0x1E73C, symBinAddr: 0x100565500, symSize: 0xC }
  - { offset: 0x11AFBA, size: 0x8, addend: 0x0, symName: '__ZN78_$LT$core..num..niche_types..NonZeroUsizeInner$u20$as$u20$core..fmt..Debug$GT$3fmt17h3d1f62db6c6cfd34E', symObjAddr: 0x1E80C, symBinAddr: 0x1005655D0, symSize: 0x28 }
  - { offset: 0x11B4A1, size: 0x8, addend: 0x0, symName: '__ZN68_$LT$core..ptr..alignment..Alignment$u20$as$u20$core..fmt..Debug$GT$3fmt17he543fcb317e2a15fE', symObjAddr: 0x1C36C, symBinAddr: 0x100563130, symSize: 0x78 }
  - { offset: 0x11B79F, size: 0x8, addend: 0x0, symName: __ZN4core3mem11conjure_zst8do_panic7runtime17h7fd3c1bc363b945aE, symObjAddr: 0xC058, symBinAddr: 0x10059BC40, symSize: 0x4C }
  - { offset: 0x11B7F4, size: 0x8, addend: 0x0, symName: '__ZN76_$LT$core..mem..transmutability..Assume$u20$as$u20$core..ops..arith..Sub$GT$3sub17hca7dd1552a5c1c7fE', symObjAddr: 0x1E278, symBinAddr: 0x10056503C, symSize: 0xC }
  - { offset: 0x11B813, size: 0x8, addend: 0x0, symName: '__ZN76_$LT$core..mem..transmutability..Assume$u20$as$u20$core..ops..arith..Sub$GT$3sub17hca7dd1552a5c1c7fE', symObjAddr: 0x1E278, symBinAddr: 0x10056503C, symSize: 0xC }
  - { offset: 0x11BBB6, size: 0x8, addend: 0x0, symName: __ZN4core6option13expect_failed17h0ccd2b94a57b79d0E, symObjAddr: 0x16244, symBinAddr: 0x10059C36C, symSize: 0x48 }
  - { offset: 0x11BC00, size: 0x8, addend: 0x0, symName: __ZN4core6option13unwrap_failed17h2bbb35b31c2cb6f3E, symObjAddr: 0x1628C, symBinAddr: 0x10059C3B4, symSize: 0x1C }
  - { offset: 0x11C112, size: 0x8, addend: 0x0, symName: __ZN4core5ascii14escape_default17hae208fa8f7578da1E, symObjAddr: 0x15CFC, symBinAddr: 0x10055D5D4, symSize: 0x74 }
  - { offset: 0x11C181, size: 0x8, addend: 0x0, symName: '__ZN63_$LT$core..ascii..EscapeDefault$u20$as$u20$core..fmt..Debug$GT$3fmt17hfeab613ba73b05b9E', symObjAddr: 0x1A310, symBinAddr: 0x1005610D4, symSize: 0x6C }
  - { offset: 0x11C22D, size: 0x8, addend: 0x0, symName: '__ZN65_$LT$core..ascii..EscapeDefault$u20$as$u20$core..fmt..Display$GT$3fmt17h6c108e24f8b66be3E', symObjAddr: 0x1A64C, symBinAddr: 0x100561410, symSize: 0x20 }
  - { offset: 0x11C2E8, size: 0x8, addend: 0x0, symName: '__ZN71_$LT$core..ascii..ascii_char..AsciiChar$u20$as$u20$core..fmt..Debug$GT$3fmt17h2f8448fd625b3604E', symObjAddr: 0x1D0BC, symBinAddr: 0x100563E80, symSize: 0x160 }
  - { offset: 0x11C337, size: 0x8, addend: 0x0, symName: '__ZN73_$LT$core..ascii..ascii_char..AsciiChar$u20$as$u20$core..fmt..Display$GT$3fmt17h2954c2de00adc92bE', symObjAddr: 0x1D63C, symBinAddr: 0x100564400, symSize: 0x14 }
  - { offset: 0x11C6D1, size: 0x8, addend: 0x0, symName: '__ZN105_$LT$core..slice..ascii..EscapeAscii$u20$as$u20$core..iter..traits..double_ended..DoubleEndedIterator$GT$9next_back17hd0c3615d67246b34E', symObjAddr: 0x4C, symBinAddr: 0x100547F18, symSize: 0x120 }
  - { offset: 0x11C98D, size: 0x8, addend: 0x0, symName: '__ZN68_$LT$core..slice..ascii..EscapeAscii$u20$as$u20$core..fmt..Debug$GT$3fmt17h11b2948bd38abc93E', symObjAddr: 0x1C3E4, symBinAddr: 0x1005631A8, symSize: 0x6C }
  - { offset: 0x11CA72, size: 0x8, addend: 0x0, symName: '__ZN70_$LT$core..slice..ascii..EscapeAscii$u20$as$u20$core..fmt..Display$GT$3fmt17h882662572c98378eE', symObjAddr: 0x1CE68, symBinAddr: 0x100563C2C, symSize: 0x23C }
  - { offset: 0x11D1F3, size: 0x8, addend: 0x0, symName: '__ZN4core5slice29_$LT$impl$u20$$u5b$T$u5d$$GT$15copy_from_slice17len_mismatch_fail8do_panic7runtime17h02afd8a3a33616a5E', symObjAddr: 0x15D88, symBinAddr: 0x10059C1AC, symSize: 0x54 }
  - { offset: 0x11D227, size: 0x8, addend: 0x0, symName: '__ZN4core5slice29_$LT$impl$u20$$u5b$T$u5d$$GT$15copy_from_slice17len_mismatch_fail17h4b4b495d36eedb23E', symObjAddr: 0x15D70, symBinAddr: 0x10059C194, symSize: 0x18 }
  - { offset: 0x11D25F, size: 0x8, addend: 0x0, symName: '__ZN4core5slice29_$LT$impl$u20$$u5b$T$u5d$$GT$16align_to_offsets3gcd17h3cf6c45e7f760f70E', symObjAddr: 0x15DDC, symBinAddr: 0x10055D648, symSize: 0x24 }
  - { offset: 0x11DFAC, size: 0x8, addend: 0x0, symName: __ZN4core5slice5index16into_slice_range17h0a965afa2aa05b32E, symObjAddr: 0x15E64, symBinAddr: 0x10055D698, symSize: 0xB0 }
  - { offset: 0x11DFED, size: 0x8, addend: 0x0, symName: __ZN4core5slice5index16slice_index_fail8do_panic7runtime17h2465cf9dde14bb9eE, symObjAddr: 0x15F58, symBinAddr: 0x10059C27C, symSize: 0x50 }
  - { offset: 0x11E01F, size: 0x8, addend: 0x0, symName: __ZN4core5slice5index16slice_index_fail8do_panic7runtime17h7c85dbf6702bad0fE, symObjAddr: 0x15FA8, symBinAddr: 0x10059C2CC, symSize: 0x50 }
  - { offset: 0x11E051, size: 0x8, addend: 0x0, symName: __ZN4core5slice5index16slice_index_fail8do_panic7runtime17hc2f4cb0f83a9f516E, symObjAddr: 0x15FF8, symBinAddr: 0x10059C31C, symSize: 0x50 }
  - { offset: 0x11E085, size: 0x8, addend: 0x0, symName: __ZN4core5slice5index16slice_index_fail17hefbaa1bb9611e99cE, symObjAddr: 0x15F14, symBinAddr: 0x10059C238, symSize: 0x44 }
  - { offset: 0x11E1BF, size: 0x8, addend: 0x0, symName: __ZN4core5slice6memchr14memchr_aligned17h2090105558adc3b5E, symObjAddr: 0x16048, symBinAddr: 0x10055D748, symSize: 0xDC }
  - { offset: 0x11E1D7, size: 0x8, addend: 0x0, symName: __ZN4core5slice6memchr14memchr_aligned17h2090105558adc3b5E, symObjAddr: 0x16048, symBinAddr: 0x10055D748, symSize: 0xDC }
  - { offset: 0x11E1ED, size: 0x8, addend: 0x0, symName: __ZN4core5slice6memchr14memchr_aligned17h2090105558adc3b5E, symObjAddr: 0x16048, symBinAddr: 0x10055D748, symSize: 0xDC }
  - { offset: 0x11E202, size: 0x8, addend: 0x0, symName: __ZN4core5slice6memchr14memchr_aligned17h2090105558adc3b5E, symObjAddr: 0x16048, symBinAddr: 0x10055D748, symSize: 0xDC }
  - { offset: 0x11E218, size: 0x8, addend: 0x0, symName: __ZN4core5slice6memchr14memchr_aligned17h2090105558adc3b5E, symObjAddr: 0x16048, symBinAddr: 0x10055D748, symSize: 0xDC }
  - { offset: 0x11E2CE, size: 0x8, addend: 0x0, symName: __ZN4core5slice6memchr7memrchr17h507833fefca73613E, symObjAddr: 0x16124, symBinAddr: 0x10055D824, symSize: 0x120 }
  - { offset: 0x11E55F, size: 0x8, addend: 0x0, symName: __ZN4core5slice4sort6shared9smallsort22panic_on_ord_violation17h4776d59d4c698189E, symObjAddr: 0x15E00, symBinAddr: 0x10059C200, symSize: 0x38 }
  - { offset: 0x11E59F, size: 0x8, addend: 0x0, symName: __ZN4core5slice4sort6stable5drift11sqrt_approx17h1992f821a29ab3b9E, symObjAddr: 0x15E38, symBinAddr: 0x10055D66C, symSize: 0x2C }
  - { offset: 0x11E632, size: 0x8, addend: 0x0, symName: '__ZN71_$LT$core..slice..GetDisjointMutError$u20$as$u20$core..fmt..Display$GT$3fmt17h0113e851935873cdE', symObjAddr: 0x1D2AC, symBinAddr: 0x100564070, symSize: 0x38 }
  - { offset: 0x11E921, size: 0x8, addend: 0x0, symName: __ZN4core3fmt9Formatter10debug_list17h7eaf5ba5089f4458E, symObjAddr: 0x9D4C, symBinAddr: 0x100551B78, symSize: 0x48 }
  - { offset: 0x11E963, size: 0x8, addend: 0x0, symName: __ZN4core3fmt9Formatter11debug_tuple17hf6860858a928f689E, symObjAddr: 0x9D94, symBinAddr: 0x100551BC0, symSize: 0x50 }
  - { offset: 0x11E9B3, size: 0x8, addend: 0x0, symName: __ZN4core3fmt9Formatter12debug_struct17h44e0bbfbf058f524E, symObjAddr: 0x9DE4, symBinAddr: 0x100551C10, symSize: 0x3C }
  - { offset: 0x11EA1E, size: 0x8, addend: 0x0, symName: __ZN4core3fmt9Formatter12pad_integral17hb30c41365f2ae320E, symObjAddr: 0x9E9C, symBinAddr: 0x100551CC8, symSize: 0x3B4 }
  - { offset: 0x11ED56, size: 0x8, addend: 0x0, symName: __ZN4core3fmt9Formatter19pad_formatted_parts17h2cd7a02bf0fc63fcE, symObjAddr: 0xA250, symBinAddr: 0x10055207C, symSize: 0x238 }
  - { offset: 0x11F012, size: 0x8, addend: 0x0, symName: __ZN4core3fmt9Formatter21write_formatted_parts17h22738579b4594a85E, symObjAddr: 0xA488, symBinAddr: 0x1005522B4, symSize: 0x210 }
  - { offset: 0x11F147, size: 0x8, addend: 0x0, symName: __ZN4core3fmt9Formatter25debug_tuple_field1_finish17h9c5ede4ec5a57fbfE, symObjAddr: 0xA698, symBinAddr: 0x1005524C4, symSize: 0x160 }
  - { offset: 0x11F355, size: 0x8, addend: 0x0, symName: __ZN4core3fmt9Formatter25debug_tuple_field2_finish17h3a3e56296721aa98E, symObjAddr: 0xA7F8, symBinAddr: 0x100552624, symSize: 0x1D8 }
  - { offset: 0x11F669, size: 0x8, addend: 0x0, symName: __ZN4core3fmt9Formatter25debug_tuple_field3_finish17h584c19e872c58f02E, symObjAddr: 0xA9D0, symBinAddr: 0x1005527FC, symSize: 0x284 }
  - { offset: 0x11FAA8, size: 0x8, addend: 0x0, symName: __ZN4core3fmt9Formatter25debug_tuple_field4_finish17hd0182ce63709fb74E, symObjAddr: 0xAC54, symBinAddr: 0x100552A80, symSize: 0x324 }
  - { offset: 0x120012, size: 0x8, addend: 0x0, symName: __ZN4core3fmt9Formatter25debug_tuple_field5_finish17h40e41b368f0deeb7E, symObjAddr: 0xAF78, symBinAddr: 0x100552DA4, symSize: 0x3C4 }
  - { offset: 0x1206A7, size: 0x8, addend: 0x0, symName: __ZN4core3fmt9Formatter25debug_tuple_fields_finish17h2cc1804bad82d537E, symObjAddr: 0xB33C, symBinAddr: 0x100553168, symSize: 0x274 }
  - { offset: 0x1208A4, size: 0x8, addend: 0x0, symName: __ZN4core3fmt9Formatter26debug_struct_field1_finish17hc7a3bc8aac89cc3bE, symObjAddr: 0xB5B0, symBinAddr: 0x1005533DC, symSize: 0xD0 }
  - { offset: 0x120983, size: 0x8, addend: 0x0, symName: __ZN4core3fmt9Formatter26debug_struct_field2_finish17h844ed70214b90ab7E, symObjAddr: 0xB680, symBinAddr: 0x1005534AC, symSize: 0x104 }
  - { offset: 0x120A62, size: 0x8, addend: 0x0, symName: __ZN4core3fmt9Formatter26debug_struct_field3_finish17h8d3e0a1e7a7c2d97E, symObjAddr: 0xB784, symBinAddr: 0x1005535B0, symSize: 0x12C }
  - { offset: 0x120B41, size: 0x8, addend: 0x0, symName: __ZN4core3fmt9Formatter26debug_struct_field4_finish17hfc4f87e21bd6391fE, symObjAddr: 0xB8B0, symBinAddr: 0x1005536DC, symSize: 0x15C }
  - { offset: 0x120C20, size: 0x8, addend: 0x0, symName: __ZN4core3fmt9Formatter26debug_struct_field5_finish17hed4f7d19b323d993E, symObjAddr: 0xBA0C, symBinAddr: 0x100553838, symSize: 0x180 }
  - { offset: 0x120CFF, size: 0x8, addend: 0x0, symName: __ZN4core3fmt9Formatter26debug_struct_fields_finish17hff5e1c7dbe692884E, symObjAddr: 0xBB8C, symBinAddr: 0x1005539B8, symSize: 0x10C }
  - { offset: 0x120DFB, size: 0x8, addend: 0x0, symName: __ZN4core3fmt9Formatter3pad17hf4614a1c20e4508eE, symObjAddr: 0xBC98, symBinAddr: 0x100553AC4, symSize: 0x304 }
  - { offset: 0x121180, size: 0x8, addend: 0x0, symName: __ZN4core3fmt9Formatter4fill17hff0eb449b01b1d7cE, symObjAddr: 0xBF9C, symBinAddr: 0x100553DC8, symSize: 0xC }
  - { offset: 0x121198, size: 0x8, addend: 0x0, symName: __ZN4core3fmt9Formatter4fill17hff0eb449b01b1d7cE, symObjAddr: 0xBF9C, symBinAddr: 0x100553DC8, symSize: 0xC }
  - { offset: 0x1211AB, size: 0x8, addend: 0x0, symName: __ZN4core3fmt9Formatter9debug_map17hcc9534cfc627da68E, symObjAddr: 0xBFA8, symBinAddr: 0x100553DD4, symSize: 0x58 }
  - { offset: 0x1211F4, size: 0x8, addend: 0x0, symName: __ZN4core3fmt9Formatter9debug_set17h2ff6fbf3ea3ed613E, symObjAddr: 0xC000, symBinAddr: 0x100553E2C, symSize: 0x48 }
  - { offset: 0x12123D, size: 0x8, addend: 0x0, symName: __ZN4core3fmt9Formatter9write_str17h3cacbd623944fdc2E, symObjAddr: 0xC048, symBinAddr: 0x100553E74, symSize: 0x10 }
  - { offset: 0x121312, size: 0x8, addend: 0x0, symName: __ZN4core3fmt8builders11DebugStruct21finish_non_exhaustive17h9b7d3479d8e82e13E, symObjAddr: 0x918C, symBinAddr: 0x100550FB8, symSize: 0xC4 }
  - { offset: 0x121447, size: 0x8, addend: 0x0, symName: __ZN4core3fmt8builders11DebugStruct5field17h3258b872fad0c517E, symObjAddr: 0x9250, symBinAddr: 0x10055107C, symSize: 0x1B4 }
  - { offset: 0x12166B, size: 0x8, addend: 0x0, symName: __ZN4core3fmt8builders11DebugStruct6finish17hf111625dd93b01ddE, symObjAddr: 0x9404, symBinAddr: 0x100551230, symSize: 0x7C }
  - { offset: 0x1217A3, size: 0x8, addend: 0x0, symName: __ZN4core3fmt8builders10DebugTuple21finish_non_exhaustive17h7ed1a24de32dc479E, symObjAddr: 0x8EAC, symBinAddr: 0x100550CD8, symSize: 0xC0 }
  - { offset: 0x1218E3, size: 0x8, addend: 0x0, symName: __ZN4core3fmt8builders10DebugTuple5field17h459c5e0195c30ccfE, symObjAddr: 0x8F6C, symBinAddr: 0x100550D98, symSize: 0x148 }
  - { offset: 0x121A72, size: 0x8, addend: 0x0, symName: __ZN4core3fmt8builders10DebugTuple6finish17hd5de67e8ed3e6125E, symObjAddr: 0x90B4, symBinAddr: 0x100550EE0, symSize: 0xB4 }
  - { offset: 0x121BFD, size: 0x8, addend: 0x0, symName: __ZN4core3fmt8builders10PadAdapter4wrap17hea1e3195e6fe612cE, symObjAddr: 0x9168, symBinAddr: 0x100550F94, symSize: 0x24 }
  - { offset: 0x121C15, size: 0x8, addend: 0x0, symName: __ZN4core3fmt8builders10PadAdapter4wrap17hea1e3195e6fe612cE, symObjAddr: 0x9168, symBinAddr: 0x100550F94, symSize: 0x24 }
  - { offset: 0x121CE0, size: 0x8, addend: 0x0, symName: __ZN4core3fmt8builders8DebugMap21finish_non_exhaustive17h3a69d5c0221c4a80E, symObjAddr: 0x9480, symBinAddr: 0x1005512AC, symSize: 0xF8 }
  - { offset: 0x121E3B, size: 0x8, addend: 0x0, symName: __ZN4core3fmt8builders8DebugMap3key17hdd6a276f9f0aa72dE, symObjAddr: 0x9578, symBinAddr: 0x1005513A4, symSize: 0x1C8 }
  - { offset: 0x122030, size: 0x8, addend: 0x0, symName: __ZN4core3fmt8builders8DebugMap5entry17h9ae15732d7ae5568E, symObjAddr: 0x9740, symBinAddr: 0x10055156C, symSize: 0x110 }
  - { offset: 0x12218D, size: 0x8, addend: 0x0, symName: __ZN4core3fmt8builders8DebugMap5value17h6ccdfc1193367344E, symObjAddr: 0x9850, symBinAddr: 0x10055167C, symSize: 0x108 }
  - { offset: 0x1222D5, size: 0x8, addend: 0x0, symName: __ZN4core3fmt8builders8DebugMap6finish17ha58b41827f13c57dE, symObjAddr: 0x9958, symBinAddr: 0x100551784, symSize: 0x88 }
  - { offset: 0x122386, size: 0x8, addend: 0x0, symName: __ZN4core3fmt8builders8DebugSet21finish_non_exhaustive17ha1e239512282a369E, symObjAddr: 0x99E0, symBinAddr: 0x10055180C, symSize: 0xC4 }
  - { offset: 0x1224AF, size: 0x8, addend: 0x0, symName: __ZN4core3fmt8builders8DebugSet5entry17hb023dd586cfdd03dE, symObjAddr: 0x9AA4, symBinAddr: 0x1005518D0, symSize: 0x148 }
  - { offset: 0x122645, size: 0x8, addend: 0x0, symName: __ZN4core3fmt8builders8DebugSet6finish17h88de968d8402123bE, symObjAddr: 0x9BEC, symBinAddr: 0x100551A18, symSize: 0x4C }
  - { offset: 0x122744, size: 0x8, addend: 0x0, symName: __ZN4core3fmt8builders9DebugList21finish_non_exhaustive17h0e5f01ea04710319E, symObjAddr: 0x9C38, symBinAddr: 0x100551A64, symSize: 0xC8 }
  - { offset: 0x122876, size: 0x8, addend: 0x0, symName: __ZN4core3fmt8builders9DebugList6finish17h14d1ed16cd133200E, symObjAddr: 0x9D00, symBinAddr: 0x100551B2C, symSize: 0x4C }
  - { offset: 0x12293C, size: 0x8, addend: 0x0, symName: '__ZN68_$LT$core..fmt..builders..PadAdapter$u20$as$u20$core..fmt..Write$GT$10write_char17h716c13c5de8a4527E', symObjAddr: 0x1BF9C, symBinAddr: 0x100562D60, symSize: 0x80 }
  - { offset: 0x122966, size: 0x8, addend: 0x0, symName: '__ZN68_$LT$core..fmt..builders..PadAdapter$u20$as$u20$core..fmt..Write$GT$9write_str17h5e689f5661e08c5aE', symObjAddr: 0x1C01C, symBinAddr: 0x100562DE0, symSize: 0x244 }
  - { offset: 0x1231B8, size: 0x8, addend: 0x0, symName: '__ZN57_$LT$core..fmt..Formatter$u20$as$u20$core..fmt..Write$GT$10write_char17h769139afde77b15aE', symObjAddr: 0x183B8, symBinAddr: 0x10055F17C, symSize: 0x10 }
  - { offset: 0x1231F6, size: 0x8, addend: 0x0, symName: '__ZN40_$LT$str$u20$as$u20$core..fmt..Debug$GT$3fmt17h78d738a10a78752bE', symObjAddr: 0x318, symBinAddr: 0x1005481E4, symSize: 0x398 }
  - { offset: 0x12362F, size: 0x8, addend: 0x0, symName: '__ZN41_$LT$char$u20$as$u20$core..fmt..Debug$GT$3fmt17h30366c1c7f9644c7E', symObjAddr: 0x6B0, symBinAddr: 0x10054857C, symSize: 0xA8 }
  - { offset: 0x123740, size: 0x8, addend: 0x0, symName: '__ZN42_$LT$$RF$T$u20$as$u20$core..fmt..Debug$GT$3fmt17h1af63733e303ef5dE', symObjAddr: 0x758, symBinAddr: 0x100548624, symSize: 0x8 }
  - { offset: 0x12375B, size: 0x8, addend: 0x0, symName: '__ZN42_$LT$$RF$T$u20$as$u20$core..fmt..Debug$GT$3fmt17h6813e4b81119822dE', symObjAddr: 0x760, symBinAddr: 0x10054862C, symSize: 0x10 }
  - { offset: 0x12377D, size: 0x8, addend: 0x0, symName: '__ZN42_$LT$$RF$T$u20$as$u20$core..fmt..Debug$GT$3fmt17h74ac95f14f5c8ef1E', symObjAddr: 0x770, symBinAddr: 0x10054863C, symSize: 0x164 }
  - { offset: 0x1239B5, size: 0x8, addend: 0x0, symName: '__ZN42_$LT$$RF$T$u20$as$u20$core..fmt..Debug$GT$3fmt17h80a9653380627d83E', symObjAddr: 0x8D4, symBinAddr: 0x1005487A0, symSize: 0x10 }
  - { offset: 0x1239C9, size: 0x8, addend: 0x0, symName: '__ZN42_$LT$$RF$T$u20$as$u20$core..fmt..Debug$GT$3fmt17ha233922974c88301E', symObjAddr: 0x8E4, symBinAddr: 0x1005487B0, symSize: 0xC }
  - { offset: 0x1239E4, size: 0x8, addend: 0x0, symName: '__ZN42_$LT$$RF$T$u20$as$u20$core..fmt..Debug$GT$3fmt17hcb085e8eeb004f08E', symObjAddr: 0x8F0, symBinAddr: 0x1005487BC, symSize: 0x10 }
  - { offset: 0x1239FF, size: 0x8, addend: 0x0, symName: '__ZN42_$LT$$RF$T$u20$as$u20$core..fmt..Debug$GT$3fmt17hdc2a3d6d42f71ceaE', symObjAddr: 0x900, symBinAddr: 0x1005487CC, symSize: 0x8 }
  - { offset: 0x123A36, size: 0x8, addend: 0x0, symName: '__ZN42_$LT$str$u20$as$u20$core..fmt..Display$GT$3fmt17h63cc4bbe29090358E', symObjAddr: 0x908, symBinAddr: 0x1005487D4, symSize: 0x14 }
  - { offset: 0x123A5F, size: 0x8, addend: 0x0, symName: '__ZN43_$LT$bool$u20$as$u20$core..fmt..Display$GT$3fmt17h65bad19dd4638338E', symObjAddr: 0x91C, symBinAddr: 0x1005487E8, symSize: 0x34 }
  - { offset: 0x123AB5, size: 0x8, addend: 0x0, symName: '__ZN43_$LT$char$u20$as$u20$core..fmt..Display$GT$3fmt17he0b9d2d6b8d677c9E', symObjAddr: 0x950, symBinAddr: 0x10054881C, symSize: 0xD4 }
  - { offset: 0x123B2E, size: 0x8, addend: 0x0, symName: '__ZN44_$LT$$RF$T$u20$as$u20$core..fmt..Display$GT$3fmt17h315a7a3c4f7bdcbbE', symObjAddr: 0xA24, symBinAddr: 0x1005488F0, symSize: 0x8 }
  - { offset: 0x123B49, size: 0x8, addend: 0x0, symName: '__ZN44_$LT$$RF$T$u20$as$u20$core..fmt..Display$GT$3fmt17h360d8bfef4237bfdE', symObjAddr: 0xA2C, symBinAddr: 0x1005488F8, symSize: 0x10 }
  - { offset: 0x123B7B, size: 0x8, addend: 0x0, symName: '__ZN44_$LT$$RF$T$u20$as$u20$core..fmt..Display$GT$3fmt17hb422673cb8856047E', symObjAddr: 0xA3C, symBinAddr: 0x100548908, symSize: 0x8 }
  - { offset: 0x123B96, size: 0x8, addend: 0x0, symName: '__ZN44_$LT$$RF$T$u20$as$u20$core..fmt..Display$GT$3fmt17hf04e7de6497d0ee2E', symObjAddr: 0xA44, symBinAddr: 0x100548910, symSize: 0x140 }
  - { offset: 0x123D0E, size: 0x8, addend: 0x0, symName: '__ZN4core3fmt3num3imp20_$LT$impl$u20$u8$GT$4_fmt17h966318312adc2465E', symObjAddr: 0x196C, symBinAddr: 0x100549798, symSize: 0x84 }
  - { offset: 0x123DB5, size: 0x8, addend: 0x0, symName: '__ZN4core3fmt3num3imp20_$LT$impl$u20$i8$GT$11format_into17h3a24c7ae47bfc0cdE', symObjAddr: 0x17B4, symBinAddr: 0x1005495E0, symSize: 0x120 }
  - { offset: 0x123EC2, size: 0x8, addend: 0x0, symName: '__ZN4core3fmt3num3imp20_$LT$impl$u20$u8$GT$11format_into17h29ae98b693be5038E', symObjAddr: 0x18D4, symBinAddr: 0x100549700, symSize: 0x98 }
  - { offset: 0x123F70, size: 0x8, addend: 0x0, symName: '__ZN4core3fmt3num3imp21_$LT$impl$u20$u16$GT$4_fmt17hb5d631c54cd2266eE', symObjAddr: 0x2120, symBinAddr: 0x100549F4C, symSize: 0xFC }
  - { offset: 0x124055, size: 0x8, addend: 0x0, symName: '__ZN4core3fmt3num3imp21_$LT$impl$u20$i16$GT$11format_into17hc261ceb4d8162e9bE', symObjAddr: 0x19F0, symBinAddr: 0x10054981C, symSize: 0x1F0 }
  - { offset: 0x124187, size: 0x8, addend: 0x0, symName: '__ZN4core3fmt3num3imp21_$LT$impl$u20$u32$GT$4_fmt17h765ae886da27f8c1E', symObjAddr: 0x2328, symBinAddr: 0x10054A154, symSize: 0x108 }
  - { offset: 0x124258, size: 0x8, addend: 0x0, symName: '__ZN4core3fmt3num3imp21_$LT$impl$u20$i32$GT$11format_into17heacbe842dda36f9cE', symObjAddr: 0x1BE0, symBinAddr: 0x100549A0C, symSize: 0x21C }
  - { offset: 0x1243F1, size: 0x8, addend: 0x0, symName: '__ZN4core3fmt3num3imp21_$LT$impl$u20$u64$GT$4_fmt17hea7499c047b3a9ddE', symObjAddr: 0x2544, symBinAddr: 0x10054A370, symSize: 0x110 }
  - { offset: 0x1244C2, size: 0x8, addend: 0x0, symName: '__ZN4core3fmt3num3imp21_$LT$impl$u20$i64$GT$11format_into17hf73bf1064633f982E', symObjAddr: 0x1DFC, symBinAddr: 0x100549C28, symSize: 0x22C }
  - { offset: 0x12464E, size: 0x8, addend: 0x0, symName: '__ZN4core3fmt3num3imp21_$LT$impl$u20$u16$GT$11format_into17hb3dd81368dacc0eaE', symObjAddr: 0x2028, symBinAddr: 0x100549E54, symSize: 0xF8 }
  - { offset: 0x1246FB, size: 0x8, addend: 0x0, symName: '__ZN4core3fmt3num3imp21_$LT$impl$u20$u32$GT$11format_into17h4aef44e06675235dE', symObjAddr: 0x221C, symBinAddr: 0x10054A048, symSize: 0x10C }
  - { offset: 0x1247C6, size: 0x8, addend: 0x0, symName: '__ZN4core3fmt3num3imp21_$LT$impl$u20$u64$GT$11format_into17h4be0df2b864f4496E', symObjAddr: 0x2430, symBinAddr: 0x10054A25C, symSize: 0x114 }
  - { offset: 0x124891, size: 0x8, addend: 0x0, symName: '__ZN4core3fmt3num3imp51_$LT$impl$u20$core..fmt..Display$u20$for$u20$i8$GT$3fmt17h5b3053531d61e536E', symObjAddr: 0x2654, symBinAddr: 0x10054A480, symSize: 0xD0 }
  - { offset: 0x124982, size: 0x8, addend: 0x0, symName: '__ZN4core3fmt3num3imp51_$LT$impl$u20$core..fmt..Display$u20$for$u20$u8$GT$3fmt17h98dd3bacd3ed43bdE', symObjAddr: 0x2724, symBinAddr: 0x10054A550, symSize: 0xB0 }
  - { offset: 0x124A71, size: 0x8, addend: 0x0, symName: '__ZN4core3fmt3num3imp52_$LT$impl$u20$core..fmt..Display$u20$for$u20$i16$GT$3fmt17hc8d1c66112cc3abcE', symObjAddr: 0x27D4, symBinAddr: 0x10054A600, symSize: 0x118 }
  - { offset: 0x124B6E, size: 0x8, addend: 0x0, symName: '__ZN4core3fmt3num3imp52_$LT$impl$u20$core..fmt..Display$u20$for$u20$i32$GT$3fmt17h44e9b3674c32bab8E', symObjAddr: 0x28EC, symBinAddr: 0x10054A718, symSize: 0x13C }
  - { offset: 0x124C7A, size: 0x8, addend: 0x0, symName: '__ZN4core3fmt3num3imp52_$LT$impl$u20$core..fmt..Display$u20$for$u20$i64$GT$3fmt17he46465887a655020E', symObjAddr: 0x2A28, symBinAddr: 0x10054A854, symSize: 0x144 }
  - { offset: 0x124D8E, size: 0x8, addend: 0x0, symName: '__ZN4core3fmt3num3imp52_$LT$impl$u20$core..fmt..Display$u20$for$u20$u16$GT$3fmt17ha58bc3935f56e4d0E', symObjAddr: 0x2B6C, symBinAddr: 0x10054A998, symSize: 0xFC }
  - { offset: 0x124E81, size: 0x8, addend: 0x0, symName: '__ZN4core3fmt3num3imp52_$LT$impl$u20$core..fmt..Display$u20$for$u20$u32$GT$3fmt17h8d9a26a42695d350E', symObjAddr: 0x2C68, symBinAddr: 0x10054AA94, symSize: 0x130 }
  - { offset: 0x124F8A, size: 0x8, addend: 0x0, symName: '__ZN4core3fmt3num3imp52_$LT$impl$u20$core..fmt..Display$u20$for$u20$u64$GT$3fmt17hf290744b1c26d37fE', symObjAddr: 0x2D98, symBinAddr: 0x10054ABC4, symSize: 0x13C }
  - { offset: 0x1250A3, size: 0x8, addend: 0x0, symName: '__ZN4core3fmt3num3imp52_$LT$impl$u20$core..fmt..LowerExp$u20$for$u20$i8$GT$3fmt17hf0d0297a85078ee2E', symObjAddr: 0x2ED4, symBinAddr: 0x10054AD00, symSize: 0x24 }
  - { offset: 0x1250F3, size: 0x8, addend: 0x0, symName: '__ZN4core3fmt3num3imp52_$LT$impl$u20$core..fmt..LowerExp$u20$for$u20$u8$GT$3fmt17hf3fa7c415fcb1173E', symObjAddr: 0x2EF8, symBinAddr: 0x10054AD24, symSize: 0x18 }
  - { offset: 0x125115, size: 0x8, addend: 0x0, symName: '__ZN4core3fmt3num3imp52_$LT$impl$u20$core..fmt..UpperExp$u20$for$u20$i8$GT$3fmt17h197f66518563b93bE', symObjAddr: 0x2F10, symBinAddr: 0x10054AD3C, symSize: 0x24 }
  - { offset: 0x125165, size: 0x8, addend: 0x0, symName: '__ZN4core3fmt3num3imp52_$LT$impl$u20$core..fmt..UpperExp$u20$for$u20$u8$GT$3fmt17hcafc8ca8a718622dE', symObjAddr: 0x2F34, symBinAddr: 0x10054AD60, symSize: 0x18 }
  - { offset: 0x125187, size: 0x8, addend: 0x0, symName: '__ZN4core3fmt3num3imp53_$LT$impl$u20$core..fmt..LowerExp$u20$for$u20$i16$GT$3fmt17h107c7ec3c518288dE', symObjAddr: 0x2F4C, symBinAddr: 0x10054AD78, symSize: 0x24 }
  - { offset: 0x1251D7, size: 0x8, addend: 0x0, symName: '__ZN4core3fmt3num3imp53_$LT$impl$u20$core..fmt..LowerExp$u20$for$u20$i32$GT$3fmt17ha381d37a5780b088E', symObjAddr: 0x2F70, symBinAddr: 0x10054AD9C, symSize: 0x24 }
  - { offset: 0x125227, size: 0x8, addend: 0x0, symName: '__ZN4core3fmt3num3imp53_$LT$impl$u20$core..fmt..LowerExp$u20$for$u20$i64$GT$3fmt17he6090674811fee05E', symObjAddr: 0x2F94, symBinAddr: 0x10054ADC0, symSize: 0x24 }
  - { offset: 0x125277, size: 0x8, addend: 0x0, symName: '__ZN4core3fmt3num3imp53_$LT$impl$u20$core..fmt..LowerExp$u20$for$u20$u16$GT$3fmt17hb728b34c363bb338E', symObjAddr: 0x2FB8, symBinAddr: 0x10054ADE4, symSize: 0x18 }
  - { offset: 0x125299, size: 0x8, addend: 0x0, symName: '__ZN4core3fmt3num3imp53_$LT$impl$u20$core..fmt..LowerExp$u20$for$u20$u32$GT$3fmt17h9561056e3383f0ffE', symObjAddr: 0x2FD0, symBinAddr: 0x10054ADFC, symSize: 0x18 }
  - { offset: 0x1252BB, size: 0x8, addend: 0x0, symName: '__ZN4core3fmt3num3imp53_$LT$impl$u20$core..fmt..LowerExp$u20$for$u20$u64$GT$3fmt17h0e70bcace3c48e33E', symObjAddr: 0x2FE8, symBinAddr: 0x10054AE14, symSize: 0x18 }
  - { offset: 0x1252DD, size: 0x8, addend: 0x0, symName: '__ZN4core3fmt3num3imp53_$LT$impl$u20$core..fmt..UpperExp$u20$for$u20$i16$GT$3fmt17h1be112433d2617caE', symObjAddr: 0x3000, symBinAddr: 0x10054AE2C, symSize: 0x24 }
  - { offset: 0x12532D, size: 0x8, addend: 0x0, symName: '__ZN4core3fmt3num3imp53_$LT$impl$u20$core..fmt..UpperExp$u20$for$u20$i32$GT$3fmt17h2d48069447ffa1cbE', symObjAddr: 0x3024, symBinAddr: 0x10054AE50, symSize: 0x24 }
  - { offset: 0x12537D, size: 0x8, addend: 0x0, symName: '__ZN4core3fmt3num3imp53_$LT$impl$u20$core..fmt..UpperExp$u20$for$u20$i64$GT$3fmt17hc14d102cfa6953a3E', symObjAddr: 0x3048, symBinAddr: 0x10054AE74, symSize: 0x24 }
  - { offset: 0x1253CD, size: 0x8, addend: 0x0, symName: '__ZN4core3fmt3num3imp53_$LT$impl$u20$core..fmt..UpperExp$u20$for$u20$u16$GT$3fmt17h2c97317dd9857ed8E', symObjAddr: 0x306C, symBinAddr: 0x10054AE98, symSize: 0x18 }
  - { offset: 0x1253EF, size: 0x8, addend: 0x0, symName: '__ZN4core3fmt3num3imp53_$LT$impl$u20$core..fmt..UpperExp$u20$for$u20$u32$GT$3fmt17h349a3e0053d40883E', symObjAddr: 0x3084, symBinAddr: 0x10054AEB0, symSize: 0x18 }
  - { offset: 0x125411, size: 0x8, addend: 0x0, symName: '__ZN4core3fmt3num3imp53_$LT$impl$u20$core..fmt..UpperExp$u20$for$u20$u64$GT$3fmt17h881cefdb3169fb87E', symObjAddr: 0x309C, symBinAddr: 0x10054AEC8, symSize: 0x18 }
  - { offset: 0x12542D, size: 0x8, addend: 0x0, symName: __ZN4core3fmt3num3imp7exp_u6417h0f903c8c153d1fb9E, symObjAddr: 0x30B4, symBinAddr: 0x10054AEE0, symSize: 0x530 }
  - { offset: 0x12563C, size: 0x8, addend: 0x0, symName: '__ZN4core3fmt3num53_$LT$impl$u20$core..fmt..LowerHex$u20$for$u20$u16$GT$3fmt17h5af38dba3a7087b0E', symObjAddr: 0x5024, symBinAddr: 0x10054CE50, symSize: 0x74 }
  - { offset: 0x1256B9, size: 0x8, addend: 0x0, symName: '__ZN4core3fmt3num22_$LT$impl$u20$i128$GT$11format_into17h22a99e236083a805E', symObjAddr: 0x1254, symBinAddr: 0x100549080, symSize: 0x60 }
  - { offset: 0x125815, size: 0x8, addend: 0x0, symName: '__ZN4core3fmt3num22_$LT$impl$u20$u128$GT$10_fmt_inner17haafebf800abea46aE', symObjAddr: 0x12B4, symBinAddr: 0x1005490E0, symSize: 0x4A0 }
  - { offset: 0x125996, size: 0x8, addend: 0x0, symName: '__ZN4core3fmt3num22_$LT$impl$u20$u128$GT$11format_into17hc338010768f799fcE', symObjAddr: 0x1754, symBinAddr: 0x100549580, symSize: 0x34 }
  - { offset: 0x125A95, size: 0x8, addend: 0x0, symName: '__ZN4core3fmt3num22_$LT$impl$u20$u128$GT$4_fmt17h61b0ad27c0092c4eE', symObjAddr: 0x1788, symBinAddr: 0x1005495B4, symSize: 0x2C }
  - { offset: 0x125B2F, size: 0x8, addend: 0x0, symName: '__ZN4core3fmt3num52_$LT$impl$u20$core..fmt..LowerHex$u20$for$u20$u8$GT$3fmt17hedb4777804964d81E', symObjAddr: 0x4C94, symBinAddr: 0x10054CAC0, symSize: 0x74 }
  - { offset: 0x125BA5, size: 0x8, addend: 0x0, symName: '__ZN4core3fmt3num52_$LT$impl$u20$core..fmt..LowerHex$u20$for$u20$i8$GT$3fmt17h1dbe7eccd7b45cf7E', symObjAddr: 0x4C20, symBinAddr: 0x10054CA4C, symSize: 0x74 }
  - { offset: 0x125C31, size: 0x8, addend: 0x0, symName: '__ZN4core3fmt3num52_$LT$impl$u20$core..fmt..UpperHex$u20$for$u20$u8$GT$3fmt17h50925e9b57f75ef7E', symObjAddr: 0x4D7C, symBinAddr: 0x10054CBA8, symSize: 0x74 }
  - { offset: 0x125CA7, size: 0x8, addend: 0x0, symName: '__ZN4core3fmt3num52_$LT$impl$u20$core..fmt..UpperHex$u20$for$u20$i8$GT$3fmt17hcbac6f4c9ea2b8cbE', symObjAddr: 0x4D08, symBinAddr: 0x10054CB34, symSize: 0x74 }
  - { offset: 0x125D26, size: 0x8, addend: 0x0, symName: '__ZN4core3fmt3num49_$LT$impl$u20$core..fmt..Debug$u20$for$u20$i8$GT$3fmt17h70595854709732e8E', symObjAddr: 0x35E4, symBinAddr: 0x10054B410, symSize: 0x174 }
  - { offset: 0x125F06, size: 0x8, addend: 0x0, symName: '__ZN4core3fmt3num49_$LT$impl$u20$core..fmt..Debug$u20$for$u20$u8$GT$3fmt17h9694a00f1a59b5dfE', symObjAddr: 0x3758, symBinAddr: 0x10054B584, symSize: 0x15C }
  - { offset: 0x1260BD, size: 0x8, addend: 0x0, symName: '__ZN4core3fmt3num49_$LT$impl$u20$core..fmt..Octal$u20$for$u20$u8$GT$3fmt17h48b3307955968e40E', symObjAddr: 0x3928, symBinAddr: 0x10054B754, symSize: 0x74 }
  - { offset: 0x126126, size: 0x8, addend: 0x0, symName: '__ZN4core3fmt3num49_$LT$impl$u20$core..fmt..Octal$u20$for$u20$i8$GT$3fmt17h05f683700115ec62E', symObjAddr: 0x38B4, symBinAddr: 0x10054B6E0, symSize: 0x74 }
  - { offset: 0x1261B8, size: 0x8, addend: 0x0, symName: '__ZN4core3fmt3num50_$LT$impl$u20$core..fmt..Binary$u20$for$u20$u8$GT$3fmt17hedd6ff29a65e3174E', symObjAddr: 0x3A10, symBinAddr: 0x10054B83C, symSize: 0x74 }
  - { offset: 0x126221, size: 0x8, addend: 0x0, symName: '__ZN4core3fmt3num50_$LT$impl$u20$core..fmt..Binary$u20$for$u20$i8$GT$3fmt17h911d1e9b3ed12e91E', symObjAddr: 0x399C, symBinAddr: 0x10054B7C8, symSize: 0x74 }
  - { offset: 0x1262B3, size: 0x8, addend: 0x0, symName: '__ZN4core3fmt3num53_$LT$impl$u20$core..fmt..LowerHex$u20$for$u20$i16$GT$3fmt17h18a0aca1d9acbcfdE', symObjAddr: 0x4EC8, symBinAddr: 0x10054CCF4, symSize: 0x74 }
  - { offset: 0x12633F, size: 0x8, addend: 0x0, symName: '__ZN4core3fmt3num53_$LT$impl$u20$core..fmt..UpperHex$u20$for$u20$u16$GT$3fmt17hebd58d652d57a7d2E', symObjAddr: 0x52DC, symBinAddr: 0x10054D108, symSize: 0x74 }
  - { offset: 0x1263B5, size: 0x8, addend: 0x0, symName: '__ZN4core3fmt3num53_$LT$impl$u20$core..fmt..UpperHex$u20$for$u20$i16$GT$3fmt17h243177b25cc69b70E', symObjAddr: 0x5180, symBinAddr: 0x10054CFAC, symSize: 0x74 }
  - { offset: 0x126434, size: 0x8, addend: 0x0, symName: '__ZN4core3fmt3num50_$LT$impl$u20$core..fmt..Debug$u20$for$u20$i16$GT$3fmt17h523141ea8c8640c9E', symObjAddr: 0x3A84, symBinAddr: 0x10054B8B0, symSize: 0x1D0 }
  - { offset: 0x126620, size: 0x8, addend: 0x0, symName: '__ZN4core3fmt3num50_$LT$impl$u20$core..fmt..Debug$u20$for$u20$u16$GT$3fmt17h7ed5fae8e3a65268E', symObjAddr: 0x3C54, symBinAddr: 0x10054BA80, symSize: 0x1BC }
  - { offset: 0x1267E3, size: 0x8, addend: 0x0, symName: '__ZN4core3fmt3num53_$LT$impl$u20$core..fmt..LowerHex$u20$for$u20$u32$GT$3fmt17h1ec811601ebe3a63E', symObjAddr: 0x5098, symBinAddr: 0x10054CEC4, symSize: 0x74 }
  - { offset: 0x126859, size: 0x8, addend: 0x0, symName: '__ZN4core3fmt3num53_$LT$impl$u20$core..fmt..UpperHex$u20$for$u20$u32$GT$3fmt17h34ed060ad6fb82ebE', symObjAddr: 0x5350, symBinAddr: 0x10054D17C, symSize: 0x74 }
  - { offset: 0x1268C2, size: 0x8, addend: 0x0, symName: '__ZN4core3fmt3num50_$LT$impl$u20$core..fmt..Debug$u20$for$u20$u32$GT$3fmt17h63d27749e7694155E', symObjAddr: 0x3E10, symBinAddr: 0x10054BC3C, symSize: 0xC4 }
  - { offset: 0x126963, size: 0x8, addend: 0x0, symName: '__ZN4core3fmt3num53_$LT$impl$u20$core..fmt..LowerHex$u20$for$u20$u64$GT$3fmt17hfc912d2a86e92a47E', symObjAddr: 0x510C, symBinAddr: 0x10054CF38, symSize: 0x74 }
  - { offset: 0x1269D9, size: 0x8, addend: 0x0, symName: '__ZN4core3fmt3num53_$LT$impl$u20$core..fmt..UpperHex$u20$for$u20$u64$GT$3fmt17hf105ba80954e3508E', symObjAddr: 0x53C4, symBinAddr: 0x10054D1F0, symSize: 0x74 }
  - { offset: 0x126A42, size: 0x8, addend: 0x0, symName: '__ZN4core3fmt3num50_$LT$impl$u20$core..fmt..Debug$u20$for$u20$u64$GT$3fmt17hb44309dd4024cc30E', symObjAddr: 0x3ED4, symBinAddr: 0x10054BD00, symSize: 0x1CC }
  - { offset: 0x126BCA, size: 0x8, addend: 0x0, symName: '__ZN4core3fmt3num50_$LT$impl$u20$core..fmt..Octal$u20$for$u20$u16$GT$3fmt17hdd5a71c5224a6a1bE', symObjAddr: 0x41FC, symBinAddr: 0x10054C028, symSize: 0x74 }
  - { offset: 0x126C33, size: 0x8, addend: 0x0, symName: '__ZN4core3fmt3num50_$LT$impl$u20$core..fmt..Octal$u20$for$u20$i16$GT$3fmt17h8ee8267eac842555E', symObjAddr: 0x40A0, symBinAddr: 0x10054BECC, symSize: 0x74 }
  - { offset: 0x126CC5, size: 0x8, addend: 0x0, symName: '__ZN4core3fmt3num50_$LT$impl$u20$core..fmt..Octal$u20$for$u20$u32$GT$3fmt17h4d5f64eb3bd5cb2cE', symObjAddr: 0x4270, symBinAddr: 0x10054C09C, symSize: 0x74 }
  - { offset: 0x126D2E, size: 0x8, addend: 0x0, symName: '__ZN4core3fmt3num50_$LT$impl$u20$core..fmt..Octal$u20$for$u20$i32$GT$3fmt17h5b1125404ad0a94dE', symObjAddr: 0x4114, symBinAddr: 0x10054BF40, symSize: 0x74 }
  - { offset: 0x126DC0, size: 0x8, addend: 0x0, symName: '__ZN4core3fmt3num50_$LT$impl$u20$core..fmt..Octal$u20$for$u20$u64$GT$3fmt17h8cd83c8ae5b87e3dE', symObjAddr: 0x42E4, symBinAddr: 0x10054C110, symSize: 0x74 }
  - { offset: 0x126E29, size: 0x8, addend: 0x0, symName: '__ZN4core3fmt3num50_$LT$impl$u20$core..fmt..Octal$u20$for$u20$i64$GT$3fmt17hd7e0fde6d4a8c092E', symObjAddr: 0x4188, symBinAddr: 0x10054BFB4, symSize: 0x74 }
  - { offset: 0x126EBB, size: 0x8, addend: 0x0, symName: '__ZN4core3fmt3num51_$LT$impl$u20$core..fmt..Binary$u20$for$u20$u16$GT$3fmt17h21e5c4fc20fe3920E', symObjAddr: 0x44B4, symBinAddr: 0x10054C2E0, symSize: 0x74 }
  - { offset: 0x126F24, size: 0x8, addend: 0x0, symName: '__ZN4core3fmt3num51_$LT$impl$u20$core..fmt..Binary$u20$for$u20$i16$GT$3fmt17h9ac027bb15b63ae1E', symObjAddr: 0x4358, symBinAddr: 0x10054C184, symSize: 0x74 }
  - { offset: 0x126FB6, size: 0x8, addend: 0x0, symName: '__ZN4core3fmt3num51_$LT$impl$u20$core..fmt..Binary$u20$for$u20$u32$GT$3fmt17hbc195828fe6caaa6E', symObjAddr: 0x4528, symBinAddr: 0x10054C354, symSize: 0x74 }
  - { offset: 0x12701F, size: 0x8, addend: 0x0, symName: '__ZN4core3fmt3num51_$LT$impl$u20$core..fmt..Binary$u20$for$u20$i32$GT$3fmt17h90627fe443c83225E', symObjAddr: 0x43CC, symBinAddr: 0x10054C1F8, symSize: 0x74 }
  - { offset: 0x1270B1, size: 0x8, addend: 0x0, symName: '__ZN4core3fmt3num51_$LT$impl$u20$core..fmt..Binary$u20$for$u20$u64$GT$3fmt17h291bbb8279f41a62E', symObjAddr: 0x459C, symBinAddr: 0x10054C3C8, symSize: 0x74 }
  - { offset: 0x12711A, size: 0x8, addend: 0x0, symName: '__ZN4core3fmt3num51_$LT$impl$u20$core..fmt..Binary$u20$for$u20$i64$GT$3fmt17h962c843a155d8f90E', symObjAddr: 0x4440, symBinAddr: 0x10054C26C, symSize: 0x74 }
  - { offset: 0x1271AD, size: 0x8, addend: 0x0, symName: '__ZN4core3fmt3num53_$LT$impl$u20$core..fmt..Display$u20$for$u20$i128$GT$3fmt17h63647f3fcb828e00E', symObjAddr: 0x4DF0, symBinAddr: 0x10054CC1C, symSize: 0x78 }
  - { offset: 0x12725F, size: 0x8, addend: 0x0, symName: '__ZN4core3fmt3num54_$LT$impl$u20$core..fmt..LowerHex$u20$for$u20$u128$GT$3fmt17h4364df5c7524a733E', symObjAddr: 0x5500, symBinAddr: 0x10054D32C, symSize: 0x80 }
  - { offset: 0x1272D5, size: 0x8, addend: 0x0, symName: '__ZN4core3fmt3num54_$LT$impl$u20$core..fmt..LowerHex$u20$for$u20$i128$GT$3fmt17h9b56112ffc9e125bE', symObjAddr: 0x5480, symBinAddr: 0x10054D2AC, symSize: 0x80 }
  - { offset: 0x127361, size: 0x8, addend: 0x0, symName: '__ZN4core3fmt3num54_$LT$impl$u20$core..fmt..UpperHex$u20$for$u20$u128$GT$3fmt17h848a4840287527bbE', symObjAddr: 0x5648, symBinAddr: 0x10054D474, symSize: 0x80 }
  - { offset: 0x1273D7, size: 0x8, addend: 0x0, symName: '__ZN4core3fmt3num54_$LT$impl$u20$core..fmt..UpperHex$u20$for$u20$i128$GT$3fmt17h6301bfe82eac27e3E', symObjAddr: 0x55C8, symBinAddr: 0x10054D3F4, symSize: 0x80 }
  - { offset: 0x127456, size: 0x8, addend: 0x0, symName: '__ZN4core3fmt3num51_$LT$impl$u20$core..fmt..Debug$u20$for$u20$i128$GT$3fmt17h44e656056e052768E', symObjAddr: 0x4610, symBinAddr: 0x10054C43C, symSize: 0x12C }
  - { offset: 0x1275BC, size: 0x8, addend: 0x0, symName: '__ZN4core3fmt3num53_$LT$impl$u20$core..fmt..Display$u20$for$u20$u128$GT$3fmt17h0f0972625c577cc7E', symObjAddr: 0x4E68, symBinAddr: 0x10054CC94, symSize: 0x60 }
  - { offset: 0x127660, size: 0x8, addend: 0x0, symName: '__ZN4core3fmt3num51_$LT$impl$u20$core..fmt..Debug$u20$for$u20$u128$GT$3fmt17h91269cd22d2ed24aE', symObjAddr: 0x473C, symBinAddr: 0x10054C568, symSize: 0x10C }
  - { offset: 0x127798, size: 0x8, addend: 0x0, symName: '__ZN4core3fmt3num51_$LT$impl$u20$core..fmt..Octal$u20$for$u20$u128$GT$3fmt17h3d20660416180618E', symObjAddr: 0x48C8, symBinAddr: 0x10054C6F4, symSize: 0x80 }
  - { offset: 0x127801, size: 0x8, addend: 0x0, symName: '__ZN4core3fmt3num51_$LT$impl$u20$core..fmt..Octal$u20$for$u20$i128$GT$3fmt17h4758668b0be5b074E', symObjAddr: 0x4848, symBinAddr: 0x10054C674, symSize: 0x80 }
  - { offset: 0x127893, size: 0x8, addend: 0x0, symName: '__ZN4core3fmt3num52_$LT$impl$u20$core..fmt..Binary$u20$for$u20$u128$GT$3fmt17h9e75bd76d860246dE', symObjAddr: 0x49C8, symBinAddr: 0x10054C7F4, symSize: 0x80 }
  - { offset: 0x1278FC, size: 0x8, addend: 0x0, symName: '__ZN4core3fmt3num52_$LT$impl$u20$core..fmt..Binary$u20$for$u20$i128$GT$3fmt17h9121946df8f32866E', symObjAddr: 0x4948, symBinAddr: 0x10054C774, symSize: 0x80 }
  - { offset: 0x127995, size: 0x8, addend: 0x0, symName: '__ZN4core3fmt3num52_$LT$impl$u20$core..fmt..Debug$u20$for$u20$usize$GT$3fmt17h9ee511eeaaac07a5E', symObjAddr: 0x4A48, symBinAddr: 0x10054C874, symSize: 0x1D8 }
  - { offset: 0x127B10, size: 0x8, addend: 0x0, symName: '__ZN4core3fmt3num53_$LT$impl$u20$core..fmt..LowerHex$u20$for$u20$i32$GT$3fmt17hf4f3f6cb5a210a86E', symObjAddr: 0x4F3C, symBinAddr: 0x10054CD68, symSize: 0x74 }
  - { offset: 0x127B9C, size: 0x8, addend: 0x0, symName: '__ZN4core3fmt3num53_$LT$impl$u20$core..fmt..LowerHex$u20$for$u20$i64$GT$3fmt17h302fb56d1ceb3029E', symObjAddr: 0x4FB0, symBinAddr: 0x10054CDDC, symSize: 0x74 }
  - { offset: 0x127C28, size: 0x8, addend: 0x0, symName: '__ZN4core3fmt3num53_$LT$impl$u20$core..fmt..UpperHex$u20$for$u20$i32$GT$3fmt17h87b90536a374a042E', symObjAddr: 0x51F4, symBinAddr: 0x10054D020, symSize: 0x74 }
  - { offset: 0x127CB4, size: 0x8, addend: 0x0, symName: '__ZN4core3fmt3num53_$LT$impl$u20$core..fmt..UpperHex$u20$for$u20$i64$GT$3fmt17h89e0a469ebd3bf66E', symObjAddr: 0x5268, symBinAddr: 0x10054D094, symSize: 0x74 }
  - { offset: 0x127D40, size: 0x8, addend: 0x0, symName: '__ZN4core3fmt3num54_$LT$impl$u20$core..fmt..LowerExp$u20$for$u20$i128$GT$3fmt17h0a3c4610fa54616fE', symObjAddr: 0x5438, symBinAddr: 0x10054D264, symSize: 0x30 }
  - { offset: 0x127D90, size: 0x8, addend: 0x0, symName: '__ZN4core3fmt3num54_$LT$impl$u20$core..fmt..LowerExp$u20$for$u20$u128$GT$3fmt17hbf8aa278add5db48E', symObjAddr: 0x5468, symBinAddr: 0x10054D294, symSize: 0x18 }
  - { offset: 0x127DB2, size: 0x8, addend: 0x0, symName: '__ZN4core3fmt3num54_$LT$impl$u20$core..fmt..UpperExp$u20$for$u20$i128$GT$3fmt17h0ba055c1170fd6cdE', symObjAddr: 0x5580, symBinAddr: 0x10054D3AC, symSize: 0x30 }
  - { offset: 0x127E02, size: 0x8, addend: 0x0, symName: '__ZN4core3fmt3num54_$LT$impl$u20$core..fmt..UpperExp$u20$for$u20$u128$GT$3fmt17h279a08d3695014d4E', symObjAddr: 0x55B0, symBinAddr: 0x10054D3DC, symSize: 0x18 }
  - { offset: 0x127E1E, size: 0x8, addend: 0x0, symName: __ZN4core3fmt3num8exp_u12817ha82f98f5b702367dE, symObjAddr: 0x56C8, symBinAddr: 0x10054D4F4, symSize: 0x908 }
  - { offset: 0x128088, size: 0x8, addend: 0x0, symName: '__ZN45_$LT$$RF$T$u20$as$u20$core..fmt..LowerHex$GT$3fmt17h05b3a3d2bfbdae41E', symObjAddr: 0xB84, symBinAddr: 0x100548A50, symSize: 0x78 }
  - { offset: 0x12810F, size: 0x8, addend: 0x0, symName: __ZN4core3fmt17FormattingOptions8get_fill17h5e80d608cbd2ec44E, symObjAddr: 0x1194, symBinAddr: 0x100548FC0, symSize: 0xC }
  - { offset: 0x12823C, size: 0x8, addend: 0x0, symName: __ZN4core3fmt17pointer_fmt_inner17h2b953d6d0d84cc95E, symObjAddr: 0x11A0, symBinAddr: 0x100548FCC, symSize: 0xB4 }
  - { offset: 0x1282FD, size: 0x8, addend: 0x0, symName: __ZN4core3fmt5Write10write_char17h327cb3b7b77bf140E, symObjAddr: 0x5FD0, symBinAddr: 0x10054DDFC, symSize: 0x134 }
  - { offset: 0x1283E9, size: 0x8, addend: 0x0, symName: __ZN4core3fmt5Write10write_char17h4d75857624942983E, symObjAddr: 0x6104, symBinAddr: 0x10054DF30, symSize: 0x134 }
  - { offset: 0x1284D5, size: 0x8, addend: 0x0, symName: __ZN4core3fmt5Write10write_char17hc7bd6fd1ca90d3f5E, symObjAddr: 0x6238, symBinAddr: 0x10054E064, symSize: 0x134 }
  - { offset: 0x1285C1, size: 0x8, addend: 0x0, symName: __ZN4core3fmt5Write10write_char17hd06bf30838c9bc3fE, symObjAddr: 0x636C, symBinAddr: 0x10054E198, symSize: 0x134 }
  - { offset: 0x1286FC, size: 0x8, addend: 0x0, symName: __ZN4core3fmt5Write9write_fmt17h1338533b53592359E, symObjAddr: 0x64A0, symBinAddr: 0x10054E2CC, symSize: 0x10 }
  - { offset: 0x12872C, size: 0x8, addend: 0x0, symName: __ZN4core3fmt5Write9write_fmt17h19c815d1dc24bc83E, symObjAddr: 0x64B0, symBinAddr: 0x10054E2DC, symSize: 0x10 }
  - { offset: 0x12875C, size: 0x8, addend: 0x0, symName: __ZN4core3fmt5Write9write_fmt17h438d4f6f3d26c4d1E, symObjAddr: 0x64C0, symBinAddr: 0x10054E2EC, symSize: 0x10 }
  - { offset: 0x12878C, size: 0x8, addend: 0x0, symName: __ZN4core3fmt5Write9write_fmt17h745afc1aa007832bE, symObjAddr: 0x64D0, symBinAddr: 0x10054E2FC, symSize: 0x10 }
  - { offset: 0x1287BC, size: 0x8, addend: 0x0, symName: __ZN4core3fmt5Write9write_fmt17h7ec734f509aaedf0E, symObjAddr: 0x64E0, symBinAddr: 0x10054E30C, symSize: 0x10 }
  - { offset: 0x128827, size: 0x8, addend: 0x0, symName: __ZN4core3fmt5float29float_to_decimal_common_exact17h424e762303659f5eE, symObjAddr: 0x64F0, symBinAddr: 0x10054E31C, symSize: 0x328 }
  - { offset: 0x1288FB, size: 0x8, addend: 0x0, symName: __ZN4core3fmt5float29float_to_decimal_common_exact17h46de281188360264E, symObjAddr: 0x6818, symBinAddr: 0x10054E644, symSize: 0x32C }
  - { offset: 0x1289E5, size: 0x8, addend: 0x0, symName: __ZN4core3fmt5float29float_to_decimal_common_exact17h5e12c77e2089c05cE, symObjAddr: 0x6B44, symBinAddr: 0x10054E970, symSize: 0x330 }
  - { offset: 0x128AE6, size: 0x8, addend: 0x0, symName: __ZN4core3fmt5float32float_to_decimal_common_shortest17h036238047cedb190E, symObjAddr: 0x6E74, symBinAddr: 0x10054ECA0, symSize: 0x274 }
  - { offset: 0x128BD9, size: 0x8, addend: 0x0, symName: __ZN4core3fmt5float32float_to_decimal_common_shortest17h449e81c53dfd8c83E, symObjAddr: 0x70E8, symBinAddr: 0x10054EF14, symSize: 0x270 }
  - { offset: 0x128CB5, size: 0x8, addend: 0x0, symName: __ZN4core3fmt5float32float_to_decimal_common_shortest17hc6fe8917ac9a0cc8E, symObjAddr: 0x7358, symBinAddr: 0x10054F184, symSize: 0x26C }
  - { offset: 0x128D7B, size: 0x8, addend: 0x0, symName: __ZN4core3fmt5float33float_to_exponential_common_exact17h33a69d634a0f5b2aE, symObjAddr: 0x75C4, symBinAddr: 0x10054F3F0, symSize: 0x370 }
  - { offset: 0x128E90, size: 0x8, addend: 0x0, symName: __ZN4core3fmt5float33float_to_exponential_common_exact17hb23ee9dbca03e012E, symObjAddr: 0x7934, symBinAddr: 0x10054F760, symSize: 0x378 }
  - { offset: 0x128FA5, size: 0x8, addend: 0x0, symName: __ZN4core3fmt5float33float_to_exponential_common_exact17hfdc2f787b236bf6dE, symObjAddr: 0x7CAC, symBinAddr: 0x10054FAD8, symSize: 0x374 }
  - { offset: 0x1290CF, size: 0x8, addend: 0x0, symName: __ZN4core3fmt5float36float_to_exponential_common_shortest17h0042aa257877048eE, symObjAddr: 0x8020, symBinAddr: 0x10054FE4C, symSize: 0x314 }
  - { offset: 0x1291BB, size: 0x8, addend: 0x0, symName: __ZN4core3fmt5float36float_to_exponential_common_shortest17h9c9586da9f85378cE, symObjAddr: 0x8334, symBinAddr: 0x100550160, symSize: 0x31C }
  - { offset: 0x1292D4, size: 0x8, addend: 0x0, symName: __ZN4core3fmt5float36float_to_exponential_common_shortest17hf82915ac3e8e123bE, symObjAddr: 0x8650, symBinAddr: 0x10055047C, symSize: 0x318 }
  - { offset: 0x1293FD, size: 0x8, addend: 0x0, symName: '__ZN4core3fmt5float50_$LT$impl$u20$core..fmt..Debug$u20$for$u20$f16$GT$3fmt17h749a798c4f58b622E', symObjAddr: 0x8968, symBinAddr: 0x100550794, symSize: 0x7C }
  - { offset: 0x1294C2, size: 0x8, addend: 0x0, symName: '__ZN4core3fmt5float50_$LT$impl$u20$core..fmt..Debug$u20$for$u20$f32$GT$3fmt17h78af10e6d0682bc8E', symObjAddr: 0x89E4, symBinAddr: 0x100550810, symSize: 0x78 }
  - { offset: 0x129570, size: 0x8, addend: 0x0, symName: '__ZN4core3fmt5float50_$LT$impl$u20$core..fmt..Debug$u20$for$u20$f64$GT$3fmt17he77028914ee1a27eE', symObjAddr: 0x8A5C, symBinAddr: 0x100550888, symSize: 0x88 }
  - { offset: 0x12960A, size: 0x8, addend: 0x0, symName: '__ZN4core3fmt5float52_$LT$impl$u20$core..fmt..Display$u20$for$u20$f16$GT$3fmt17h93186408be311c5fE', symObjAddr: 0x8AE4, symBinAddr: 0x100550910, symSize: 0x30 }
  - { offset: 0x129679, size: 0x8, addend: 0x0, symName: '__ZN4core3fmt5float52_$LT$impl$u20$core..fmt..Display$u20$for$u20$f32$GT$3fmt17h06f19fc0a5fb99b8E', symObjAddr: 0x8B14, symBinAddr: 0x100550940, symSize: 0x30 }
  - { offset: 0x1296E8, size: 0x8, addend: 0x0, symName: '__ZN4core3fmt5float52_$LT$impl$u20$core..fmt..Display$u20$for$u20$f64$GT$3fmt17hc2d66b4dc914ebe8E', symObjAddr: 0x8B44, symBinAddr: 0x100550970, symSize: 0x30 }
  - { offset: 0x129757, size: 0x8, addend: 0x0, symName: '__ZN4core3fmt5float53_$LT$impl$u20$core..fmt..LowerExp$u20$for$u20$f16$GT$3fmt17hb4cc51d0c87ce680E', symObjAddr: 0x8B74, symBinAddr: 0x1005509A0, symSize: 0x38 }
  - { offset: 0x1297BE, size: 0x8, addend: 0x0, symName: '__ZN4core3fmt5float53_$LT$impl$u20$core..fmt..LowerExp$u20$for$u20$f32$GT$3fmt17h44dd3e6b40cf63c0E', symObjAddr: 0x8BAC, symBinAddr: 0x1005509D8, symSize: 0x38 }
  - { offset: 0x129825, size: 0x8, addend: 0x0, symName: '__ZN4core3fmt5float53_$LT$impl$u20$core..fmt..LowerExp$u20$for$u20$f64$GT$3fmt17h54f6adcc679ce91fE', symObjAddr: 0x8BE4, symBinAddr: 0x100550A10, symSize: 0x38 }
  - { offset: 0x12987F, size: 0x8, addend: 0x0, symName: '__ZN4core3fmt5float53_$LT$impl$u20$core..fmt..UpperExp$u20$for$u20$f16$GT$3fmt17hc85aecf0a0129ae2E', symObjAddr: 0x8C1C, symBinAddr: 0x100550A48, symSize: 0x38 }
  - { offset: 0x1298D9, size: 0x8, addend: 0x0, symName: '__ZN4core3fmt5float53_$LT$impl$u20$core..fmt..UpperExp$u20$for$u20$f32$GT$3fmt17h7ca77dbc80a16db2E', symObjAddr: 0x8C54, symBinAddr: 0x100550A80, symSize: 0x38 }
  - { offset: 0x129933, size: 0x8, addend: 0x0, symName: '__ZN4core3fmt5float53_$LT$impl$u20$core..fmt..UpperExp$u20$for$u20$f64$GT$3fmt17hb32710d87e10c326E', symObjAddr: 0x8C8C, symBinAddr: 0x100550AB8, symSize: 0x38 }
  - { offset: 0x1299E6, size: 0x8, addend: 0x0, symName: __ZN4core3fmt5write17h164e2e78980a3344E, symObjAddr: 0x8CC4, symBinAddr: 0x100550AF0, symSize: 0x1E8 }
  - { offset: 0x129BC5, size: 0x8, addend: 0x0, symName: __ZN4core3fmt9Formatter12pad_integral12write_prefix17hb8ba5c49cdc42ad5E, symObjAddr: 0x9E20, symBinAddr: 0x100551C4C, symSize: 0x7C }
  - { offset: 0x129C4C, size: 0x8, addend: 0x0, symName: '__ZN52_$LT$$BP$const$u20$T$u20$as$u20$core..fmt..Debug$GT$3fmt17h13ca7a38573e6327E', symObjAddr: 0x17970, symBinAddr: 0x10055E734, symSize: 0xB8 }
  - { offset: 0x129D43, size: 0x8, addend: 0x0, symName: '__ZN53_$LT$core..fmt..Error$u20$as$u20$core..fmt..Debug$GT$3fmt17hdaf7e34180b4a8deE', symObjAddr: 0x17A28, symBinAddr: 0x10055E7EC, symSize: 0x18 }
  - { offset: 0x129D61, size: 0x8, addend: 0x0, symName: '__ZN53_$LT$core..fmt..Error$u20$as$u20$core..fmt..Debug$GT$3fmt17hdaf7e34180b4a8deE', symObjAddr: 0x17A28, symBinAddr: 0x10055E7EC, symSize: 0x18 }
  - { offset: 0x129D7A, size: 0x8, addend: 0x0, symName: '__ZN55_$LT$core..fmt..Error$u20$as$u20$core..fmt..Display$GT$3fmt17hd822287f9372898dE', symObjAddr: 0x17E9C, symBinAddr: 0x10055EC60, symSize: 0x14 }
  - { offset: 0x129DC1, size: 0x8, addend: 0x0, symName: '__ZN59_$LT$core..fmt..Arguments$u20$as$u20$core..fmt..Display$GT$3fmt17h52418a8a7efea083E', symObjAddr: 0x19064, symBinAddr: 0x10055FE28, symSize: 0xC }
  - { offset: 0x129DDC, size: 0x8, addend: 0x0, symName: '__ZN57_$LT$core..fmt..Arguments$u20$as$u20$core..fmt..Debug$GT$3fmt17hce9691be13f12a06E', symObjAddr: 0x183AC, symBinAddr: 0x10055F170, symSize: 0xC }
  - { offset: 0x12A165, size: 0x8, addend: 0x0, symName: __ZN4core6result13unwrap_failed17hecc7e6934498f5c2E, symObjAddr: 0x162A8, symBinAddr: 0x10059C3D0, symSize: 0x5C }
  - { offset: 0x12A1E4, size: 0x8, addend: 0x0, symName: '__ZN105_$LT$dyn$u20$core..any..Any$u2b$core..marker..Sync$u2b$core..marker..Send$u20$as$u20$core..fmt..Debug$GT$3fmt17h8b3e181f1529b25eE', symObjAddr: 0x16C, symBinAddr: 0x100548038, symSize: 0x6C }
  - { offset: 0x12A290, size: 0x8, addend: 0x0, symName: '__ZN54_$LT$core..any..TypeId$u20$as$u20$core..fmt..Debug$GT$3fmt17h9be3c05ad8c03fe4E', symObjAddr: 0x17E20, symBinAddr: 0x10055EBE4, symSize: 0x64 }
  - { offset: 0x12A2F3, size: 0x8, addend: 0x0, symName: '__ZN110_$LT$$LT$core..wtf8..EncodeWide$u20$as$u20$core..fmt..Debug$GT$..fmt..CodeUnit$u20$as$u20$core..fmt..Debug$GT$3fmt17h3dee84194825fa5aE', symObjAddr: 0x1D8, symBinAddr: 0x1005480A4, symSize: 0xA0 }
  - { offset: 0x12A39E, size: 0x8, addend: 0x0, symName: '__ZN59_$LT$core..wtf8..EncodeWide$u20$as$u20$core..fmt..Debug$GT$3fmt17h499ebed4917f00f9E', symObjAddr: 0x19670, symBinAddr: 0x100560434, symSize: 0x694 }
  - { offset: 0x12A7BA, size: 0x8, addend: 0x0, symName: __ZN4core4wtf816slice_error_fail17h694808db52158bfbE, symObjAddr: 0x15C50, symBinAddr: 0x10059C108, symSize: 0x8C }
  - { offset: 0x12A816, size: 0x8, addend: 0x0, symName: '__ZN53_$LT$core..wtf8..Wtf8$u20$as$u20$core..fmt..Debug$GT$3fmt17h4179e4f7d04b372cE', symObjAddr: 0x17A40, symBinAddr: 0x10055E804, symSize: 0x234 }
  - { offset: 0x12AAD6, size: 0x8, addend: 0x0, symName: '__ZN53_$LT$core..wtf8..Wtf8$u20$as$u20$core..fmt..Debug$GT$3fmt17write_str_escaped17hd4a95e6e3f20add5E', symObjAddr: 0x17C74, symBinAddr: 0x10055EA38, symSize: 0x1AC }
  - { offset: 0x12AD39, size: 0x8, addend: 0x0, symName: '__ZN55_$LT$core..wtf8..Wtf8$u20$as$u20$core..fmt..Display$GT$3fmt17h8700d02837d0b402E', symObjAddr: 0x17EB0, symBinAddr: 0x10055EC74, symSize: 0x1FC }
  - { offset: 0x12AFEC, size: 0x8, addend: 0x0, symName: '__ZN63_$LT$core..wtf8..Wtf8CodePoints$u20$as$u20$core..fmt..Debug$GT$3fmt17h880136fb80fc77acE', symObjAddr: 0x1A390, symBinAddr: 0x100561154, symSize: 0x138 }
  - { offset: 0x12B23C, size: 0x8, addend: 0x0, symName: '__ZN76_$LT$core..net..ip_addr..Ipv4Addr$u20$as$u20$core..ops..bit..BitOrAssign$GT$12bitor_assign17h319b6987a6ed6681E', symObjAddr: 0x1E284, symBinAddr: 0x100565048, symSize: 0x38 }
  - { offset: 0x12B26E, size: 0x8, addend: 0x0, symName: '__ZN116_$LT$core..net..ip_addr..Ipv4Addr$u20$as$u20$core..ops..bit..BitOrAssign$LT$$RF$core..net..ip_addr..Ipv4Addr$GT$$GT$12bitor_assign17h3e652afcf4965a4aE', symObjAddr: 0x278, symBinAddr: 0x100548144, symSize: 0x3C }
  - { offset: 0x12B2CC, size: 0x8, addend: 0x0, symName: '__ZN76_$LT$core..net..ip_addr..Ipv6Addr$u20$as$u20$core..ops..bit..BitOrAssign$GT$12bitor_assign17hc250aca631b9b64dE', symObjAddr: 0x1E2BC, symBinAddr: 0x100565080, symSize: 0x14 }
  - { offset: 0x12B2FE, size: 0x8, addend: 0x0, symName: '__ZN116_$LT$core..net..ip_addr..Ipv6Addr$u20$as$u20$core..ops..bit..BitOrAssign$LT$$RF$core..net..ip_addr..Ipv6Addr$GT$$GT$12bitor_assign17hfe557dfff687f7c0E', symObjAddr: 0x2B4, symBinAddr: 0x100548180, symSize: 0x14 }
  - { offset: 0x12B35C, size: 0x8, addend: 0x0, symName: '__ZN77_$LT$core..net..ip_addr..Ipv4Addr$u20$as$u20$core..ops..bit..BitAndAssign$GT$13bitand_assign17h745bb49f2bce1a84E', symObjAddr: 0x1E634, symBinAddr: 0x1005653F8, symSize: 0x38 }
  - { offset: 0x12B38E, size: 0x8, addend: 0x0, symName: '__ZN117_$LT$core..net..ip_addr..Ipv4Addr$u20$as$u20$core..ops..bit..BitAndAssign$LT$$RF$core..net..ip_addr..Ipv4Addr$GT$$GT$13bitand_assign17h6f12bff4943bc587E', symObjAddr: 0x2C8, symBinAddr: 0x100548194, symSize: 0x3C }
  - { offset: 0x12B3EC, size: 0x8, addend: 0x0, symName: '__ZN77_$LT$core..net..ip_addr..Ipv6Addr$u20$as$u20$core..ops..bit..BitAndAssign$GT$13bitand_assign17h6886364f5161ea0bE', symObjAddr: 0x1E66C, symBinAddr: 0x100565430, symSize: 0x14 }
  - { offset: 0x12B41E, size: 0x8, addend: 0x0, symName: '__ZN117_$LT$core..net..ip_addr..Ipv6Addr$u20$as$u20$core..ops..bit..BitAndAssign$LT$$RF$core..net..ip_addr..Ipv6Addr$GT$$GT$13bitand_assign17h52928ed9a7dc8b36E', symObjAddr: 0x304, symBinAddr: 0x1005481D0, symSize: 0x14 }
  - { offset: 0x12B46E, size: 0x8, addend: 0x0, symName: '__ZN4core3net6parser44_$LT$impl$u20$core..net..ip_addr..IpAddr$GT$11parse_ascii17h9dc6831924748ee5E', symObjAddr: 0xC0A4, symBinAddr: 0x100553E84, symSize: 0xB8 }
  - { offset: 0x12B545, size: 0x8, addend: 0x0, symName: '__ZN4core3net6parser46_$LT$impl$u20$core..net..ip_addr..Ipv4Addr$GT$11parse_ascii17h78b821353c471bf7E', symObjAddr: 0xC15C, symBinAddr: 0x100553F3C, symSize: 0x74 }
  - { offset: 0x12B5BF, size: 0x8, addend: 0x0, symName: '__ZN4core3net6parser46_$LT$impl$u20$core..net..ip_addr..Ipv6Addr$GT$11parse_ascii17h65869057d9dee171E', symObjAddr: 0xC1D0, symBinAddr: 0x100553FB0, symSize: 0x70 }
  - { offset: 0x12B693, size: 0x8, addend: 0x0, symName: '__ZN65_$LT$core..net..ip_addr..IpAddr$u20$as$u20$core..fmt..Display$GT$3fmt17hb734b5e59fb38c7bE', symObjAddr: 0x1A680, symBinAddr: 0x100561444, symSize: 0x14 }
  - { offset: 0x12B6AE, size: 0x8, addend: 0x0, symName: '__ZN63_$LT$core..net..ip_addr..IpAddr$u20$as$u20$core..fmt..Debug$GT$3fmt17hdcccc667fa10390fE', symObjAddr: 0x1A37C, symBinAddr: 0x100561140, symSize: 0x14 }
  - { offset: 0x12B6CD, size: 0x8, addend: 0x0, symName: '__ZN63_$LT$core..net..ip_addr..IpAddr$u20$as$u20$core..fmt..Debug$GT$3fmt17hdcccc667fa10390fE', symObjAddr: 0x1A37C, symBinAddr: 0x100561140, symSize: 0x14 }
  - { offset: 0x12B6E7, size: 0x8, addend: 0x0, symName: '__ZN65_$LT$core..net..ip_addr..Ipv4Addr$u20$as$u20$core..fmt..Debug$GT$3fmt17h06424b2dfe12cd64E', symObjAddr: 0x1A694, symBinAddr: 0x100561458, symSize: 0x4 }
  - { offset: 0x12B709, size: 0x8, addend: 0x0, symName: '__ZN65_$LT$core..net..ip_addr..Ipv6Addr$u20$as$u20$core..fmt..Debug$GT$3fmt17h2e3f710af04d6c44E', symObjAddr: 0x1A698, symBinAddr: 0x10056145C, symSize: 0x4 }
  - { offset: 0x12B72B, size: 0x8, addend: 0x0, symName: '__ZN67_$LT$core..net..ip_addr..Ipv4Addr$u20$as$u20$core..fmt..Display$GT$3fmt17h6513381b60885348E', symObjAddr: 0x1AD28, symBinAddr: 0x100561AEC, symSize: 0x148 }
  - { offset: 0x12B852, size: 0x8, addend: 0x0, symName: '__ZN67_$LT$core..net..ip_addr..Ipv6Addr$u20$as$u20$core..fmt..Display$GT$3fmt12fmt_subslice17h7bbbb9afa29b9285E', symObjAddr: 0x1AE70, symBinAddr: 0x100561C34, symSize: 0x10C }
  - { offset: 0x12B937, size: 0x8, addend: 0x0, symName: '__ZN67_$LT$core..net..ip_addr..Ipv6Addr$u20$as$u20$core..fmt..Display$GT$3fmt17hd9bd05e67defaa86E', symObjAddr: 0x1AF7C, symBinAddr: 0x100561D40, symSize: 0x718 }
  - { offset: 0x12BC98, size: 0x8, addend: 0x0, symName: '__ZN86_$LT$core..net..display_buffer..DisplayBuffer$LT$_$GT$$u20$as$u20$core..fmt..Write$GT$9write_str17h63f2e65f2d3e5331E', symObjAddr: 0x1F640, symBinAddr: 0x100566404, symSize: 0x50 }
  - { offset: 0x12BD38, size: 0x8, addend: 0x0, symName: '__ZN86_$LT$core..net..display_buffer..DisplayBuffer$LT$_$GT$$u20$as$u20$core..fmt..Write$GT$9write_str17h6a536cefeb78690eE', symObjAddr: 0x1F690, symBinAddr: 0x100566454, symSize: 0x50 }
  - { offset: 0x12BDD8, size: 0x8, addend: 0x0, symName: '__ZN86_$LT$core..net..display_buffer..DisplayBuffer$LT$_$GT$$u20$as$u20$core..fmt..Write$GT$9write_str17h8193d428e5cb9597E', symObjAddr: 0x1F6E0, symBinAddr: 0x1005664A4, symSize: 0x50 }
  - { offset: 0x12BE78, size: 0x8, addend: 0x0, symName: '__ZN86_$LT$core..net..display_buffer..DisplayBuffer$LT$_$GT$$u20$as$u20$core..fmt..Write$GT$9write_str17h9e97877d5d2c34dcE', symObjAddr: 0x1F730, symBinAddr: 0x1005664F4, symSize: 0x50 }
  - { offset: 0x12C144, size: 0x8, addend: 0x0, symName: __ZN4core3net6parser6Parser14read_ipv4_addr17hf1eb8bfd1756a1f2E, symObjAddr: 0xC7C4, symBinAddr: 0x1005545A4, symSize: 0x39C }
  - { offset: 0x12C375, size: 0x8, addend: 0x0, symName: __ZN4core3net6parser6Parser14read_ipv6_addr17hc0839af9db01d8b7E, symObjAddr: 0xCD5C, symBinAddr: 0x100554B3C, symSize: 0x140 }
  - { offset: 0x12C6A2, size: 0x8, addend: 0x0, symName: __ZN4core3net6parser6Parser19read_socket_addr_v617h83c27e2b249a0f1eE, symObjAddr: 0xCE9C, symBinAddr: 0x100554C7C, symSize: 0x1B8 }
  - { offset: 0x12CC92, size: 0x8, addend: 0x0, symName: '__ZN4core3net6parser6Parser11read_number28_$u7b$$u7b$closure$u7d$$u7d$17ha480f39391dd68dcE', symObjAddr: 0xC540, symBinAddr: 0x100554320, symSize: 0x284 }
  - { offset: 0x12CF06, size: 0x8, addend: 0x0, symName: __ZN4core3net6parser6Parser14read_ipv6_addr11read_groups17hb77959f975924e44E, symObjAddr: 0xCB60, symBinAddr: 0x100554940, symSize: 0x1FC }
  - { offset: 0x12D259, size: 0x8, addend: 0x0, symName: '__ZN4core3net6parser83_$LT$impl$u20$core..str..traits..FromStr$u20$for$u20$core..net..ip_addr..IpAddr$GT$8from_str17hb57081a9f421f200E', symObjAddr: 0xD054, symBinAddr: 0x100554E34, symSize: 0xB8 }
  - { offset: 0x12D340, size: 0x8, addend: 0x0, symName: '__ZN4core3net6parser85_$LT$impl$u20$core..str..traits..FromStr$u20$for$u20$core..net..ip_addr..Ipv4Addr$GT$8from_str17h0ac9c075953735ffE', symObjAddr: 0xD10C, symBinAddr: 0x100554EEC, symSize: 0x74 }
  - { offset: 0x12D3B3, size: 0x8, addend: 0x0, symName: '__ZN4core3net6parser85_$LT$impl$u20$core..str..traits..FromStr$u20$for$u20$core..net..ip_addr..Ipv6Addr$GT$8from_str17h7f84e0b17bc4d5c2E', symObjAddr: 0xD180, symBinAddr: 0x100554F60, symSize: 0x70 }
  - { offset: 0x12D43C, size: 0x8, addend: 0x0, symName: '__ZN4core3net6parser91_$LT$impl$u20$core..str..traits..FromStr$u20$for$u20$core..net..socket_addr..SocketAddr$GT$8from_str17hba518b0cef9c7f49E', symObjAddr: 0xD1F0, symBinAddr: 0x100554FD0, symSize: 0x4 }
  - { offset: 0x12D45E, size: 0x8, addend: 0x0, symName: '__ZN4core3net6parser93_$LT$impl$u20$core..str..traits..FromStr$u20$for$u20$core..net..socket_addr..SocketAddrV4$GT$8from_str17hd1c0c0980a13462aE', symObjAddr: 0xD1F4, symBinAddr: 0x100554FD4, symSize: 0xE8 }
  - { offset: 0x12D63A, size: 0x8, addend: 0x0, symName: '__ZN4core3net6parser93_$LT$impl$u20$core..str..traits..FromStr$u20$for$u20$core..net..socket_addr..SocketAddrV6$GT$8from_str17h18413e83363e37deE', symObjAddr: 0xD2DC, symBinAddr: 0x1005550BC, symSize: 0x6C }
  - { offset: 0x12D6C3, size: 0x8, addend: 0x0, symName: '__ZN72_$LT$core..net..parser..AddrParseError$u20$as$u20$core..fmt..Display$GT$3fmt17h0664cff71db8bbe7E', symObjAddr: 0x1D400, symBinAddr: 0x1005641C4, symSize: 0x28 }
  - { offset: 0x12D717, size: 0x8, addend: 0x0, symName: '__ZN4core3net6parser52_$LT$impl$u20$core..net..socket_addr..SocketAddr$GT$11parse_ascii17hd983f988ebdd8aedE', symObjAddr: 0xC240, symBinAddr: 0x100554020, symSize: 0x19C }
  - { offset: 0x12D950, size: 0x8, addend: 0x0, symName: '__ZN4core3net6parser54_$LT$impl$u20$core..net..socket_addr..SocketAddrV4$GT$11parse_ascii17haa1111df05d59e2fE', symObjAddr: 0xC3DC, symBinAddr: 0x1005541BC, symSize: 0xF8 }
  - { offset: 0x12DB48, size: 0x8, addend: 0x0, symName: '__ZN4core3net6parser54_$LT$impl$u20$core..net..socket_addr..SocketAddrV6$GT$11parse_ascii17ha51f4eb620f6c586E', symObjAddr: 0xC4D4, symBinAddr: 0x1005542B4, symSize: 0x6C }
  - { offset: 0x12DC07, size: 0x8, addend: 0x0, symName: '__ZN73_$LT$core..net..socket_addr..SocketAddr$u20$as$u20$core..fmt..Display$GT$3fmt17h873b0a6b9c27f03aE', symObjAddr: 0x1D650, symBinAddr: 0x100564414, symSize: 0x1C }
  - { offset: 0x12DC22, size: 0x8, addend: 0x0, symName: '__ZN71_$LT$core..net..socket_addr..SocketAddr$u20$as$u20$core..fmt..Debug$GT$3fmt17h747c3d39c66e8105E', symObjAddr: 0x1D21C, symBinAddr: 0x100563FE0, symSize: 0x1C }
  - { offset: 0x12DC41, size: 0x8, addend: 0x0, symName: '__ZN71_$LT$core..net..socket_addr..SocketAddr$u20$as$u20$core..fmt..Debug$GT$3fmt17h747c3d39c66e8105E', symObjAddr: 0x1D21C, symBinAddr: 0x100563FE0, symSize: 0x1C }
  - { offset: 0x12DC5B, size: 0x8, addend: 0x0, symName: '__ZN73_$LT$core..net..socket_addr..SocketAddrV4$u20$as$u20$core..fmt..Debug$GT$3fmt17h63f39eb4ff1a2821E', symObjAddr: 0x1D66C, symBinAddr: 0x100564430, symSize: 0x4 }
  - { offset: 0x12DC7D, size: 0x8, addend: 0x0, symName: '__ZN73_$LT$core..net..socket_addr..SocketAddrV6$u20$as$u20$core..fmt..Debug$GT$3fmt17h1e55c363e64a55edE', symObjAddr: 0x1D670, symBinAddr: 0x100564434, symSize: 0x4 }
  - { offset: 0x12DC9F, size: 0x8, addend: 0x0, symName: '__ZN75_$LT$core..net..socket_addr..SocketAddrV4$u20$as$u20$core..fmt..Display$GT$3fmt17heb4bdd312f955d99E', symObjAddr: 0x1DD18, symBinAddr: 0x100564ADC, symSize: 0x144 }
  - { offset: 0x12DE18, size: 0x8, addend: 0x0, symName: '__ZN75_$LT$core..net..socket_addr..SocketAddrV6$u20$as$u20$core..fmt..Display$GT$3fmt17hfe35cc387747a442E', symObjAddr: 0x1DE5C, symBinAddr: 0x100564C20, symSize: 0x230 }
  - { offset: 0x12E132, size: 0x8, addend: 0x0, symName: '__ZN59_$LT$core..str..iter..Chars$u20$as$u20$core..fmt..Debug$GT$3fmt17hd95539280ebdab96E', symObjAddr: 0x19070, symBinAddr: 0x10055FE34, symSize: 0x600 }
  - { offset: 0x12E65E, size: 0x8, addend: 0x0, symName: '__ZN65_$LT$core..str..iter..EncodeUtf16$u20$as$u20$core..fmt..Debug$GT$3fmt17h6a6dbb2b2a3a58e2E', symObjAddr: 0x1A69C, symBinAddr: 0x100561460, symSize: 0x6C }
  - { offset: 0x12E74B, size: 0x8, addend: 0x0, symName: '__ZN67_$LT$core..str..iter..EscapeDebug$u20$as$u20$core..fmt..Display$GT$3fmt17hc100f582bbb60a36E', symObjAddr: 0x1B748, symBinAddr: 0x10056250C, symSize: 0x808 }
  - { offset: 0x12F208, size: 0x8, addend: 0x0, symName: '__ZN69_$LT$core..str..iter..EscapeDefault$u20$as$u20$core..fmt..Display$GT$3fmt17h1d46e53d300c9175E', symObjAddr: 0x1C63C, symBinAddr: 0x100563400, symSize: 0x4A8 }
  - { offset: 0x12F7D7, size: 0x8, addend: 0x0, symName: '__ZN69_$LT$core..str..iter..EscapeUnicode$u20$as$u20$core..fmt..Display$GT$3fmt17habd7b2872749f9ddE', symObjAddr: 0x1CAE4, symBinAddr: 0x1005638A8, symSize: 0x35C }
  - { offset: 0x12FE34, size: 0x8, addend: 0x0, symName: __ZN4core3str6traits23str_index_overflow_fail17h5cc6bdbbf2fd3656E, symObjAddr: 0x14A50, symBinAddr: 0x10059BF24, symSize: 0x34 }
  - { offset: 0x12FEE7, size: 0x8, addend: 0x0, symName: '__ZN4core3str21_$LT$impl$u20$str$GT$12escape_debug17hae803f881ba46609E', symObjAddr: 0x13F50, symBinAddr: 0x10055BA98, symSize: 0xE4 }
  - { offset: 0x13002F, size: 0x8, addend: 0x0, symName: '__ZN4core3str21_$LT$impl$u20$str$GT$12substr_range17h423128f001191d61E', symObjAddr: 0x14034, symBinAddr: 0x10055BB7C, symSize: 0x2C }
  - { offset: 0x13005B, size: 0x8, addend: 0x0, symName: '__ZN4core3str21_$LT$impl$u20$str$GT$12substr_range17h423128f001191d61E', symObjAddr: 0x14034, symBinAddr: 0x10055BB7C, symSize: 0x2C }
  - { offset: 0x130085, size: 0x8, addend: 0x0, symName: '__ZN4core3str21_$LT$impl$u20$str$GT$13from_utf8_mut17h2b3a0a9c4235d831E', symObjAddr: 0x14060, symBinAddr: 0x10055BBA8, symSize: 0x4 }
  - { offset: 0x1300A0, size: 0x8, addend: 0x0, symName: '__ZN4core3str21_$LT$impl$u20$str$GT$22split_at_mut_unchecked17h44503090ba9a7dfaE', symObjAddr: 0x14064, symBinAddr: 0x10055BBAC, symSize: 0x14 }
  - { offset: 0x1300BF, size: 0x8, addend: 0x0, symName: '__ZN4core3str21_$LT$impl$u20$str$GT$22split_at_mut_unchecked17h44503090ba9a7dfaE', symObjAddr: 0x14064, symBinAddr: 0x10055BBAC, symSize: 0x14 }
  - { offset: 0x1300D2, size: 0x8, addend: 0x0, symName: '__ZN4core3str21_$LT$impl$u20$str$GT$9from_utf817hc2e257426992475bE', symObjAddr: 0x14078, symBinAddr: 0x10055BBC0, symSize: 0x4 }
  - { offset: 0x1301CA, size: 0x8, addend: 0x0, symName: __ZN4core3str5count14do_count_chars17h33e6469de2df7647E, symObjAddr: 0x1407C, symBinAddr: 0x10055BBC4, symSize: 0x72C }
  - { offset: 0x1305FE, size: 0x8, addend: 0x0, symName: __ZN4core3str5count23char_count_general_case17h75d98cb7073cf7deE, symObjAddr: 0x147A8, symBinAddr: 0x10055C2F0, symSize: 0x2A8 }
  - { offset: 0x1306AE, size: 0x8, addend: 0x0, symName: __ZN4core3str16slice_error_fail17he312d86f3b7ce317E, symObjAddr: 0x13CA4, symBinAddr: 0x10059BEE4, symSize: 0xC }
  - { offset: 0x1306C8, size: 0x8, addend: 0x0, symName: __ZN4core3str19slice_error_fail_ct17ha1cf0a375570a11dE, symObjAddr: 0x13CB0, symBinAddr: 0x10059BEF0, symSize: 0x34 }
  - { offset: 0x1306F8, size: 0x8, addend: 0x0, symName: __ZN4core3str19slice_error_fail_rt17h7ffac88431dff4f3E, symObjAddr: 0x13CE4, symBinAddr: 0x10055B82C, symSize: 0x26C }
  - { offset: 0x13088C, size: 0x8, addend: 0x0, symName: __ZN4core3str7pattern11StrSearcher3new17h365be42c5338e9efE, symObjAddr: 0x14A84, symBinAddr: 0x10055C598, symSize: 0x8B0 }
  - { offset: 0x130B38, size: 0x8, addend: 0x0, symName: __ZN4core3str8converts13from_utf8_mut17he15453225fd2bd5aE, symObjAddr: 0x15334, symBinAddr: 0x10055CE48, symSize: 0x274 }
  - { offset: 0x130B56, size: 0x8, addend: 0x0, symName: __ZN4core3str8converts13from_utf8_mut17he15453225fd2bd5aE, symObjAddr: 0x15334, symBinAddr: 0x10055CE48, symSize: 0x274 }
  - { offset: 0x130BBD, size: 0x8, addend: 0x0, symName: __ZN4core3str8converts9from_utf817h907df036b51c9b19E, symObjAddr: 0x155A8, symBinAddr: 0x10055D0BC, symSize: 0x274 }
  - { offset: 0x130BDB, size: 0x8, addend: 0x0, symName: __ZN4core3str8converts9from_utf817h907df036b51c9b19E, symObjAddr: 0x155A8, symBinAddr: 0x10055D0BC, symSize: 0x274 }
  - { offset: 0x130C5C, size: 0x8, addend: 0x0, symName: '__ZN60_$LT$core..str..lossy..Debug$u20$as$u20$core..fmt..Debug$GT$3fmt17ha4f002b02a8dc8c1E', symObjAddr: 0x19D2C, symBinAddr: 0x100560AF0, symSize: 0x360 }
  - { offset: 0x130F87, size: 0x8, addend: 0x0, symName: '__ZN65_$LT$core..str..lossy..Utf8Chunks$u20$as$u20$core..fmt..Debug$GT$3fmt17h8178ffa71c86f7e9E', symObjAddr: 0x1A708, symBinAddr: 0x1005614CC, symSize: 0xCC }
  - { offset: 0x1310AE, size: 0x8, addend: 0x0, symName: '__ZN87_$LT$core..str..lossy..Utf8Chunks$u20$as$u20$core..iter..traits..iterator..Iterator$GT$4next17h7c6935794b4bf75bE', symObjAddr: 0x1FB1C, symBinAddr: 0x1005668E0, symSize: 0x1C0 }
  - { offset: 0x1312D5, size: 0x8, addend: 0x0, symName: '__ZN66_$LT$core..str..error..Utf8Error$u20$as$u20$core..fmt..Display$GT$3fmt17h7929e0cdec4892caE', symObjAddr: 0x1A8D0, symBinAddr: 0x100561694, symSize: 0x8C }
  - { offset: 0x13133B, size: 0x8, addend: 0x0, symName: '__ZN71_$LT$core..str..error..ParseBoolError$u20$as$u20$core..fmt..Display$GT$3fmt17h3a0286f1bc5f85d8E', symObjAddr: 0x1D2E4, symBinAddr: 0x1005640A8, symSize: 0x14 }
  - { offset: 0x1314CB, size: 0x8, addend: 0x0, symName: '__ZN46_$LT$i8$u20$as$u20$core..pat..RangePattern$GT$7sub_one17h75499b30041e5e3fE', symObjAddr: 0xBFC, symBinAddr: 0x100548AC8, symSize: 0x48 }
  - { offset: 0x131544, size: 0x8, addend: 0x0, symName: '__ZN46_$LT$u8$u20$as$u20$core..pat..RangePattern$GT$7sub_one17h621f34a0f01ed8ccE', symObjAddr: 0xC44, symBinAddr: 0x100548B10, symSize: 0x40 }
  - { offset: 0x131590, size: 0x8, addend: 0x0, symName: '__ZN47_$LT$i16$u20$as$u20$core..pat..RangePattern$GT$7sub_one17h7cae3d90d78e368aE', symObjAddr: 0xC84, symBinAddr: 0x100548B50, symSize: 0x48 }
  - { offset: 0x131609, size: 0x8, addend: 0x0, symName: '__ZN47_$LT$i32$u20$as$u20$core..pat..RangePattern$GT$7sub_one17ha0c38f00ee5649daE', symObjAddr: 0xCCC, symBinAddr: 0x100548B98, symSize: 0x3C }
  - { offset: 0x131627, size: 0x8, addend: 0x0, symName: '__ZN47_$LT$i32$u20$as$u20$core..pat..RangePattern$GT$7sub_one17ha0c38f00ee5649daE', symObjAddr: 0xCCC, symBinAddr: 0x100548B98, symSize: 0x3C }
  - { offset: 0x13163C, size: 0x8, addend: 0x0, symName: '__ZN47_$LT$i32$u20$as$u20$core..pat..RangePattern$GT$7sub_one17ha0c38f00ee5649daE', symObjAddr: 0xCCC, symBinAddr: 0x100548B98, symSize: 0x3C }
  - { offset: 0x131682, size: 0x8, addend: 0x0, symName: '__ZN47_$LT$i64$u20$as$u20$core..pat..RangePattern$GT$7sub_one17h2fc531abaae58915E', symObjAddr: 0xD08, symBinAddr: 0x100548BD4, symSize: 0x3C }
  - { offset: 0x1316A0, size: 0x8, addend: 0x0, symName: '__ZN47_$LT$i64$u20$as$u20$core..pat..RangePattern$GT$7sub_one17h2fc531abaae58915E', symObjAddr: 0xD08, symBinAddr: 0x100548BD4, symSize: 0x3C }
  - { offset: 0x1316B5, size: 0x8, addend: 0x0, symName: '__ZN47_$LT$i64$u20$as$u20$core..pat..RangePattern$GT$7sub_one17h2fc531abaae58915E', symObjAddr: 0xD08, symBinAddr: 0x100548BD4, symSize: 0x3C }
  - { offset: 0x1316FB, size: 0x8, addend: 0x0, symName: '__ZN47_$LT$u16$u20$as$u20$core..pat..RangePattern$GT$7sub_one17h57f8efd062d04b8eE', symObjAddr: 0xD44, symBinAddr: 0x100548C10, symSize: 0x40 }
  - { offset: 0x131747, size: 0x8, addend: 0x0, symName: '__ZN47_$LT$u32$u20$as$u20$core..pat..RangePattern$GT$7sub_one17h3581a25d737ffa1dE', symObjAddr: 0xD84, symBinAddr: 0x100548C50, symSize: 0x3C }
  - { offset: 0x131765, size: 0x8, addend: 0x0, symName: '__ZN47_$LT$u32$u20$as$u20$core..pat..RangePattern$GT$7sub_one17h3581a25d737ffa1dE', symObjAddr: 0xD84, symBinAddr: 0x100548C50, symSize: 0x3C }
  - { offset: 0x131793, size: 0x8, addend: 0x0, symName: '__ZN47_$LT$u64$u20$as$u20$core..pat..RangePattern$GT$7sub_one17h5c51f698bcf46cb4E', symObjAddr: 0xDC0, symBinAddr: 0x100548C8C, symSize: 0x3C }
  - { offset: 0x1317B1, size: 0x8, addend: 0x0, symName: '__ZN47_$LT$u64$u20$as$u20$core..pat..RangePattern$GT$7sub_one17h5c51f698bcf46cb4E', symObjAddr: 0xDC0, symBinAddr: 0x100548C8C, symSize: 0x3C }
  - { offset: 0x1317DF, size: 0x8, addend: 0x0, symName: '__ZN48_$LT$char$u20$as$u20$core..pat..RangePattern$GT$7sub_one17hc81a5e81a2334ebaE', symObjAddr: 0xDFC, symBinAddr: 0x100548CC8, symSize: 0x54 }
  - { offset: 0x131857, size: 0x8, addend: 0x0, symName: '__ZN48_$LT$i128$u20$as$u20$core..pat..RangePattern$GT$7sub_one17h0a219681591ab913E', symObjAddr: 0xE50, symBinAddr: 0x100548D1C, symSize: 0x4C }
  - { offset: 0x131875, size: 0x8, addend: 0x0, symName: '__ZN48_$LT$i128$u20$as$u20$core..pat..RangePattern$GT$7sub_one17h0a219681591ab913E', symObjAddr: 0xE50, symBinAddr: 0x100548D1C, symSize: 0x4C }
  - { offset: 0x13188A, size: 0x8, addend: 0x0, symName: '__ZN48_$LT$i128$u20$as$u20$core..pat..RangePattern$GT$7sub_one17h0a219681591ab913E', symObjAddr: 0xE50, symBinAddr: 0x100548D1C, symSize: 0x4C }
  - { offset: 0x1318D0, size: 0x8, addend: 0x0, symName: '__ZN48_$LT$u128$u20$as$u20$core..pat..RangePattern$GT$7sub_one17h678e43260ad3ebc5E', symObjAddr: 0xE9C, symBinAddr: 0x100548D68, symSize: 0x4C }
  - { offset: 0x1318EE, size: 0x8, addend: 0x0, symName: '__ZN48_$LT$u128$u20$as$u20$core..pat..RangePattern$GT$7sub_one17h678e43260ad3ebc5E', symObjAddr: 0xE9C, symBinAddr: 0x100548D68, symSize: 0x4C }
  - { offset: 0x13192F, size: 0x8, addend: 0x0, symName: '__ZN4core3f3221_$LT$impl$u20$f32$GT$5clamp8do_panic7runtime17hd06766dd3cd120fdE', symObjAddr: 0xF20, symBinAddr: 0x10059BBA0, symSize: 0x50 }
  - { offset: 0x1319B5, size: 0x8, addend: 0x0, symName: '__ZN4core3f6421_$LT$impl$u20$f64$GT$5clamp8do_panic7runtime17hd4cc6b2dd4145831E', symObjAddr: 0xF70, symBinAddr: 0x10059BBF0, symSize: 0x50 }
  - { offset: 0x131A27, size: 0x8, addend: 0x0, symName: __ZN4core3ffi5c_str4CStr19from_bytes_with_nul17h1961d7e667fc8bd9E, symObjAddr: 0xFC0, symBinAddr: 0x100548DEC, symSize: 0xF0 }
  - { offset: 0x131A46, size: 0x8, addend: 0x0, symName: __ZN4core3ffi5c_str4CStr19from_bytes_with_nul17h1961d7e667fc8bd9E, symObjAddr: 0xFC0, symBinAddr: 0x100548DEC, symSize: 0xF0 }
  - { offset: 0x131B31, size: 0x8, addend: 0x0, symName: __ZN4core3ffi5c_str4CStr20from_bytes_until_nul17h0e73c37e5eb973baE, symObjAddr: 0x10B0, symBinAddr: 0x100548EDC, symSize: 0xDC }
  - { offset: 0x131C40, size: 0x8, addend: 0x0, symName: __ZN4core3ffi5c_str4CStr6to_str17h53f289478bd78a24E, symObjAddr: 0x118C, symBinAddr: 0x100548FB8, symSize: 0x8 }
  - { offset: 0x131C5F, size: 0x8, addend: 0x0, symName: __ZN4core3ffi5c_str4CStr6to_str17h53f289478bd78a24E, symObjAddr: 0x118C, symBinAddr: 0x100548FB8, symSize: 0x8 }
  - { offset: 0x131C87, size: 0x8, addend: 0x0, symName: '__ZN59_$LT$core..ffi..c_str..CStr$u20$as$u20$core..fmt..Debug$GT$3fmt17hc885347dec3a68a7E', symObjAddr: 0x1905C, symBinAddr: 0x10055FE20, symSize: 0x8 }
  - { offset: 0x131CA5, size: 0x8, addend: 0x0, symName: '__ZN59_$LT$core..ffi..c_str..CStr$u20$as$u20$core..fmt..Debug$GT$3fmt17hc885347dec3a68a7E', symObjAddr: 0x1905C, symBinAddr: 0x10055FE20, symSize: 0x8 }
  - { offset: 0x131CBE, size: 0x8, addend: 0x0, symName: '__ZN78_$LT$core..ffi..c_str..FromBytesWithNulError$u20$as$u20$core..fmt..Display$GT$3fmt17h4cc6f34f38edd316E', symObjAddr: 0x1E794, symBinAddr: 0x100565558, symSize: 0x78 }
  - { offset: 0x131D1B, size: 0x8, addend: 0x0, symName: '__ZN79_$LT$core..ffi..c_str..FromBytesUntilNulError$u20$as$u20$core..fmt..Display$GT$3fmt17h8c74597791471119E', symObjAddr: 0x1E834, symBinAddr: 0x1005655F8, symSize: 0x18 }
  - { offset: 0x131D54, size: 0x8, addend: 0x0, symName: '__ZN54_$LT$core..ffi..c_void$u20$as$u20$core..fmt..Debug$GT$3fmt17h0bc886333399db77E', symObjAddr: 0x17E84, symBinAddr: 0x10055EC48, symSize: 0x18 }
  - { offset: 0x131D72, size: 0x8, addend: 0x0, symName: '__ZN54_$LT$core..ffi..c_void$u20$as$u20$core..fmt..Debug$GT$3fmt17h0bc886333399db77E', symObjAddr: 0x17E84, symBinAddr: 0x10055EC48, symSize: 0x18 }
  - { offset: 0x131D87, size: 0x8, addend: 0x0, symName: '__ZN54_$LT$core..ffi..c_void$u20$as$u20$core..fmt..Debug$GT$3fmt17h0bc886333399db77E', symObjAddr: 0x17E84, symBinAddr: 0x10055EC48, symSize: 0x18 }
  - { offset: 0x131D9D, size: 0x8, addend: 0x0, symName: '__ZN54_$LT$core..ffi..c_void$u20$as$u20$core..fmt..Debug$GT$3fmt17h0bc886333399db77E', symObjAddr: 0x17E84, symBinAddr: 0x10055EC48, symSize: 0x18 }
  - { offset: 0x131DBE, size: 0x8, addend: 0x0, symName: '__ZN67_$LT$core..ffi..va_list..VaListImpl$u20$as$u20$core..fmt..Debug$GT$3fmt17h2d6363efe072c469E', symObjAddr: 0x1ACDC, symBinAddr: 0x100561AA0, symSize: 0x4C }
  - { offset: 0x131ECA, size: 0x8, addend: 0x0, symName: '__ZN69_$LT$core..ffi..c_str..CStr$u20$as$u20$core..clone..CloneToUninit$GT$15clone_to_uninit17h5b60587bc2aa916eE', symObjAddr: 0x1C478, symBinAddr: 0x10056323C, symSize: 0x14 }
  - { offset: 0x131F4A, size: 0x8, addend: 0x0, symName: __ZN4core4cell22panic_already_borrowed8do_panic7runtime17h75f4247cf40d346fE, symObjAddr: 0x15828, symBinAddr: 0x10059BF64, symSize: 0x44 }
  - { offset: 0x131F7E, size: 0x8, addend: 0x0, symName: __ZN4core4cell22panic_already_borrowed17h4fa42f1e3626b259E, symObjAddr: 0x1581C, symBinAddr: 0x10059BF58, symSize: 0xC }
  - { offset: 0x131FC8, size: 0x8, addend: 0x0, symName: __ZN4core4cell30panic_already_mutably_borrowed8do_panic7runtime17hcd0a801fe1b5362fE, symObjAddr: 0x15878, symBinAddr: 0x10059BFB4, symSize: 0x44 }
  - { offset: 0x131FFC, size: 0x8, addend: 0x0, symName: __ZN4core4cell30panic_already_mutably_borrowed17hd8b9067969a6f752E, symObjAddr: 0x1586C, symBinAddr: 0x10059BFA8, symSize: 0xC }
  - { offset: 0x132033, size: 0x8, addend: 0x0, symName: __ZN4core4cell4lazy14panic_poisoned17h4ea4865d55e230d6E, symObjAddr: 0x158BC, symBinAddr: 0x10059BFF8, symSize: 0x38 }
  - { offset: 0x13206C, size: 0x8, addend: 0x0, symName: '__ZN62_$LT$core..cell..BorrowError$u20$as$u20$core..fmt..Display$GT$3fmt17h80f4a626dd81473dE', symObjAddr: 0x1A190, symBinAddr: 0x100560F54, symSize: 0x14 }
  - { offset: 0x1320A5, size: 0x8, addend: 0x0, symName: '__ZN65_$LT$core..cell..BorrowMutError$u20$as$u20$core..fmt..Display$GT$3fmt17h778e10d6fba8f374E', symObjAddr: 0x1A66C, symBinAddr: 0x100561430, symSize: 0x14 }
  - { offset: 0x1320F9, size: 0x8, addend: 0x0, symName: __ZN4core7unicode12unicode_data15grapheme_extend11lookup_slow17hf7d326cb6e780d1eE, symObjAddr: 0x16848, symBinAddr: 0x10055DE88, symSize: 0x108 }
  - { offset: 0x1323A0, size: 0x8, addend: 0x0, symName: __ZN4core7unicode12unicode_data10alphabetic11lookup_slow17hdcd9a417aa69b51cE, symObjAddr: 0x16304, symBinAddr: 0x10055D944, symSize: 0x108 }
  - { offset: 0x13253B, size: 0x8, addend: 0x0, symName: __ZN4core7unicode12unicode_data11conversions8to_lower17h837192fa34f39920E, symObjAddr: 0x1640C, symBinAddr: 0x10055DA4C, symSize: 0x188 }
  - { offset: 0x132688, size: 0x8, addend: 0x0, symName: __ZN4core7unicode12unicode_data11conversions8to_upper17h35e09a3ccd8924edE, symObjAddr: 0x16594, symBinAddr: 0x10055DBD4, symSize: 0x1A8 }
  - { offset: 0x132812, size: 0x8, addend: 0x0, symName: __ZN4core7unicode12unicode_data14case_ignorable11lookup_slow17h29db2c3efd971bdeE, symObjAddr: 0x1673C, symBinAddr: 0x10055DD7C, symSize: 0x10C }
  - { offset: 0x1329B4, size: 0x8, addend: 0x0, symName: __ZN4core7unicode12unicode_data1n11lookup_slow17hda2398d1e0f6b165E, symObjAddr: 0x16950, symBinAddr: 0x10055DF90, symSize: 0x108 }
  - { offset: 0x132B49, size: 0x8, addend: 0x0, symName: __ZN4core7unicode12unicode_data5cased11lookup_slow17h83bed5ab734a8770E, symObjAddr: 0x16A58, symBinAddr: 0x10055E098, symSize: 0xF4 }
  - { offset: 0x132B68, size: 0x8, addend: 0x0, symName: __ZN4core7unicode12unicode_data5cased11lookup_slow17h83bed5ab734a8770E, symObjAddr: 0x16A58, symBinAddr: 0x10055E098, symSize: 0xF4 }
  - { offset: 0x132CDE, size: 0x8, addend: 0x0, symName: __ZN4core7unicode12unicode_data9lowercase6lookup17ha330a06267f89cc0E, symObjAddr: 0x16B4C, symBinAddr: 0x10055E18C, symSize: 0x10C }
  - { offset: 0x132D31, size: 0x8, addend: 0x0, symName: __ZN4core7unicode12unicode_data9uppercase6lookup17h48b26070e7d1a2dfE, symObjAddr: 0x16C58, symBinAddr: 0x10055E298, symSize: 0x10C }
  - { offset: 0x132D85, size: 0x8, addend: 0x0, symName: __ZN4core7unicode9printable12is_printable17h2646e2e575849d73E, symObjAddr: 0x16D64, symBinAddr: 0x10055E3A4, symSize: 0x2E4 }
  - { offset: 0x13304A, size: 0x8, addend: 0x0, symName: __ZN4core5alloc6layout6Layout19is_size_align_valid17h7e53a514873591cbE, symObjAddr: 0x15CDC, symBinAddr: 0x10055D5B4, symSize: 0x20 }
  - { offset: 0x133068, size: 0x8, addend: 0x0, symName: __ZN4core5alloc6layout6Layout19is_size_align_valid17h7e53a514873591cbE, symObjAddr: 0x15CDC, symBinAddr: 0x10055D5B4, symSize: 0x20 }
  - { offset: 0x133081, size: 0x8, addend: 0x0, symName: '__ZN71_$LT$core..alloc..layout..LayoutError$u20$as$u20$core..fmt..Display$GT$3fmt17h6f1da613d1c7c78dE', symObjAddr: 0x1D0A4, symBinAddr: 0x100563E68, symSize: 0x18 }
  - { offset: 0x1330A0, size: 0x8, addend: 0x0, symName: '__ZN71_$LT$core..alloc..layout..LayoutError$u20$as$u20$core..fmt..Display$GT$3fmt17h6f1da613d1c7c78dE', symObjAddr: 0x1D0A4, symBinAddr: 0x100563E68, symSize: 0x18 }
  - { offset: 0x1330BB, size: 0x8, addend: 0x0, symName: '__ZN62_$LT$core..alloc..AllocError$u20$as$u20$core..fmt..Display$GT$3fmt17hefb5558369c01f0cE', symObjAddr: 0x1A178, symBinAddr: 0x100560F3C, symSize: 0x18 }
  - { offset: 0x1330D9, size: 0x8, addend: 0x0, symName: '__ZN62_$LT$core..alloc..AllocError$u20$as$u20$core..fmt..Display$GT$3fmt17hefb5558369c01f0cE', symObjAddr: 0x1A178, symBinAddr: 0x100560F3C, symSize: 0x18 }
  - { offset: 0x133107, size: 0x8, addend: 0x0, symName: __ZN4core9panicking11panic_const23panic_const_div_by_zero17hc8ccfb6d43a5a054E, symObjAddr: 0x17048, symBinAddr: 0x10059C42C, symSize: 0x34 }
  - { offset: 0x133137, size: 0x8, addend: 0x0, symName: __ZN4core9panicking11panic_const23panic_const_gen_fn_none17heb4886738a721060E, symObjAddr: 0x1707C, symBinAddr: 0x10059C460, symSize: 0x34 }
  - { offset: 0x133167, size: 0x8, addend: 0x0, symName: __ZN4core9panicking11panic_const23panic_const_rem_by_zero17h949d2d238097b6ddE, symObjAddr: 0x170B0, symBinAddr: 0x10059C494, symSize: 0x34 }
  - { offset: 0x133197, size: 0x8, addend: 0x0, symName: __ZN4core9panicking11panic_const24panic_const_add_overflow17hd311d6fac02399b8E, symObjAddr: 0x170E4, symBinAddr: 0x10059C4C8, symSize: 0x34 }
  - { offset: 0x1331C7, size: 0x8, addend: 0x0, symName: __ZN4core9panicking11panic_const24panic_const_div_overflow17h9f7177e2872f0abcE, symObjAddr: 0x17118, symBinAddr: 0x10059C4FC, symSize: 0x34 }
  - { offset: 0x1331F7, size: 0x8, addend: 0x0, symName: __ZN4core9panicking11panic_const24panic_const_mul_overflow17hcccb4036d3bffdd4E, symObjAddr: 0x1714C, symBinAddr: 0x10059C530, symSize: 0x34 }
  - { offset: 0x133227, size: 0x8, addend: 0x0, symName: __ZN4core9panicking11panic_const24panic_const_neg_overflow17hd6b293d7d02804eaE, symObjAddr: 0x17180, symBinAddr: 0x10059C564, symSize: 0x34 }
  - { offset: 0x133257, size: 0x8, addend: 0x0, symName: __ZN4core9panicking11panic_const24panic_const_rem_overflow17hf0505062c06c49c1E, symObjAddr: 0x171B4, symBinAddr: 0x10059C598, symSize: 0x34 }
  - { offset: 0x133287, size: 0x8, addend: 0x0, symName: __ZN4core9panicking11panic_const24panic_const_shl_overflow17habff6a278fffa738E, symObjAddr: 0x171E8, symBinAddr: 0x10059C5CC, symSize: 0x34 }
  - { offset: 0x1332B7, size: 0x8, addend: 0x0, symName: __ZN4core9panicking11panic_const24panic_const_shr_overflow17h9535273100a1e495E, symObjAddr: 0x1721C, symBinAddr: 0x10059C600, symSize: 0x34 }
  - { offset: 0x1332E7, size: 0x8, addend: 0x0, symName: __ZN4core9panicking11panic_const24panic_const_sub_overflow17h81acd64f4a1c4371E, symObjAddr: 0x17250, symBinAddr: 0x10059C634, symSize: 0x34 }
  - { offset: 0x133317, size: 0x8, addend: 0x0, symName: __ZN4core9panicking11panic_const28panic_const_async_fn_resumed17h86a73eab4bf9906aE, symObjAddr: 0x17284, symBinAddr: 0x10059C668, symSize: 0x34 }
  - { offset: 0x133347, size: 0x8, addend: 0x0, symName: __ZN4core9panicking11panic_const28panic_const_gen_fn_none_drop17h4e53ea84f3d6ba37E, symObjAddr: 0x172B8, symBinAddr: 0x10059C69C, symSize: 0x34 }
  - { offset: 0x133377, size: 0x8, addend: 0x0, symName: __ZN4core9panicking11panic_const29panic_const_coroutine_resumed17h3cf9feea66fc0491E, symObjAddr: 0x172EC, symBinAddr: 0x10059C6D0, symSize: 0x34 }
  - { offset: 0x1333A7, size: 0x8, addend: 0x0, symName: __ZN4core9panicking11panic_const29panic_const_gen_fn_none_panic17h1d3e5c519b922f71E, symObjAddr: 0x17320, symBinAddr: 0x10059C704, symSize: 0x34 }
  - { offset: 0x1333D7, size: 0x8, addend: 0x0, symName: __ZN4core9panicking11panic_const32panic_const_async_gen_fn_resumed17hec3054ec841e2bfdE, symObjAddr: 0x17354, symBinAddr: 0x10059C738, symSize: 0x34 }
  - { offset: 0x133407, size: 0x8, addend: 0x0, symName: __ZN4core9panicking11panic_const33panic_const_async_fn_resumed_drop17h55506ec3d424b283E, symObjAddr: 0x17388, symBinAddr: 0x10059C76C, symSize: 0x34 }
  - { offset: 0x133437, size: 0x8, addend: 0x0, symName: __ZN4core9panicking11panic_const34panic_const_async_fn_resumed_panic17h7959ccefc31200c7E, symObjAddr: 0x173BC, symBinAddr: 0x10059C7A0, symSize: 0x34 }
  - { offset: 0x133467, size: 0x8, addend: 0x0, symName: __ZN4core9panicking11panic_const34panic_const_coroutine_resumed_drop17h291b98032d74832cE, symObjAddr: 0x173F0, symBinAddr: 0x10059C7D4, symSize: 0x34 }
  - { offset: 0x133497, size: 0x8, addend: 0x0, symName: __ZN4core9panicking11panic_const35panic_const_coroutine_resumed_panic17haadaecd82d17bc79E, symObjAddr: 0x17424, symBinAddr: 0x10059C808, symSize: 0x34 }
  - { offset: 0x1334C7, size: 0x8, addend: 0x0, symName: __ZN4core9panicking11panic_const37panic_const_async_gen_fn_resumed_drop17h9be3540698094bd7E, symObjAddr: 0x17458, symBinAddr: 0x10059C83C, symSize: 0x34 }
  - { offset: 0x1334F7, size: 0x8, addend: 0x0, symName: __ZN4core9panicking11panic_const38panic_const_async_gen_fn_resumed_panic17h7cc90c9d7e4f4486E, symObjAddr: 0x1748C, symBinAddr: 0x10059C870, symSize: 0x34 }
  - { offset: 0x133528, size: 0x8, addend: 0x0, symName: __ZN4core9panicking13assert_failed17h3185fe20b6b360a6E, symObjAddr: 0x174C0, symBinAddr: 0x10059C8A4, symSize: 0x24 }
  - { offset: 0x133543, size: 0x8, addend: 0x0, symName: __ZN4core9panicking13assert_failed17h34abf6781a632a2bE, symObjAddr: 0x174E4, symBinAddr: 0x10059C8C8, symSize: 0x24 }
  - { offset: 0x13355E, size: 0x8, addend: 0x0, symName: __ZN4core9panicking13assert_failed17hae7772335a475aaaE, symObjAddr: 0x17508, symBinAddr: 0x10059C8EC, symSize: 0x24 }
  - { offset: 0x133579, size: 0x8, addend: 0x0, symName: __ZN4core9panicking14panic_nounwind17h6b2e5f463f7678f3E, symObjAddr: 0x1752C, symBinAddr: 0x10059C910, symSize: 0x3C }
  - { offset: 0x1335B7, size: 0x8, addend: 0x0, symName: __ZN4core9panicking15const_panic_fmt17h6ed74755d4bd64e2E, symObjAddr: 0x17568, symBinAddr: 0x10059C94C, symSize: 0x64 }
  - { offset: 0x1335D6, size: 0x8, addend: 0x0, symName: __ZN4core9panicking15const_panic_fmt17h6ed74755d4bd64e2E, symObjAddr: 0x17568, symBinAddr: 0x10059C94C, symSize: 0x64 }
  - { offset: 0x133617, size: 0x8, addend: 0x0, symName: __ZN4core9panicking16panic_in_cleanup17h0018177c7013b04bE, symObjAddr: 0x175CC, symBinAddr: 0x10059C9B0, symSize: 0x18 }
  - { offset: 0x133632, size: 0x8, addend: 0x0, symName: __ZN4core9panicking18panic_bounds_check17hc44da13ec084d376E, symObjAddr: 0x175E4, symBinAddr: 0x10059C9C8, symSize: 0x50 }
  - { offset: 0x13367A, size: 0x8, addend: 0x0, symName: __ZN4core9panicking18panic_nounwind_fmt17hbccf1478dcdd0d51E, symObjAddr: 0x17634, symBinAddr: 0x10059CA18, symSize: 0x3C }
  - { offset: 0x1336C1, size: 0x8, addend: 0x0, symName: __ZN4core9panicking19assert_failed_inner17hfb93774e4aca671fE, symObjAddr: 0x17670, symBinAddr: 0x10059CA54, symSize: 0xE4 }
  - { offset: 0x13370B, size: 0x8, addend: 0x0, symName: __ZN4core9panicking19panic_cannot_unwind17hf78649432160e0dbE, symObjAddr: 0x17754, symBinAddr: 0x10059CB38, symSize: 0x18 }
  - { offset: 0x133726, size: 0x8, addend: 0x0, symName: __ZN4core9panicking26panic_nounwind_nobacktrace17h251dcd38966d0e56E, symObjAddr: 0x1776C, symBinAddr: 0x10059CB50, symSize: 0x3C }
  - { offset: 0x133756, size: 0x8, addend: 0x0, symName: __ZN4core9panicking30panic_null_pointer_dereference17hbebff28f897c8ef8E, symObjAddr: 0x177A8, symBinAddr: 0x10059CB8C, symSize: 0x38 }
  - { offset: 0x133788, size: 0x8, addend: 0x0, symName: __ZN4core9panicking31panic_invalid_enum_construction17hf392ebe13a573af1E, symObjAddr: 0x177E0, symBinAddr: 0x10059CBC4, symSize: 0x44 }
  - { offset: 0x1337BB, size: 0x8, addend: 0x0, symName: __ZN4core9panicking36panic_misaligned_pointer_dereference17ha8da1343d5a4e024E, symObjAddr: 0x17824, symBinAddr: 0x10059CC08, symSize: 0x4C }
  - { offset: 0x1337EE, size: 0x8, addend: 0x0, symName: __ZN4core9panicking5panic17h4a3c64c65dc98033E, symObjAddr: 0x17870, symBinAddr: 0x10059CC54, symSize: 0x34 }
  - { offset: 0x13381E, size: 0x8, addend: 0x0, symName: __ZN4core9panicking9panic_fmt17hfe9cfd57c06d80d9E, symObjAddr: 0x178A4, symBinAddr: 0x10059CC88, symSize: 0x20 }
  - { offset: 0x13385A, size: 0x8, addend: 0x0, symName: '__ZN84_$LT$core..panicking..assert_matches_failed..Pattern$u20$as$u20$core..fmt..Debug$GT$3fmt17h9266958943b18d99E', symObjAddr: 0x1EBF0, symBinAddr: 0x1005659B4, symSize: 0x14 }
  - { offset: 0x1338D7, size: 0x8, addend: 0x0, symName: '__ZN73_$LT$core..panic..panic_info..PanicInfo$u20$as$u20$core..fmt..Display$GT$3fmt17h4d7f18ee42d7a327E', symObjAddr: 0x1D738, symBinAddr: 0x1005644FC, symSize: 0xFC }
  - { offset: 0x133A1B, size: 0x8, addend: 0x0, symName: '__ZN68_$LT$core..panic..location..Location$u20$as$u20$core..fmt..Debug$GT$3fmt17h40de3065a54d8108E', symObjAddr: 0x1C260, symBinAddr: 0x100563024, symSize: 0x10C }
  - { offset: 0x133B75, size: 0x8, addend: 0x0, symName: '__ZN73_$LT$core..panic..location..Location$u20$as$u20$core..cmp..PartialOrd$GT$11partial_cmp17h3c653c427a25552aE', symObjAddr: 0x1D69C, symBinAddr: 0x100564460, symSize: 0x9C }
  - { offset: 0x133CEE, size: 0x8, addend: 0x0, symName: '__ZN56_$LT$core..bstr..ByteStr$u20$as$u20$core..fmt..Debug$GT$3fmt17h6ff8473a16355ddbE', symObjAddr: 0x180AC, symBinAddr: 0x10055EE70, symSize: 0x294 }
  - { offset: 0x133F99, size: 0x8, addend: 0x0, symName: '__ZN58_$LT$core..bstr..ByteStr$u20$as$u20$core..fmt..Display$GT$3fmt17h1dacf55f99fdeb2dE', symObjAddr: 0x18C20, symBinAddr: 0x10055F9E4, symSize: 0x43C }
  - { offset: 0x134357, size: 0x8, addend: 0x0, symName: '__ZN57_$LT$core..error..Request$u20$as$u20$core..fmt..Debug$GT$3fmt17ha7a7cfe7e69d0b84E', symObjAddr: 0x18340, symBinAddr: 0x10055F104, symSize: 0x6C }
  - { offset: 0x134405, size: 0x8, addend: 0x0, symName: '__ZN78_$LT$core..error..Source$u20$as$u20$core..iter..traits..iterator..Iterator$GT$4next17hdde7ab4f631cfcd1E', symObjAddr: 0x1E748, symBinAddr: 0x10056550C, symSize: 0x4C }
  - { offset: 0x134462, size: 0x8, addend: 0x0, symName: '__ZN57_$LT$core..time..Duration$u20$as$u20$core..fmt..Debug$GT$3fmt11fmt_decimal17h1fd9618c744af809E', symObjAddr: 0x183C8, symBinAddr: 0x10055F18C, symSize: 0x570 }
  - { offset: 0x134762, size: 0x8, addend: 0x0, symName: '__ZN57_$LT$core..time..Duration$u20$as$u20$core..fmt..Debug$GT$3fmt11fmt_decimal28_$u7b$$u7b$closure$u7d$$u7d$17h445c61af5a1e6080E', symObjAddr: 0x18938, symBinAddr: 0x10055F6FC, symSize: 0x204 }
  - { offset: 0x1348D3, size: 0x8, addend: 0x0, symName: '__ZN57_$LT$core..time..Duration$u20$as$u20$core..fmt..Debug$GT$3fmt17h720510d0e68230ddE', symObjAddr: 0x18B3C, symBinAddr: 0x10055F900, symSize: 0xE4 }
  - { offset: 0x13490C, size: 0x8, addend: 0x0, symName: '__ZN72_$LT$core..time..TryFromFloatSecsError$u20$as$u20$core..fmt..Display$GT$3fmt17ha97791460a6eee89E', symObjAddr: 0x1D604, symBinAddr: 0x1005643C8, symSize: 0x38 }
  - { offset: 0x134968, size: 0x8, addend: 0x0, symName: '__ZN60_$LT$core..task..wake..Waker$u20$as$u20$core..fmt..Debug$GT$3fmt17h92032ea96e254367E', symObjAddr: 0x1A08C, symBinAddr: 0x100560E50, symSize: 0xEC }
  - { offset: 0x134A65, size: 0x8, addend: 0x0, symName: '__ZN62_$LT$core..task..wake..Context$u20$as$u20$core..fmt..Debug$GT$3fmt17h85b48cced35ec580E', symObjAddr: 0x1A24C, symBinAddr: 0x100561010, symSize: 0xC4 }
  - { offset: 0x134B62, size: 0x8, addend: 0x0, symName: '__ZN65_$LT$core..task..wake..LocalWaker$u20$as$u20$core..fmt..Debug$GT$3fmt17h3b810ca824d80cb2E', symObjAddr: 0x1A7E4, symBinAddr: 0x1005615A8, symSize: 0xEC }
  - { offset: 0x134C90, size: 0x8, addend: 0x0, symName: '__ZN65_$LT$core..sync..atomic..AtomicI8$u20$as$u20$core..fmt..Debug$GT$3fmt17h68dcf9f787d5ae02E', symObjAddr: 0x1A7D4, symBinAddr: 0x100561598, symSize: 0x8 }
  - { offset: 0x134CAF, size: 0x8, addend: 0x0, symName: '__ZN65_$LT$core..sync..atomic..AtomicI8$u20$as$u20$core..fmt..Debug$GT$3fmt17h68dcf9f787d5ae02E', symObjAddr: 0x1A7D4, symBinAddr: 0x100561598, symSize: 0x8 }
  - { offset: 0x134CC5, size: 0x8, addend: 0x0, symName: '__ZN65_$LT$core..sync..atomic..AtomicI8$u20$as$u20$core..fmt..Debug$GT$3fmt17h68dcf9f787d5ae02E', symObjAddr: 0x1A7D4, symBinAddr: 0x100561598, symSize: 0x8 }
  - { offset: 0x134D03, size: 0x8, addend: 0x0, symName: '__ZN65_$LT$core..sync..atomic..AtomicU8$u20$as$u20$core..fmt..Debug$GT$3fmt17h060a966a3dfc8545E', symObjAddr: 0x1A7DC, symBinAddr: 0x1005615A0, symSize: 0x8 }
  - { offset: 0x134D22, size: 0x8, addend: 0x0, symName: '__ZN65_$LT$core..sync..atomic..AtomicU8$u20$as$u20$core..fmt..Debug$GT$3fmt17h060a966a3dfc8545E', symObjAddr: 0x1A7DC, symBinAddr: 0x1005615A0, symSize: 0x8 }
  - { offset: 0x134D38, size: 0x8, addend: 0x0, symName: '__ZN65_$LT$core..sync..atomic..AtomicU8$u20$as$u20$core..fmt..Debug$GT$3fmt17h060a966a3dfc8545E', symObjAddr: 0x1A7DC, symBinAddr: 0x1005615A0, symSize: 0x8 }
  - { offset: 0x134D76, size: 0x8, addend: 0x0, symName: '__ZN66_$LT$core..sync..atomic..AtomicI16$u20$as$u20$core..fmt..Debug$GT$3fmt17hcd860a279cb98679E', symObjAddr: 0x1A95C, symBinAddr: 0x100561720, symSize: 0x8 }
  - { offset: 0x134D95, size: 0x8, addend: 0x0, symName: '__ZN66_$LT$core..sync..atomic..AtomicI16$u20$as$u20$core..fmt..Debug$GT$3fmt17hcd860a279cb98679E', symObjAddr: 0x1A95C, symBinAddr: 0x100561720, symSize: 0x8 }
  - { offset: 0x134DAB, size: 0x8, addend: 0x0, symName: '__ZN66_$LT$core..sync..atomic..AtomicI16$u20$as$u20$core..fmt..Debug$GT$3fmt17hcd860a279cb98679E', symObjAddr: 0x1A95C, symBinAddr: 0x100561720, symSize: 0x8 }
  - { offset: 0x134DE9, size: 0x8, addend: 0x0, symName: '__ZN66_$LT$core..sync..atomic..AtomicI32$u20$as$u20$core..fmt..Debug$GT$3fmt17hc9c68339d6a7ebf3E', symObjAddr: 0x1A964, symBinAddr: 0x100561728, symSize: 0xC8 }
  - { offset: 0x134F0A, size: 0x8, addend: 0x0, symName: '__ZN66_$LT$core..sync..atomic..AtomicI64$u20$as$u20$core..fmt..Debug$GT$3fmt17hffc4c61750ef2511E', symObjAddr: 0x1AA2C, symBinAddr: 0x1005617F0, symSize: 0xC4 }
  - { offset: 0x13502B, size: 0x8, addend: 0x0, symName: '__ZN66_$LT$core..sync..atomic..AtomicU16$u20$as$u20$core..fmt..Debug$GT$3fmt17hc7cfb06c21ff35c7E', symObjAddr: 0x1AAF0, symBinAddr: 0x1005618B4, symSize: 0x8 }
  - { offset: 0x13504A, size: 0x8, addend: 0x0, symName: '__ZN66_$LT$core..sync..atomic..AtomicU16$u20$as$u20$core..fmt..Debug$GT$3fmt17hc7cfb06c21ff35c7E', symObjAddr: 0x1AAF0, symBinAddr: 0x1005618B4, symSize: 0x8 }
  - { offset: 0x135060, size: 0x8, addend: 0x0, symName: '__ZN66_$LT$core..sync..atomic..AtomicU16$u20$as$u20$core..fmt..Debug$GT$3fmt17hc7cfb06c21ff35c7E', symObjAddr: 0x1AAF0, symBinAddr: 0x1005618B4, symSize: 0x8 }
  - { offset: 0x13509E, size: 0x8, addend: 0x0, symName: '__ZN66_$LT$core..sync..atomic..AtomicU32$u20$as$u20$core..fmt..Debug$GT$3fmt17h41a4a6f4eb7f891cE', symObjAddr: 0x1AAF8, symBinAddr: 0x1005618BC, symSize: 0x1C8 }
  - { offset: 0x135278, size: 0x8, addend: 0x0, symName: '__ZN66_$LT$core..sync..atomic..AtomicU64$u20$as$u20$core..fmt..Debug$GT$3fmt17h41e43c2bebad6499E', symObjAddr: 0x1ACC0, symBinAddr: 0x100561A84, symSize: 0x8 }
  - { offset: 0x135297, size: 0x8, addend: 0x0, symName: '__ZN66_$LT$core..sync..atomic..AtomicU64$u20$as$u20$core..fmt..Debug$GT$3fmt17h41e43c2bebad6499E', symObjAddr: 0x1ACC0, symBinAddr: 0x100561A84, symSize: 0x8 }
  - { offset: 0x1352AD, size: 0x8, addend: 0x0, symName: '__ZN66_$LT$core..sync..atomic..AtomicU64$u20$as$u20$core..fmt..Debug$GT$3fmt17h41e43c2bebad6499E', symObjAddr: 0x1ACC0, symBinAddr: 0x100561A84, symSize: 0x8 }
  - { offset: 0x1352DD, size: 0x8, addend: 0x0, symName: '__ZN67_$LT$core..sync..atomic..AtomicBool$u20$as$u20$core..fmt..Debug$GT$3fmt17h2fa2c3af4f987727E', symObjAddr: 0x1BF50, symBinAddr: 0x100562D14, symSize: 0x34 }
  - { offset: 0x1353AA, size: 0x8, addend: 0x0, symName: '__ZN67_$LT$core..sync..atomic..AtomicI128$u20$as$u20$core..fmt..Debug$GT$3fmt17hac8cee680b1968e7E', symObjAddr: 0x1BF84, symBinAddr: 0x100562D48, symSize: 0xC }
  - { offset: 0x13541D, size: 0x8, addend: 0x0, symName: '__ZN67_$LT$core..sync..atomic..AtomicU128$u20$as$u20$core..fmt..Debug$GT$3fmt17h20828db90d37e374E', symObjAddr: 0x1BF90, symBinAddr: 0x100562D54, symSize: 0xC }
  - { offset: 0x135490, size: 0x8, addend: 0x0, symName: '__ZN68_$LT$core..sync..atomic..AtomicUsize$u20$as$u20$core..fmt..Debug$GT$3fmt17h8abc62ba70b07eafE', symObjAddr: 0x1C450, symBinAddr: 0x100563214, symSize: 0x28 }
  - { offset: 0x1354F4, size: 0x8, addend: 0x0, symName: '__ZN71_$LT$core..os..darwin..objc..objc_class$u20$as$u20$core..fmt..Debug$GT$3fmt17h141386fffe92fb64E', symObjAddr: 0x1D294, symBinAddr: 0x100564058, symSize: 0x18 }
  - { offset: 0x135512, size: 0x8, addend: 0x0, symName: '__ZN71_$LT$core..os..darwin..objc..objc_class$u20$as$u20$core..fmt..Debug$GT$3fmt17h141386fffe92fb64E', symObjAddr: 0x1D294, symBinAddr: 0x100564058, symSize: 0x18 }
  - { offset: 0x135527, size: 0x8, addend: 0x0, symName: '__ZN71_$LT$core..os..darwin..objc..objc_class$u20$as$u20$core..fmt..Debug$GT$3fmt17h141386fffe92fb64E', symObjAddr: 0x1D294, symBinAddr: 0x100564058, symSize: 0x18 }
  - { offset: 0x13553D, size: 0x8, addend: 0x0, symName: '__ZN71_$LT$core..os..darwin..objc..objc_class$u20$as$u20$core..fmt..Debug$GT$3fmt17h141386fffe92fb64E', symObjAddr: 0x1D294, symBinAddr: 0x100564058, symSize: 0x18 }
  - { offset: 0x135558, size: 0x8, addend: 0x0, symName: '__ZN74_$LT$core..os..darwin..objc..objc_selector$u20$as$u20$core..fmt..Debug$GT$3fmt17he1bc9fc75d6b416bE', symObjAddr: 0x1DCB4, symBinAddr: 0x100564A78, symSize: 0x18 }
  - { offset: 0x135576, size: 0x8, addend: 0x0, symName: '__ZN74_$LT$core..os..darwin..objc..objc_selector$u20$as$u20$core..fmt..Debug$GT$3fmt17he1bc9fc75d6b416bE', symObjAddr: 0x1DCB4, symBinAddr: 0x100564A78, symSize: 0x18 }
  - { offset: 0x13558B, size: 0x8, addend: 0x0, symName: '__ZN74_$LT$core..os..darwin..objc..objc_selector$u20$as$u20$core..fmt..Debug$GT$3fmt17he1bc9fc75d6b416bE', symObjAddr: 0x1DCB4, symBinAddr: 0x100564A78, symSize: 0x18 }
  - { offset: 0x1355A1, size: 0x8, addend: 0x0, symName: '__ZN74_$LT$core..os..darwin..objc..objc_selector$u20$as$u20$core..fmt..Debug$GT$3fmt17he1bc9fc75d6b416bE', symObjAddr: 0x1DCB4, symBinAddr: 0x100564A78, symSize: 0x18 }
  - { offset: 0x1355DF, size: 0x8, addend: 0x0, symName: '__ZN72_$LT$core..io..borrowed_buf..BorrowedBuf$u20$as$u20$core..fmt..Debug$GT$3fmt17he7032fd29648c5b0E', symObjAddr: 0x1D2F8, symBinAddr: 0x1005640BC, symSize: 0x108 }
  - { offset: 0x1356FC, size: 0x8, addend: 0x0, symName: '__ZN85_$LT$core..marker..variance..PhantomCovariantLifetime$u20$as$u20$core..fmt..Debug$GT$3fmt17h9fa7342b882fd8f0E', symObjAddr: 0x1EC04, symBinAddr: 0x1005659C8, symSize: 0x18 }
  - { offset: 0x135734, size: 0x8, addend: 0x0, symName: '__ZN85_$LT$core..marker..variance..PhantomInvariantLifetime$u20$as$u20$core..fmt..Debug$GT$3fmt17h9007e5ad81c85b94E', symObjAddr: 0x1EC1C, symBinAddr: 0x1005659E0, symSize: 0x18 }
  - { offset: 0x13576C, size: 0x8, addend: 0x0, symName: '__ZN89_$LT$core..marker..variance..PhantomContravariantLifetime$u20$as$u20$core..fmt..Debug$GT$3fmt17hda5e7ca59f4c91e0E', symObjAddr: 0x1FCDC, symBinAddr: 0x100566AA0, symSize: 0x18 }
  - { offset: 0x1357A1, size: 0x8, addend: 0x0, symName: _OUTLINED_FUNCTION_0, symObjAddr: 0x1FD40, symBinAddr: 0x100566B04, symSize: 0x10 }
  - { offset: 0x1357B9, size: 0x8, addend: 0x0, symName: _OUTLINED_FUNCTION_1, symObjAddr: 0x1FD50, symBinAddr: 0x100566B14, symSize: 0x10 }
  - { offset: 0x1357F7, size: 0x8, addend: 0x0, symName: _backtrace_dwarf_add, symObjAddr: 0x0, symBinAddr: 0x100566B24, symSize: 0xC6C }
  - { offset: 0x136DE3, size: 0x8, addend: 0x0, symName: _backtrace_dwarf_add, symObjAddr: 0x0, symBinAddr: 0x100566B24, symSize: 0xC6C }
  - { offset: 0x137E0E, size: 0x8, addend: 0x0, symName: _read_initial_length, symObjAddr: 0xDB4, symBinAddr: 0x1005678D8, symSize: 0x110 }
  - { offset: 0x137F62, size: 0x8, addend: 0x0, symName: _read_offset, symObjAddr: 0xF58, symBinAddr: 0x100567A7C, symSize: 0x10C }
  - { offset: 0x138067, size: 0x8, addend: 0x0, symName: _read_uleb128, symObjAddr: 0x1678, symBinAddr: 0x10056819C, symSize: 0x15C }
  - { offset: 0x1381D0, size: 0x8, addend: 0x0, symName: _read_sleb128, symObjAddr: 0x17D4, symBinAddr: 0x1005682F8, symSize: 0x174 }
  - { offset: 0x13836D, size: 0x8, addend: 0x0, symName: _find_address_ranges, symObjAddr: 0x1140, symBinAddr: 0x100567C64, symSize: 0x538 }
  - { offset: 0x1386C0, size: 0x8, addend: 0x0, symName: _resolve_unit_addrs_overlap_walk, symObjAddr: 0x3168, symBinAddr: 0x100569C8C, symSize: 0x214 }
  - { offset: 0x138893, size: 0x8, addend: 0x0, symName: _dwarf_fileline, symObjAddr: 0xC6C, symBinAddr: 0x100567790, symSize: 0xE8 }
  - { offset: 0x1389E9, size: 0x8, addend: 0x0, symName: _dwarf_lookup_pc, symObjAddr: 0x337C, symBinAddr: 0x100569EA0, symSize: 0x5A8 }
  - { offset: 0x138F2B, size: 0x8, addend: 0x0, symName: _unit_addrs_compare, symObjAddr: 0xD54, symBinAddr: 0x100567878, symSize: 0x60 }
  - { offset: 0x138FB0, size: 0x8, addend: 0x0, symName: _read_uint64, symObjAddr: 0x1064, symBinAddr: 0x100567B88, symSize: 0xDC }
  - { offset: 0x139067, size: 0x8, addend: 0x0, symName: _dwarf_buf_error, symObjAddr: 0xEC4, symBinAddr: 0x1005679E8, symSize: 0x94 }
  - { offset: 0x139275, size: 0x8, addend: 0x0, symName: _read_attribute, symObjAddr: 0x1960, symBinAddr: 0x100568484, symSize: 0xCD4 }
  - { offset: 0x139E79, size: 0x8, addend: 0x0, symName: _resolve_string, symObjAddr: 0x2634, symBinAddr: 0x100569158, symSize: 0x160 }
  - { offset: 0x139FC6, size: 0x8, addend: 0x0, symName: _add_ranges, symObjAddr: 0x2794, symBinAddr: 0x1005692B8, symSize: 0x704 }
  - { offset: 0x13A891, size: 0x8, addend: 0x0, symName: _abbrev_compare, symObjAddr: 0x1948, symBinAddr: 0x10056846C, symSize: 0x18 }
  - { offset: 0x13A959, size: 0x8, addend: 0x0, symName: _read_address, symObjAddr: 0x2F3C, symBinAddr: 0x100569A60, symSize: 0x22C }
  - { offset: 0x13AFCD, size: 0x8, addend: 0x0, symName: _add_unit_addr, symObjAddr: 0x2E98, symBinAddr: 0x1005699BC, symSize: 0xA4 }
  - { offset: 0x13B286, size: 0x8, addend: 0x0, symName: _read_line_info, symObjAddr: 0x394C, symBinAddr: 0x10056A470, symSize: 0x119C }
  - { offset: 0x13C7EE, size: 0x8, addend: 0x0, symName: _read_function_entry, symObjAddr: 0x5084, symBinAddr: 0x10056BBA8, symSize: 0x760 }
  - { offset: 0x13CD25, size: 0x8, addend: 0x0, symName: _report_inlined_functions, symObjAddr: 0x4B38, symBinAddr: 0x10056B65C, symSize: 0x118 }
  - { offset: 0x13CE79, size: 0x8, addend: 0x0, symName: _unit_addrs_search, symObjAddr: 0x3924, symBinAddr: 0x10056A448, symSize: 0x28 }
  - { offset: 0x13D27A, size: 0x8, addend: 0x0, symName: _read_line_header_format_entries, symObjAddr: 0x4C90, symBinAddr: 0x10056B7B4, symSize: 0x3F4 }
  - { offset: 0x13D6B2, size: 0x8, addend: 0x0, symName: _line_search, symObjAddr: 0x4AE8, symBinAddr: 0x10056B60C, symSize: 0x28 }
  - { offset: 0x13D71F, size: 0x8, addend: 0x0, symName: _function_addrs_search, symObjAddr: 0x4B10, symBinAddr: 0x10056B634, symSize: 0x28 }
  - { offset: 0x13D78C, size: 0x8, addend: 0x0, symName: _line_compare, symObjAddr: 0x4C50, symBinAddr: 0x10056B774, symSize: 0x40 }
  - { offset: 0x13D8CA, size: 0x8, addend: 0x0, symName: _read_referenced_name_from_attr, symObjAddr: 0x5838, symBinAddr: 0x10056C35C, symSize: 0x150 }
  - { offset: 0x13DA7F, size: 0x8, addend: 0x0, symName: _function_addrs_compare, symObjAddr: 0x57E4, symBinAddr: 0x10056C308, symSize: 0x54 }
  - { offset: 0x13DB47, size: 0x8, addend: 0x0, symName: _read_referenced_name, symObjAddr: 0x5A2C, symBinAddr: 0x10056C550, symSize: 0x2A8 }
  - { offset: 0x13DDE9, size: 0x8, addend: 0x0, symName: _add_function_range, symObjAddr: 0x5988, symBinAddr: 0x10056C4AC, symSize: 0xA4 }
  - { offset: 0x13DEC9, size: 0x8, addend: 0x0, symName: _units_search, symObjAddr: 0x5CD4, symBinAddr: 0x10056C7F8, symSize: 0x2C }
  - { offset: 0x13DF7C, size: 0x8, addend: 0x0, symName: _backtrace_pcinfo, symObjAddr: 0x0, symBinAddr: 0x10056C824, symSize: 0x84 }
  - { offset: 0x13E068, size: 0x8, addend: 0x0, symName: _backtrace_pcinfo, symObjAddr: 0x0, symBinAddr: 0x10056C824, symSize: 0x84 }
  - { offset: 0x13E109, size: 0x8, addend: 0x0, symName: _fileline_initialize, symObjAddr: 0x84, symBinAddr: 0x10056C8A8, symSize: 0x2B8 }
  - { offset: 0x13E5A0, size: 0x8, addend: 0x0, symName: _backtrace_syminfo, symObjAddr: 0x33C, symBinAddr: 0x10056CB60, symSize: 0x7C }
  - { offset: 0x13E660, size: 0x8, addend: 0x0, symName: _backtrace_syminfo_to_full_callback, symObjAddr: 0x3B8, symBinAddr: 0x10056CBDC, symSize: 0x38 }
  - { offset: 0x13E703, size: 0x8, addend: 0x0, symName: _backtrace_syminfo_to_full_error_callback, symObjAddr: 0x3F0, symBinAddr: 0x10056CC14, symSize: 0x8 }
  - { offset: 0x13E7A8, size: 0x8, addend: 0x0, symName: _backtrace_open, symObjAddr: 0x0, symBinAddr: 0x10056CC1C, symSize: 0xC0 }
  - { offset: 0x13E7D4, size: 0x8, addend: 0x0, symName: _backtrace_open, symObjAddr: 0x0, symBinAddr: 0x10056CC1C, symSize: 0xC0 }
  - { offset: 0x13E922, size: 0x8, addend: 0x0, symName: _backtrace_close, symObjAddr: 0xC0, symBinAddr: 0x10056CCDC, symSize: 0x4C }
  - { offset: 0x13EA03, size: 0x8, addend: 0x0, symName: _backtrace_qsort, symObjAddr: 0x0, symBinAddr: 0x10056CD28, symSize: 0x480 }
  - { offset: 0x13EA7B, size: 0x8, addend: 0x0, symName: _backtrace_qsort, symObjAddr: 0x0, symBinAddr: 0x10056CD28, symSize: 0x480 }
  - { offset: 0x13EC61, size: 0x8, addend: 0x0, symName: _backtrace_create_state, symObjAddr: 0x0, symBinAddr: 0x10056D1A8, symSize: 0x5C }
  - { offset: 0x13EE14, size: 0x8, addend: 0x0, symName: _backtrace_create_state, symObjAddr: 0x0, symBinAddr: 0x10056D1A8, symSize: 0x5C }
  - { offset: 0x13EF16, size: 0x8, addend: 0x0, symName: _backtrace_initialize, symObjAddr: 0x0, symBinAddr: 0x10056D204, symSize: 0x204 }
  - { offset: 0x13F02C, size: 0x8, addend: 0x0, symName: _backtrace_initialize, symObjAddr: 0x0, symBinAddr: 0x10056D204, symSize: 0x204 }
  - { offset: 0x13F308, size: 0x8, addend: 0x0, symName: _macho_add, symObjAddr: 0x22C, symBinAddr: 0x10056D430, symSize: 0x904 }
  - { offset: 0x13FC8B, size: 0x8, addend: 0x0, symName: _macho_nodebug, symObjAddr: 0x204, symBinAddr: 0x10056D408, symSize: 0x28 }
  - { offset: 0x140438, size: 0x8, addend: 0x0, symName: _macho_add_fat, symObjAddr: 0xBF4, symBinAddr: 0x10056DDF8, symSize: 0x190 }
  - { offset: 0x1406E0, size: 0x8, addend: 0x0, symName: _macho_add_dwarf_section, symObjAddr: 0xFB4, symBinAddr: 0x10056E1B8, symSize: 0x1A8 }
  - { offset: 0x14092C, size: 0x8, addend: 0x0, symName: _macho_add_dsym, symObjAddr: 0xD84, symBinAddr: 0x10056DF88, symSize: 0x230 }
  - { offset: 0x140CC5, size: 0x8, addend: 0x0, symName: _macho_syminfo, symObjAddr: 0xB30, symBinAddr: 0x10056DD34, symSize: 0xB0 }
  - { offset: 0x140DE8, size: 0x8, addend: 0x0, symName: _macho_nosyms, symObjAddr: 0xBE0, symBinAddr: 0x10056DDE4, symSize: 0x14 }
  - { offset: 0x140EA5, size: 0x8, addend: 0x0, symName: _macho_symbol_compare, symObjAddr: 0x115C, symBinAddr: 0x10056E360, symSize: 0x18 }
  - { offset: 0x140F01, size: 0x8, addend: 0x0, symName: _macho_symbol_search, symObjAddr: 0x1174, symBinAddr: 0x10056E378, symSize: 0x4C }
  - { offset: 0x1412AB, size: 0x8, addend: 0x0, symName: _backtrace_get_view, symObjAddr: 0x0, symBinAddr: 0x10056E3C4, symSize: 0xC0 }
  - { offset: 0x141303, size: 0x8, addend: 0x0, symName: _backtrace_get_view, symObjAddr: 0x0, symBinAddr: 0x10056E3C4, symSize: 0xC0 }
  - { offset: 0x1414A4, size: 0x8, addend: 0x0, symName: _backtrace_release_view, symObjAddr: 0xC0, symBinAddr: 0x10056E484, symSize: 0x5C }
  - { offset: 0x14175F, size: 0x8, addend: 0x0, symName: _backtrace_alloc, symObjAddr: 0x0, symBinAddr: 0x10056E4E0, symSize: 0x1A8 }
  - { offset: 0x1419B6, size: 0x8, addend: 0x0, symName: _backtrace_alloc, symObjAddr: 0x0, symBinAddr: 0x10056E4E0, symSize: 0x1A8 }
  - { offset: 0x141BB1, size: 0x8, addend: 0x0, symName: _backtrace_free, symObjAddr: 0x1A8, symBinAddr: 0x10056E688, symSize: 0x10C }
  - { offset: 0x141CEF, size: 0x8, addend: 0x0, symName: _backtrace_vector_grow, symObjAddr: 0x2B4, symBinAddr: 0x10056E794, symSize: 0x104 }
  - { offset: 0x141DF1, size: 0x8, addend: 0x0, symName: _backtrace_vector_finish, symObjAddr: 0x3B8, symBinAddr: 0x10056E898, symSize: 0x10 }
  - { offset: 0x141E5C, size: 0x8, addend: 0x0, symName: _backtrace_vector_release, symObjAddr: 0x3C8, symBinAddr: 0x10056E8A8, symSize: 0x50 }
...
